--- !tapi-tbd
tbd-version:     4
targets:         [ arm64-macos ]
flags:           [ not_app_extension_safe ]
install-name:    '@rpath/absl.framework/Versions/A/absl'
exports:
  - targets:         [ arm64-macos ]
    symbols:         [ __ZN4absl12lts_2021110210CHexEscapeENS0_11string_viewE, __ZN4absl12lts_2021110210FormatTimeENS0_11string_viewENS0_4TimeENS0_8TimeZoneE, 
                       __ZN4absl12lts_2021110210FormatTimeENS0_4TimeE, __ZN4absl12lts_2021110210FormatTimeENS0_4TimeENS0_8TimeZoneE, 
                       __ZN4absl12lts_2021110210FromChronoERKNSt3__16chrono10time_pointINS2_12system_clockENS2_8durationIxNS1_5ratioILl1ELl1000000EEEEEEE, 
                       __ZN4absl12lts_2021110210IsDataLossERKNS0_6StatusE, __ZN4absl12lts_2021110210IsInternalERKNS0_6StatusE, 
                       __ZN4absl12lts_2021110210IsNotFoundERKNS0_6StatusE, __ZN4absl12lts_2021110210SimpleAtobENS0_11string_viewEPb, 
                       __ZN4absl12lts_2021110210SimpleAtodENS0_11string_viewEPd, 
                       __ZN4absl12lts_2021110210SimpleAtofENS0_11string_viewEPf, 
                       __ZN4absl12lts_2021110210ToTimespecENS0_4TimeE, __ZN4absl12lts_2021110210ToTimespecENS0_8DurationE, 
                       __ZN4absl12lts_2021110210from_charsEPKcS2_RdNS0_12chars_formatE, 
                       __ZN4absl12lts_2021110210from_charsEPKcS2_RfNS0_12chars_formatE, 
                       __ZN4absl12lts_2021110211IsCancelledERKNS0_6StatusE, __ZN4absl12lts_2021110211MakeSeedSeqEv, 
                       __ZN4absl12lts_2021110211RFC3339_secE, __ZN4absl12lts_2021110211ToUniversalENS0_4TimeE, 
                       __ZN4absl12lts_2021110211ToUnixNanosENS0_4TimeE, __ZN4absl12lts_2021110211UnparseFlagENS0_4TimeE, 
                       __ZN4absl12lts_2021110211UnparseFlagENS0_8DurationE, __ZN4absl12lts_2021110211kuint128maxE, 
                       __ZN4absl12lts_2021110211string_view4nposE, __ZN4absl12lts_2021110211string_view8kMaxSizeE, 
                       __ZN4absl12lts_2021110212AbortedErrorENS0_11string_viewE, 
                       __ZN4absl12lts_2021110212Base64EscapeENS0_11string_viewE, 
                       __ZN4absl12lts_2021110212Base64EscapeENS0_11string_viewEPNSt3__112basic_stringIcNS2_11char_traitsIcEENS2_9allocatorIcEEEE, 
                       __ZN4absl12lts_2021110212FDivDurationENS0_8DurationES1_, __ZN4absl12lts_2021110212IsOutOfRangeERKNS0_6StatusE, 
                       __ZN4absl12lts_2021110212Notification6NotifyEv, __ZN4absl12lts_2021110212NotificationD1Ev, 
                       __ZN4absl12lts_2021110212NotificationD2Ev, __ZN4absl12lts_2021110212RFC1123_fullE, 
                       __ZN4absl12lts_2021110212RFC3339_fullE, __ZN4absl12lts_2021110212ToChronoTimeENS0_4TimeE, 
                       __ZN4absl12lts_2021110212ToInt64HoursENS0_8DurationE, __ZN4absl12lts_2021110212ToUnixMicrosENS0_4TimeE, 
                       __ZN4absl12lts_2021110212ToUnixMillisENS0_4TimeE, __ZN4absl12lts_2021110212UnknownErrorENS0_11string_viewE, 
                       __ZN4absl12lts_2021110212any_internal15ThrowBadAnyCastEv, 
                       __ZN4absl12lts_2021110212bad_any_castD0Ev, __ZN4absl12lts_2021110212bad_any_castD1Ev, 
                       __ZN4absl12lts_2021110212bad_any_castD2Ev, __ZN4absl12lts_2021110213AbslParseFlagENS0_11string_viewEPNS0_4TimeEPNSt3__112basic_stringIcNS4_11char_traitsIcEENS4_9allocatorIcEEEE, 
                       __ZN4absl12lts_2021110213AbslParseFlagENS0_11string_viewEPNS0_8DurationEPNSt3__112basic_stringIcNS4_11char_traitsIcEENS4_9allocatorIcEEEE, 
                       __ZN4absl12lts_2021110213DataLossErrorENS0_11string_viewE, 
                       __ZN4absl12lts_2021110213FromUniversalEx, __ZN4absl12lts_2021110213GetStackTraceEPPvii, 
                       __ZN4absl12lts_2021110213InternalErrorENS0_11string_viewE, 
                       __ZN4absl12lts_2021110213IsUnavailableERKNS0_6StatusE, __ZN4absl12lts_2021110213NotFoundErrorENS0_11string_viewE, 
                       __ZN4absl12lts_2021110213ParseDurationENS0_11string_viewEPNS0_8DurationE, 
                       __ZN4absl12lts_2021110213StrReplaceAllENS0_11string_viewESt16initializer_listINSt3__14pairIS1_S1_EEE, 
                       __ZN4absl12lts_2021110213StrReplaceAllESt16initializer_listINSt3__14pairINS0_11string_viewES4_EEEPNS2_12basic_stringIcNS2_11char_traitsIcEENS2_9allocatorIcEEEE, 
                       __ZN4absl12lts_2021110213ToChronoHoursENS0_8DurationE, __ZN4absl12lts_2021110213ToDoubleHoursENS0_8DurationE, 
                       __ZN4absl12lts_2021110213ToUnixSecondsENS0_4TimeE, __ZN4absl12lts_2021110213base_internal10CycleClock3NowEv, 
                       __ZN4absl12lts_2021110213base_internal10CycleClock9FrequencyEv, 
                       __ZN4absl12lts_2021110213base_internal12GetCachedTIDEv, __ZN4absl12lts_2021110213base_internal12SpinLockWaitEPNSt3__16atomicIjEEiPKNS1_22SpinLockWaitTransitionENS1_14SchedulingModeE, 
                       __ZN4absl12lts_2021110213base_internal13LowLevelAlloc11DeleteArenaEPNS2_5ArenaE, 
                       __ZN4absl12lts_2021110213base_internal13LowLevelAlloc12DefaultArenaEv, 
                       __ZN4absl12lts_2021110213base_internal13LowLevelAlloc14AllocWithArenaEmPNS2_5ArenaE, 
                       __ZN4absl12lts_2021110213base_internal13LowLevelAlloc4FreeEPv, 
                       __ZN4absl12lts_2021110213base_internal13LowLevelAlloc5AllocEm, 
                       __ZN4absl12lts_2021110213base_internal13LowLevelAlloc5ArenaC1Ej, 
                       __ZN4absl12lts_2021110213base_internal13LowLevelAlloc5ArenaC2Ej, 
                       __ZN4absl12lts_2021110213base_internal13LowLevelAlloc8NewArenaEi, 
                       __ZN4absl12lts_2021110213base_internal16CycleClockSource8RegisterEPFxvE, 
                       __ZN4absl12lts_2021110213base_internal16ThrowStdBadAllocEv, 
                       __ZN4absl12lts_2021110213base_internal18ThrowStdLogicErrorEPKc, 
                       __ZN4absl12lts_2021110213base_internal18ThrowStdLogicErrorERKNSt3__112basic_stringIcNS2_11char_traitsIcEENS2_9allocatorIcEEEE, 
                       __ZN4absl12lts_2021110213base_internal18ThrowStdOutOfRangeEPKc, 
                       __ZN4absl12lts_2021110213base_internal18ThrowStdOutOfRangeERKNSt3__112basic_stringIcNS2_11char_traitsIcEENS2_9allocatorIcEEEE, 
                       __ZN4absl12lts_2021110213base_internal18ThrowStdRangeErrorEPKc, 
                       __ZN4absl12lts_2021110213base_internal18ThrowStdRangeErrorERKNSt3__112basic_stringIcNS2_11char_traitsIcEENS2_9allocatorIcEEEE, 
                       __ZN4absl12lts_2021110213base_internal18UnscaledCycleClock3NowEv, 
                       __ZN4absl12lts_2021110213base_internal18UnscaledCycleClock9FrequencyEv, 
                       __ZN4absl12lts_2021110213base_internal19NominalCPUFrequencyEv, 
                       __ZN4absl12lts_2021110213base_internal19ThrowStdDomainErrorEPKc, 
                       __ZN4absl12lts_2021110213base_internal19ThrowStdDomainErrorERKNSt3__112basic_stringIcNS2_11char_traitsIcEENS2_9allocatorIcEEEE, 
                       __ZN4absl12lts_2021110213base_internal19ThrowStdLengthErrorEPKc, 
                       __ZN4absl12lts_2021110213base_internal19ThrowStdLengthErrorERKNSt3__112basic_stringIcNS2_11char_traitsIcEENS2_9allocatorIcEEEE, 
                       __ZN4absl12lts_2021110213base_internal20ThrowStdRuntimeErrorEPKc, 
                       __ZN4absl12lts_2021110213base_internal20ThrowStdRuntimeErrorERKNSt3__112basic_stringIcNS2_11char_traitsIcEENS2_9allocatorIcEEEE, 
                       __ZN4absl12lts_2021110213base_internal21ThrowStdOverflowErrorEPKc, 
                       __ZN4absl12lts_2021110213base_internal21ThrowStdOverflowErrorERKNSt3__112basic_stringIcNS2_11char_traitsIcEENS2_9allocatorIcEEEE, 
                       __ZN4absl12lts_2021110213base_internal22ThrowStdUnderflowErrorEPKc, 
                       __ZN4absl12lts_2021110213base_internal22ThrowStdUnderflowErrorERKNSt3__112basic_stringIcNS2_11char_traitsIcEENS2_9allocatorIcEEEE, 
                       __ZN4absl12lts_2021110213base_internal23ThrowStdBadFunctionCallEv, 
                       __ZN4absl12lts_2021110213base_internal23ThrowStdInvalidArgumentEPKc, 
                       __ZN4absl12lts_2021110213base_internal23ThrowStdInvalidArgumentERKNSt3__112basic_stringIcNS2_11char_traitsIcEENS2_9allocatorIcEEEE, 
                       __ZN4absl12lts_2021110213base_internal24RegisterSpinLockProfilerEPFvPKvxE, 
                       __ZN4absl12lts_2021110213base_internal24SetCurrentThreadIdentityEPNS1_14ThreadIdentityEPFvPvE, 
                       __ZN4absl12lts_2021110213base_internal24SpinLockSuggestedDelayNSEi, 
                       __ZN4absl12lts_2021110213base_internal26ClearCurrentThreadIdentityEv, 
                       __ZN4absl12lts_2021110213base_internal30CurrentThreadIdentityIfPresentEv, 
                       __ZN4absl12lts_2021110213base_internal6GetTIDEv, __ZN4absl12lts_2021110213base_internal7NumCPUsEv, 
                       __ZN4absl12lts_2021110213base_internal8SpinLock10SlowUnlockEj, 
                       __ZN4absl12lts_2021110213base_internal8SpinLock13kSpinLockHeldE, 
                       __ZN4absl12lts_2021110213base_internal8SpinLock13kWaitTimeMaskE, 
                       __ZN4absl12lts_2021110213base_internal8SpinLock16DecodeWaitCyclesEj, 
                       __ZN4absl12lts_2021110213base_internal8SpinLock16EncodeWaitCyclesExx, 
                       __ZN4absl12lts_2021110213base_internal8SpinLock16kSpinLockSleeperE, 
                       __ZN4absl12lts_2021110213base_internal8SpinLock20kSpinLockCooperativeE, 
                       __ZN4absl12lts_2021110213base_internal8SpinLock27kSpinLockDisabledSchedulingE, 
                       __ZN4absl12lts_2021110213base_internal8SpinLock8SlowLockEv, 
                       __ZN4absl12lts_2021110213base_internal8SpinLock8SpinLoopEv, 
                       __ZN4absl12lts_2021110213base_internal8SpinLockC1ENS1_14SchedulingModeE, 
                       __ZN4absl12lts_2021110213base_internal8SpinLockC2ENS1_14SchedulingModeE, 
                       __ZN4absl12lts_2021110213base_internal8StrErrorEi, __ZN4absl12lts_2021110213cord_internal11CordRepRing10AppendLeafEPS2_PNS1_7CordRepEmm, 
                       __ZN4absl12lts_2021110213cord_internal11CordRepRing10AppendSlowEPS2_PNS1_7CordRepE, 
                       __ZN4absl12lts_2021110213cord_internal11CordRepRing10CreateSlowEPNS1_7CordRepEm, 
                       __ZN4absl12lts_2021110213cord_internal11CordRepRing11PrependLeafEPS2_PNS1_7CordRepEmm, 
                       __ZN4absl12lts_2021110213cord_internal11CordRepRing11PrependSlowEPS2_PNS1_7CordRepE, 
                       __ZN4absl12lts_2021110213cord_internal11CordRepRing12RemovePrefixEPS2_mm, 
                       __ZN4absl12lts_2021110213cord_internal11CordRepRing12RemoveSuffixEPS2_mm, 
                       __ZN4absl12lts_2021110213cord_internal11CordRepRing12kMaxCapacityE, 
                       __ZN4absl12lts_2021110213cord_internal11CordRepRing13AddDataOffsetEjm, 
                       __ZN4absl12lts_2021110213cord_internal11CordRepRing14CreateFromLeafEPNS1_7CordRepEmmm, 
                       __ZN4absl12lts_2021110213cord_internal11CordRepRing15GetAppendBufferEm, 
                       __ZN4absl12lts_2021110213cord_internal11CordRepRing16GetPrependBufferEm, 
                       __ZN4absl12lts_2021110213cord_internal11CordRepRing21SetCapacityForTestingEm, 
                       __ZN4absl12lts_2021110213cord_internal11CordRepRing3NewEmm, 
                       __ZN4absl12lts_2021110213cord_internal11CordRepRing4CopyEPS2_jjm, 
                       __ZN4absl12lts_2021110213cord_internal11CordRepRing6AppendEPS2_NS0_11string_viewEm, 
                       __ZN4absl12lts_2021110213cord_internal11CordRepRing6AppendEPS2_PNS1_7CordRepE, 
                       __ZN4absl12lts_2021110213cord_internal11CordRepRing6CreateEPNS1_7CordRepEm, 
                       __ZN4absl12lts_2021110213cord_internal11CordRepRing6DeleteEPS2_, 
                       __ZN4absl12lts_2021110213cord_internal11CordRepRing7DestroyEPS2_, 
                       __ZN4absl12lts_2021110213cord_internal11CordRepRing7MutableEPS2_m, 
                       __ZN4absl12lts_2021110213cord_internal11CordRepRing7PrependEPS2_NS0_11string_viewEm, 
                       __ZN4absl12lts_2021110213cord_internal11CordRepRing7PrependEPS2_PNS1_7CordRepE, 
                       __ZN4absl12lts_2021110213cord_internal11CordRepRing7SubRingEPS2_mmm, 
                       __ZN4absl12lts_2021110213cord_internal11CordRepRing9SubLengthEjm, 
                       __ZN4absl12lts_2021110213cord_internal11CordzHandle13global_queue_E, 
                       __ZN4absl12lts_2021110213cord_internal11CordzHandle25DiagnosticsGetDeleteQueueEv, 
                       __ZN4absl12lts_2021110213cord_internal11CordzHandle41DiagnosticsGetSafeToInspectDeletedHandlesEv, 
                       __ZN4absl12lts_2021110213cord_internal11CordzHandle6DeleteEPS2_, 
                       __ZN4absl12lts_2021110213cord_internal11CordzHandleC1Eb, __ZN4absl12lts_2021110213cord_internal11CordzHandleC2Eb, 
                       __ZN4absl12lts_2021110213cord_internal11CordzHandleD0Ev, __ZN4absl12lts_2021110213cord_internal11CordzHandleD1Ev, 
                       __ZN4absl12lts_2021110213cord_internal11CordzHandleD2Ev, __ZN4absl12lts_2021110213cord_internal12CordRepBtree10AppendSlowEPS2_PNS1_7CordRepE, 
                       __ZN4absl12lts_2021110213cord_internal12CordRepBtree10CopyPrefixEmb, 
                       __ZN4absl12lts_2021110213cord_internal12CordRepBtree10CopySuffixEm, 
                       __ZN4absl12lts_2021110213cord_internal12CordRepBtree10CreateSlowEPNS1_7CordRepE, 
                       __ZN4absl12lts_2021110213cord_internal12CordRepBtree10MergeTreesEPS2_S3_, 
                       __ZN4absl12lts_2021110213cord_internal12CordRepBtree11AssertValidEPKS2_b, 
                       __ZN4absl12lts_2021110213cord_internal12CordRepBtree11AssertValidEPS2_b, 
                       __ZN4absl12lts_2021110213cord_internal12CordRepBtree11DestroyLeafEPS2_mm, 
                       __ZN4absl12lts_2021110213cord_internal12CordRepBtree11PrependSlowEPS2_PNS1_7CordRepE, 
                       __ZN4absl12lts_2021110213cord_internal12CordRepBtree12ExtractFrontEPS2_, 
                       __ZN4absl12lts_2021110213cord_internal12CordRepBtree12RemoveSuffixEPS2_m, 
                       __ZN4absl12lts_2021110213cord_internal12CordRepBtree12kMaxCapacityE, 
                       __ZN4absl12lts_2021110213cord_internal12CordRepBtree14ConsumeBeginToEPS2_mm, 
                       __ZN4absl12lts_2021110213cord_internal12CordRepBtree14DestroyNonLeafEPS2_mm, 
                       __ZN4absl12lts_2021110213cord_internal12CordRepBtree19GetAppendBufferSlowEm, 
                       __ZN4absl12lts_2021110213cord_internal12CordRepBtree4DumpEPKNS1_7CordRepENS0_11string_viewERNSt3__113basic_ostreamIcNS7_11char_traitsIcEEEE, 
                       __ZN4absl12lts_2021110213cord_internal12CordRepBtree4DumpEPKNS1_7CordRepENS0_11string_viewEbRNSt3__113basic_ostreamIcNS7_11char_traitsIcEEEE, 
                       __ZN4absl12lts_2021110213cord_internal12CordRepBtree4DumpEPKNS1_7CordRepERNSt3__113basic_ostreamIcNS6_11char_traitsIcEEEE, 
                       __ZN4absl12lts_2021110213cord_internal12CordRepBtree6AppendEPS2_NS0_11string_viewEm, 
                       __ZN4absl12lts_2021110213cord_internal12CordRepBtree7AddDataILNS2_8EdgeTypeE0EEENS0_11string_viewES5_m, 
                       __ZN4absl12lts_2021110213cord_internal12CordRepBtree7AddDataILNS2_8EdgeTypeE1EEENS0_11string_viewES5_m, 
                       __ZN4absl12lts_2021110213cord_internal12CordRepBtree7IsValidEPKS2_b, 
                       __ZN4absl12lts_2021110213cord_internal12CordRepBtree7NewLeafILNS2_8EdgeTypeE0EEEPS2_NS0_11string_viewEm, 
                       __ZN4absl12lts_2021110213cord_internal12CordRepBtree7NewLeafILNS2_8EdgeTypeE1EEEPS2_NS0_11string_viewEm, 
                       __ZN4absl12lts_2021110213cord_internal12CordRepBtree7PrependEPS2_NS0_11string_viewEm, 
                       __ZN4absl12lts_2021110213cord_internal12CordRepBtree7RebuildEPPS2_S3_b, 
                       __ZN4absl12lts_2021110213cord_internal12CordRepBtree7RebuildEPS2_, 
                       __ZN4absl12lts_2021110213cord_internal12CordRepBtree7SubTreeEmm, 
                       __ZN4absl12lts_2021110213cord_internal14ReverseConsumeEPNS1_7CordRepENS0_11FunctionRefIFvS3_mmEEE, 
                       __ZN4absl12lts_2021110213cord_internal18CordRepBtreeReader4ReadEmmRPNS1_7CordRepE, 
                       __ZN4absl12lts_2021110213cord_internal18cord_btree_enabledE, 
                       __ZN4absl12lts_2021110213cord_internal21CordRepBtreeNavigator4ReadEmm, 
                       __ZN4absl12lts_2021110213cord_internal21CordRepBtreeNavigator4SkipEm, 
                       __ZN4absl12lts_2021110213cord_internal23get_cordz_mean_intervalEv, 
                       __ZN4absl12lts_2021110213cord_internal23set_cordz_mean_intervalEi, 
                       __ZN4absl12lts_2021110213cord_internal24cord_ring_buffer_enabledE, 
                       __ZN4absl12lts_2021110213cord_internal24shallow_subcords_enabledE, 
                       __ZN4absl12lts_2021110213cord_internal25InitializeCordRepExternalENS0_11string_viewEPNS1_15CordRepExternalE, 
                       __ZN4absl12lts_2021110213cord_internal32cord_btree_exhaustive_validationE, 
                       __ZN4absl12lts_2021110213cord_internal7ConsumeEPNS1_7CordRepENS0_11FunctionRefIFvS3_mmEEE, 
                       __ZN4absl12lts_2021110213cord_internal7CordRep7DestroyEPS2_, 
                       __ZN4absl12lts_2021110213cord_internal9CordzInfo12global_list_E, 
                       __ZN4absl12lts_2021110213cord_internal9CordzInfo14kMaxStackDepthE, 
                       __ZN4absl12lts_2021110213cord_internal9CordzInfo15FillParentStackEPKS2_PPv, 
                       __ZN4absl12lts_2021110213cord_internal9CordzInfo15GetParentMethodEPKS2_, 
                       __ZN4absl12lts_2021110213cord_internal9CordzInfo18MaybeTrackCordImplERNS1_10InlineDataERKS3_NS1_18CordzUpdateTracker16MethodIdentifierE, 
                       __ZN4absl12lts_2021110213cord_internal9CordzInfo4HeadERKNS1_13CordzSnapshotE, 
                       __ZN4absl12lts_2021110213cord_internal9CordzInfo4LockENS1_18CordzUpdateTracker16MethodIdentifierE, 
                       __ZN4absl12lts_2021110213cord_internal9CordzInfo5TrackEv, 
                       __ZN4absl12lts_2021110213cord_internal9CordzInfo6UnlockEv, 
                       __ZN4absl12lts_2021110213cord_internal9CordzInfo7UntrackEv, 
                       __ZN4absl12lts_2021110213cord_internal9CordzInfo9TrackCordERNS1_10InlineDataENS1_18CordzUpdateTracker16MethodIdentifierE, 
                       __ZN4absl12lts_2021110213cord_internal9CordzInfo9TrackCordERNS1_10InlineDataERKS3_NS1_18CordzUpdateTracker16MethodIdentifierE, 
                       __ZN4absl12lts_2021110213cord_internal9CordzInfoC1EPNS1_7CordRepEPKS2_NS1_18CordzUpdateTracker16MethodIdentifierE, 
                       __ZN4absl12lts_2021110213cord_internal9CordzInfoC2EPNS1_7CordRepEPKS2_NS1_18CordzUpdateTracker16MethodIdentifierE, 
                       __ZN4absl12lts_2021110213cord_internal9CordzInfoD0Ev, __ZN4absl12lts_2021110213cord_internal9CordzInfoD1Ev, 
                       __ZN4absl12lts_2021110213cord_internal9CordzInfoD2Ev, __ZN4absl12lts_2021110213cord_internallsERNSt3__113basic_ostreamIcNS2_11char_traitsIcEEEERKNS1_11CordRepRingE, 
                       __ZN4absl12lts_2021110213hash_internal10CityHash32EPKcm, __ZN4absl12lts_2021110213hash_internal10CityHash64EPKcm, 
                       __ZN4absl12lts_2021110213hash_internal12LowLevelHashEPKvmyPKy, 
                       __ZN4absl12lts_2021110213hash_internal15MixingHashState16LowLevelHashImplEPKhm, 
                       __ZN4absl12lts_2021110213hash_internal15MixingHashState28CombineLargeContiguousImpl32EyPKhm, 
                       __ZN4absl12lts_2021110213hash_internal15MixingHashState28CombineLargeContiguousImpl64EyPKhm, 
                       __ZN4absl12lts_2021110213hash_internal15MixingHashState5kSeedE, 
                       __ZN4absl12lts_2021110213hash_internal18CityHash64WithSeedEPKcmy, 
                       __ZN4absl12lts_2021110213hash_internal19CityHash64WithSeedsEPKcmyy, 
                       __ZN4absl12lts_2021110213time_internal12IDivDurationEbNS0_8DurationES2_PS2_, 
                       __ZN4absl12lts_2021110213time_internal4cctz10TimeZoneIf4LoadERKNSt3__112basic_stringIcNS4_11char_traitsIcEENS4_9allocatorIcEEEE, 
                       __ZN4absl12lts_2021110213time_internal4cctz10TimeZoneIfD0Ev, 
                       __ZN4absl12lts_2021110213time_internal4cctz10TimeZoneIfD1Ev, 
                       __ZN4absl12lts_2021110213time_internal4cctz10TimeZoneIfD2Ev, 
                       __ZN4absl12lts_2021110213time_internal4cctz12TimeZoneInfo17ExtendTransitionsEv, 
                       __ZN4absl12lts_2021110213time_internal4cctz12TimeZoneInfo17GetTransitionTypeEibRKNSt3__112basic_stringIcNS4_11char_traitsIcEENS4_9allocatorIcEEEEPh, 
                       __ZN4absl12lts_2021110213time_internal4cctz12TimeZoneInfo17ResetToBuiltinUTCERKNSt3__16chrono8durationIxNS4_5ratioILl1ELl1EEEEE, 
                       __ZN4absl12lts_2021110213time_internal4cctz12TimeZoneInfo4LoadEPNS2_14ZoneInfoSourceE, 
                       __ZN4absl12lts_2021110213time_internal4cctz12TimeZoneInfo4LoadERKNSt3__112basic_stringIcNS4_11char_traitsIcEENS4_9allocatorIcEEEE, 
                       __ZN4absl12lts_2021110213time_internal4cctz12TimeZoneInfo6Header5BuildERK6tzhead, 
                       __ZN4absl12lts_2021110213time_internal4cctz12TimeZoneLibCC1ERKNSt3__112basic_stringIcNS4_11char_traitsIcEENS4_9allocatorIcEEEE, 
                       __ZN4absl12lts_2021110213time_internal4cctz12TimeZoneLibCC2ERKNSt3__112basic_stringIcNS4_11char_traitsIcEENS4_9allocatorIcEEEE, 
                       __ZN4absl12lts_2021110213time_internal4cctz13utc_time_zoneEv, 
                       __ZN4absl12lts_2021110213time_internal4cctz14ParsePosixSpecERKNSt3__112basic_stringIcNS3_11char_traitsIcEENS3_9allocatorIcEEEEPNS2_13PosixTimeZoneE, 
                       __ZN4absl12lts_2021110213time_internal4cctz14ZoneInfoSourceD0Ev, 
                       __ZN4absl12lts_2021110213time_internal4cctz14ZoneInfoSourceD1Ev, 
                       __ZN4absl12lts_2021110213time_internal4cctz14ZoneInfoSourceD2Ev, 
                       __ZN4absl12lts_2021110213time_internal4cctz14load_time_zoneERKNSt3__112basic_stringIcNS3_11char_traitsIcEENS3_9allocatorIcEEEEPNS2_9time_zoneE, 
                       __ZN4absl12lts_2021110213time_internal4cctz15fixed_time_zoneERKNSt3__16chrono8durationIxNS3_5ratioILl1ELl1EEEEE, 
                       __ZN4absl12lts_2021110213time_internal4cctz15local_time_zoneEv, 
                       __ZN4absl12lts_2021110213time_internal4cctz17FixedOffsetToAbbrERKNSt3__16chrono8durationIxNS3_5ratioILl1ELl1EEEEE, 
                       __ZN4absl12lts_2021110213time_internal4cctz17FixedOffsetToNameERKNSt3__16chrono8durationIxNS3_5ratioILl1ELl1EEEEE, 
                       __ZN4absl12lts_2021110213time_internal4cctz19FixedOffsetFromNameERKNSt3__112basic_stringIcNS3_11char_traitsIcEENS3_9allocatorIcEEEEPNS3_6chrono8durationIxNS3_5ratioILl1ELl1EEEEE, 
                       __ZN4absl12lts_2021110213time_internal4cctz6detail5parseERKNSt3__112basic_stringIcNS4_11char_traitsIcEENS4_9allocatorIcEEEESC_RKNS2_9time_zoneEPNS4_6chrono10time_pointINSG_12system_clockENSG_8durationIxNS4_5ratioILl1ELl1EEEEEEEPNSJ_IxNSK_ILl1ELl1000000000000000EEEEEPSA_, 
                       __ZN4absl12lts_2021110213time_internal4cctz6detail6formatERKNSt3__112basic_stringIcNS4_11char_traitsIcEENS4_9allocatorIcEEEERKNS4_6chrono10time_pointINSD_12system_clockENSD_8durationIxNS4_5ratioILl1ELl1EEEEEEERKNSG_IxNSH_ILl1ELl1000000000000000EEEEERKNS2_9time_zoneE, 
                       __ZN4absl12lts_2021110213time_internal4cctz6detaillsERNSt3__113basic_ostreamIcNS4_11char_traitsIcEEEENS3_7weekdayE, 
                       __ZN4absl12lts_2021110213time_internal4cctz6detaillsERNSt3__113basic_ostreamIcNS4_11char_traitsIcEEEERKNS3_10civil_timeINS3_10minute_tagEEE, 
                       __ZN4absl12lts_2021110213time_internal4cctz6detaillsERNSt3__113basic_ostreamIcNS4_11char_traitsIcEEEERKNS3_10civil_timeINS3_10second_tagEEE, 
                       __ZN4absl12lts_2021110213time_internal4cctz6detaillsERNSt3__113basic_ostreamIcNS4_11char_traitsIcEEEERKNS3_10civil_timeINS3_7day_tagEEE, 
                       __ZN4absl12lts_2021110213time_internal4cctz6detaillsERNSt3__113basic_ostreamIcNS4_11char_traitsIcEEEERKNS3_10civil_timeINS3_8hour_tagEEE, 
                       __ZN4absl12lts_2021110213time_internal4cctz6detaillsERNSt3__113basic_ostreamIcNS4_11char_traitsIcEEEERKNS3_10civil_timeINS3_8year_tagEEE, 
                       __ZN4absl12lts_2021110213time_internal4cctz6detaillsERNSt3__113basic_ostreamIcNS4_11char_traitsIcEEEERKNS3_10civil_timeINS3_9month_tagEEE, 
                       __ZN4absl12lts_2021110213time_internal4cctz9time_zone4Impl12LoadTimeZoneERKNSt3__112basic_stringIcNS5_11char_traitsIcEENS5_9allocatorIcEEEEPS3_, 
                       __ZN4absl12lts_2021110213time_internal4cctz9time_zone4Impl24ClearTimeZoneMapTestOnlyEv, 
                       __ZN4absl12lts_2021110213time_internal4cctz9time_zone4Impl3UTCEv, 
                       __ZN4absl12lts_2021110213time_internal4cctz9time_zone4Impl7UTCImplEv, 
                       __ZN4absl12lts_2021110213time_internal4cctz9time_zone4ImplC1ERKNSt3__112basic_stringIcNS5_11char_traitsIcEENS5_9allocatorIcEEEE, 
                       __ZN4absl12lts_2021110213time_internal4cctz9time_zone4ImplC2ERKNSt3__112basic_stringIcNS5_11char_traitsIcEENS5_9allocatorIcEEEE, 
                       __ZN4absl12lts_2021110213time_internallsERNSt3__113basic_ostreamIcNS2_11char_traitsIcEEEENS1_4cctz6detail10civil_timeINS1_10minute_tagEEE, 
                       __ZN4absl12lts_2021110213time_internallsERNSt3__113basic_ostreamIcNS2_11char_traitsIcEEEENS1_4cctz6detail10civil_timeINS1_10second_tagEEE, 
                       __ZN4absl12lts_2021110213time_internallsERNSt3__113basic_ostreamIcNS2_11char_traitsIcEEEENS1_4cctz6detail10civil_timeINS1_7day_tagEEE, 
                       __ZN4absl12lts_2021110213time_internallsERNSt3__113basic_ostreamIcNS2_11char_traitsIcEEEENS1_4cctz6detail10civil_timeINS1_8hour_tagEEE, 
                       __ZN4absl12lts_2021110213time_internallsERNSt3__113basic_ostreamIcNS2_11char_traitsIcEEEENS1_4cctz6detail10civil_timeINS1_8year_tagEEE, 
                       __ZN4absl12lts_2021110213time_internallsERNSt3__113basic_ostreamIcNS2_11char_traitsIcEEEENS1_4cctz6detail10civil_timeINS1_9month_tagEEE, 
                       __ZN4absl12lts_2021110214Base64UnescapeENS0_11string_viewEPNSt3__112basic_stringIcNS2_11char_traitsIcEENS2_9allocatorIcEEEE, 
                       __ZN4absl12lts_2021110214CancelledErrorENS0_11string_viewE, 
                       __ZN4absl12lts_2021110214FormatDurationENS0_8DurationE, __ZN4absl12lts_2021110214GetStackFramesEPPvPiii, 
                       __ZN4absl12lts_2021110214ParseCivilTimeENS0_11string_viewEPNS0_13time_internal4cctz6detail10civil_timeINS2_10minute_tagEEE, 
                       __ZN4absl12lts_2021110214ParseCivilTimeENS0_11string_viewEPNS0_13time_internal4cctz6detail10civil_timeINS2_10second_tagEEE, 
                       __ZN4absl12lts_2021110214ParseCivilTimeENS0_11string_viewEPNS0_13time_internal4cctz6detail10civil_timeINS2_7day_tagEEE, 
                       __ZN4absl12lts_2021110214ParseCivilTimeENS0_11string_viewEPNS0_13time_internal4cctz6detail10civil_timeINS2_8hour_tagEEE, 
                       __ZN4absl12lts_2021110214ParseCivilTimeENS0_11string_viewEPNS0_13time_internal4cctz6detail10civil_timeINS2_8year_tagEEE, 
                       __ZN4absl12lts_2021110214ParseCivilTimeENS0_11string_viewEPNS0_13time_internal4cctz6detail10civil_timeINS2_9month_tagEEE, 
                       __ZN4absl12lts_2021110214ToInt64MinutesENS0_8DurationE, __ZN4absl12lts_2021110214ToInt64SecondsENS0_8DurationE, 
                       __ZN4absl12lts_2021110214ascii_internal13kPropertyBitsE, __ZN4absl12lts_2021110214ascii_internal8kToLowerE, 
                       __ZN4absl12lts_2021110214ascii_internal8kToUpperE, __ZN4absl12lts_2021110215AbslUnparseFlagENS0_4TimeE, 
                       __ZN4absl12lts_2021110215AbslUnparseFlagENS0_8DurationE, __ZN4absl12lts_2021110215AsciiStrToLowerEPNSt3__112basic_stringIcNS1_11char_traitsIcEENS1_9allocatorIcEEEE, 
                       __ZN4absl12lts_2021110215AsciiStrToUpperEPNSt3__112basic_stringIcNS1_11char_traitsIcEENS1_9allocatorIcEEEE, 
                       __ZN4absl12lts_2021110215BlockingCounter14DecrementCountEv, 
                       __ZN4absl12lts_2021110215BlockingCounter4WaitEv, __ZN4absl12lts_2021110215BlockingCounterC1Ei, 
                       __ZN4absl12lts_2021110215BlockingCounterC2Ei, __ZN4absl12lts_2021110215ConvertDateTimeExiiiiiNS0_8TimeZoneE, 
                       __ZN4absl12lts_2021110215FormatCivilTimeENS0_13time_internal4cctz6detail10civil_timeINS1_10minute_tagEEE, 
                       __ZN4absl12lts_2021110215FormatCivilTimeENS0_13time_internal4cctz6detail10civil_timeINS1_10second_tagEEE, 
                       __ZN4absl12lts_2021110215FormatCivilTimeENS0_13time_internal4cctz6detail10civil_timeINS1_7day_tagEEE, 
                       __ZN4absl12lts_2021110215FormatCivilTimeENS0_13time_internal4cctz6detail10civil_timeINS1_8hour_tagEEE, 
                       __ZN4absl12lts_2021110215FormatCivilTimeENS0_13time_internal4cctz6detail10civil_timeINS1_8year_tagEEE, 
                       __ZN4absl12lts_2021110215FormatCivilTimeENS0_13time_internal4cctz6detail10civil_timeINS1_9month_tagEEE, 
                       __ZN4absl12lts_2021110215IsAlreadyExistsERKNS0_6StatusE, __ZN4absl12lts_2021110215IsUnimplementedERKNS0_6StatusE, 
                       __ZN4absl12lts_2021110215OutOfRangeErrorENS0_11string_viewE, 
                       __ZN4absl12lts_2021110215RFC1123_no_wdayE, __ZN4absl12lts_2021110215TimeFromTimevalE7timeval, 
                       __ZN4absl12lts_2021110215ToChronoMinutesENS0_8DurationE, __ZN4absl12lts_2021110215ToChronoSecondsENS0_8DurationE, 
                       __ZN4absl12lts_2021110215ToDoubleMinutesENS0_8DurationE, __ZN4absl12lts_2021110215ToDoubleSecondsENS0_8DurationE, 
                       __ZN4absl12lts_2021110215Utf8SafeCEscapeENS0_11string_viewE, 
                       __ZN4absl12lts_2021110215random_internal10RandenSlow6AbsorbEPKvPv, 
                       __ZN4absl12lts_2021110215random_internal10RandenSlow7GetKeysEv, 
                       __ZN4absl12lts_2021110215random_internal10RandenSlow8GenerateEPKvPv, 
                       __ZN4absl12lts_2021110215random_internal11RandenHwAes6AbsorbEPKvPv, 
                       __ZN4absl12lts_2021110215random_internal11RandenHwAes7GetKeysEv, 
                       __ZN4absl12lts_2021110215random_internal11RandenHwAes8GenerateEPKvPv, 
                       __ZN4absl12lts_2021110215random_internal15GetSaltMaterialEv, 
                       __ZN4absl12lts_2021110215random_internal16kRandenRoundKeysE, 
                       __ZN4absl12lts_2021110215random_internal18kRandenRoundKeysBEE, 
                       __ZN4absl12lts_2021110215random_internal19MixIntoSeedMaterialENS0_4SpanIKjEENS2_IjEE, 
                       __ZN4absl12lts_2021110215random_internal21ThrowSeedGenExceptionEv, 
                       __ZN4absl12lts_2021110215random_internal22CPUSupportsRandenHwAesEv, 
                       __ZN4absl12lts_2021110215random_internal24InitDiscreteDistributionEPNSt3__16vectorIdNS2_9allocatorIdEEEE, 
                       __ZN4absl12lts_2021110215random_internal26gaussian_distribution_base3zg_E, 
                       __ZN4absl12lts_2021110215random_internal28HasRandenHwAesImplementationEv, 
                       __ZN4absl12lts_2021110215random_internal29ReadSeedMaterialFromOSEntropyENS0_4SpanIjEE, 
                       __ZN4absl12lts_2021110215random_internal6RandenC1Ev, __ZN4absl12lts_2021110215random_internal6RandenC2Ev, 
                       __ZN4absl12lts_2021110215status_internal14MapToLocalCodeEi, 
                       __ZN4absl12lts_2021110215status_internal23GetStatusPayloadPrinterEv, 
                       __ZN4absl12lts_2021110215status_internal23SetStatusPayloadPrinterEPFNS0_8optionalINSt3__112basic_stringIcNS3_11char_traitsIcEENS3_9allocatorIcEEEEEENS0_11string_viewERKNS0_4CordEE, 
                       __ZN4absl12lts_2021110216BytesToHexStringENS0_11string_viewE, 
                       __ZN4absl12lts_2021110216CopyCordToStringERKNS0_4CordEPNSt3__112basic_stringIcNS4_11char_traitsIcEENS4_9allocatorIcEEEE, 
                       __ZN4absl12lts_2021110216EqualsIgnoreCaseENS0_11string_viewES1_, 
                       __ZN4absl12lts_2021110216HexStringToBytesENS0_11string_viewE, 
                       __ZN4absl12lts_2021110216SeedGenExceptionD0Ev, __ZN4absl12lts_2021110216SeedGenExceptionD1Ev, 
                       __ZN4absl12lts_2021110216SeedGenExceptionD2Ev, __ZN4absl12lts_2021110216SetStackUnwinderEPFiPPvPiiiPKvS3_E, 
                       __ZN4absl12lts_2021110216TimeFromTimespecE8timespec, __ZN4absl12lts_2021110216UnavailableErrorENS0_11string_viewE, 
                       __ZN4absl12lts_2021110216numbers_internal15FastIntToBufferEiPc, 
                       __ZN4absl12lts_2021110216numbers_internal15FastIntToBufferEjPc, 
                       __ZN4absl12lts_2021110216numbers_internal15FastIntToBufferExPc, 
                       __ZN4absl12lts_2021110216numbers_internal15FastIntToBufferEyPc, 
                       __ZN4absl12lts_2021110216numbers_internal16two_ASCII_digitsE, 
                       __ZN4absl12lts_2021110216numbers_internal17SixDigitsToBufferEdPc, 
                       __ZN4absl12lts_2021110216numbers_internal17safe_strto32_baseENS0_11string_viewEPii, 
                       __ZN4absl12lts_2021110216numbers_internal17safe_strto64_baseENS0_11string_viewEPxi, 
                       __ZN4absl12lts_2021110216numbers_internal18safe_strto128_baseENS0_11string_viewEPNS0_6int128Ei, 
                       __ZN4absl12lts_2021110216numbers_internal18safe_strtou32_baseENS0_11string_viewEPji, 
                       __ZN4absl12lts_2021110216numbers_internal18safe_strtou64_baseENS0_11string_viewEPyi, 
                       __ZN4absl12lts_2021110216numbers_internal19safe_strtou128_baseENS0_11string_viewEPNS0_7uint128Ei, 
                       __ZN4absl12lts_2021110216numbers_internal8kHexCharE, __ZN4absl12lts_2021110216numbers_internal9kHexTableE, 
                       __ZN4absl12lts_2021110216strings_internal10kFiveToNthE, __ZN4absl12lts_2021110216strings_internal10memcasecmpEPKcS3_m, 
                       __ZN4absl12lts_2021110216strings_internal12AppendPiecesEPNSt3__112basic_stringIcNS2_11char_traitsIcEENS2_9allocatorIcEEEESt16initializer_listINS0_11string_viewEE, 
                       __ZN4absl12lts_2021110216strings_internal12kBase64CharsE, 
                       __ZN4absl12lts_2021110216strings_internal13OStringStream6xsputnEPKcl, 
                       __ZN4absl12lts_2021110216strings_internal13OStringStream8overflowEi, 
                       __ZN4absl12lts_2021110216strings_internal14CordTestAccess11LengthToTagEm, 
                       __ZN4absl12lts_2021110216strings_internal14CordTestAccess12FlatOverheadEv, 
                       __ZN4absl12lts_2021110216strings_internal14CordTestAccess13MaxFlatLengthEv, 
                       __ZN4absl12lts_2021110216strings_internal14CordTestAccess15FlatTagToLengthEh, 
                       __ZN4absl12lts_2021110216strings_internal14CordTestAccess19SizeofCordRepConcatEv, 
                       __ZN4absl12lts_2021110216strings_internal14CordTestAccess21SizeofCordRepExternalEv, 
                       __ZN4absl12lts_2021110216strings_internal14CordTestAccess22SizeofCordRepSubstringEv, 
                       __ZN4absl12lts_2021110216strings_internal14EncodeUTF8CharEPcDi, 
                       __ZN4absl12lts_2021110216strings_internal18ApplySubstitutionsENS0_11string_viewEPNSt3__16vectorINS1_18ViableSubstitutionENS3_9allocatorIS5_EEEEPNS3_12basic_stringIcNS3_11char_traitsIcEENS6_IcEEEE, 
                       __ZN4absl12lts_2021110216strings_internal20Base64EscapeInternalEPKhmPcmPKcb, 
                       __ZN4absl12lts_2021110216strings_internal33CalculateBase64EscapedLenInternalEmb, 
                       __ZN4absl12lts_2021110216strings_internal6memdupEPKcm, __ZN4absl12lts_2021110216strings_internal6memspnEPKcmS3_, 
                       __ZN4absl12lts_2021110216strings_internal7memcspnEPKcmS3_, 
                       __ZN4absl12lts_2021110216strings_internal7mempbrkEPKcmS3_, 
                       __ZN4absl12lts_2021110216strings_internal7memrchrEPKcim, __ZN4absl12lts_2021110216strings_internal8memmatchEPKcmS3_m, 
                       __ZN4absl12lts_2021110216strings_internal9CatPiecesESt16initializer_listINS0_11string_viewEE, 
                       __ZN4absl12lts_2021110216strings_internal9kTenToNthE, __ZN4absl12lts_2021110216variant_internal21ThrowBadVariantAccessEv, 
                       __ZN4absl12lts_2021110216variant_internal7RethrowEv, __ZN4absl12lts_2021110217BadStatusOrAccessC1ENS0_6StatusE, 
                       __ZN4absl12lts_2021110217BadStatusOrAccessC1EOS1_, __ZN4absl12lts_2021110217BadStatusOrAccessC1ERKS1_, 
                       __ZN4absl12lts_2021110217BadStatusOrAccessC2ENS0_6StatusE, 
                       __ZN4absl12lts_2021110217BadStatusOrAccessC2EOS1_, __ZN4absl12lts_2021110217BadStatusOrAccessC2ERKS1_, 
                       __ZN4absl12lts_2021110217BadStatusOrAccessaSEOS1_, __ZN4absl12lts_2021110217BadStatusOrAccessaSERKS1_, 
                       __ZN4absl12lts_2021110217IsInvalidArgumentERKNS0_6StatusE, 
                       __ZN4absl12lts_2021110217IsUnauthenticatedERKNS0_6StatusE, 
                       __ZN4absl12lts_2021110217internal_statusor22ThrowBadStatusOrAccessENS0_6StatusE, 
                       __ZN4absl12lts_2021110217internal_statusor6Helper26HandleInvalidStatusCtorArgEPNS0_6StatusE, 
                       __ZN4absl12lts_2021110217internal_statusor6Helper5CrashERKNS0_6StatusE, 
                       __ZN4absl12lts_2021110217optional_internal25throw_bad_optional_accessEv, 
                       __ZN4absl12lts_2021110218AlreadyExistsErrorENS0_11string_viewE, 
                       __ZN4absl12lts_2021110218EndsWithIgnoreCaseENS0_11string_viewES1_, 
                       __ZN4absl12lts_2021110218IsDeadlineExceededERKNS0_6StatusE, 
                       __ZN4absl12lts_2021110218IsPermissionDeniedERKNS0_6StatusE, 
                       __ZN4absl12lts_2021110218RegisterSymbolizerEPFbPKvPciE, __ZN4absl12lts_2021110218StatusCodeToStringENS0_10StatusCodeE, 
                       __ZN4absl12lts_2021110218ToInt64NanosecondsENS0_8DurationE, 
                       __ZN4absl12lts_2021110218UnimplementedErrorENS0_11string_viewE, 
                       __ZN4absl12lts_2021110218Utf8SafeCHexEscapeENS0_11string_viewE, 
                       __ZN4absl12lts_2021110218bad_variant_accessD0Ev, __ZN4absl12lts_2021110218bad_variant_accessD1Ev, 
                       __ZN4absl12lts_2021110218bad_variant_accessD2Ev, __ZN4absl12lts_2021110218container_internal10SampleSlowEPxm, 
                       __ZN4absl12lts_2021110218container_internal11kEmptyGroupE, 
                       __ZN4absl12lts_2021110218container_internal12UnsampleSlowEPNS1_14HashtablezInfoE, 
                       __ZN4absl12lts_2021110218container_internal14HashtablezInfo14kMaxStackDepthE, 
                       __ZN4absl12lts_2021110218container_internal14HashtablezInfo18PrepareForSamplingEv, 
                       __ZN4absl12lts_2021110218container_internal14HashtablezInfoC1Ev, 
                       __ZN4absl12lts_2021110218container_internal14HashtablezInfoC2Ev, 
                       __ZN4absl12lts_2021110218container_internal14HashtablezInfoD1Ev, 
                       __ZN4absl12lts_2021110218container_internal14HashtablezInfoD2Ev, 
                       __ZN4absl12lts_2021110218container_internal16RecordInsertSlowEPNS1_14HashtablezInfoEmm, 
                       __ZN4absl12lts_2021110218container_internal17GroupPortableImpl6kWidthE, 
                       __ZN4absl12lts_2021110218container_internal20SetHashtablezEnabledEb, 
                       __ZN4absl12lts_2021110218container_internal21ShouldInsertBackwardsEmPKNS1_6ctrl_tE, 
                       __ZN4absl12lts_2021110218container_internal23GlobalHashtablezSamplerEv, 
                       __ZN4absl12lts_2021110218container_internal23SetHashtablezMaxSamplesEi, 
                       __ZN4absl12lts_2021110218container_internal28SetHashtablezSampleParameterEi, 
                       __ZN4absl12lts_2021110218container_internal37ConvertDeletedToEmptyAndFullToDeletedEPNS1_6ctrl_tEm, 
                       __ZN4absl12lts_2021110218debugging_internal17AddressIsReadableEPKv, 
                       __ZN4absl12lts_2021110218debugging_internal22StackTraceWorksForTestEv, 
                       __ZN4absl12lts_2021110218debugging_internal8DemangleEPKcPci, 
                       __ZN4absl12lts_2021110218profiling_internal17ExponentialBiased10InitializeEv, 
                       __ZN4absl12lts_2021110218profiling_internal17ExponentialBiased12GetSkipCountEx, 
                       __ZN4absl12lts_2021110218profiling_internal17ExponentialBiased9GetStrideEx, 
                       __ZN4absl12lts_2021110219DurationFromTimevalE7timeval, __ZN4absl12lts_2021110219GetCurrentTimeNanosEv, 
                       __ZN4absl12lts_2021110219IsResourceExhaustedERKNS0_6StatusE, 
                       __ZN4absl12lts_2021110219RegisterMutexTracerEPFvPKcPKvxE, 
                       __ZN4absl12lts_2021110219ReleasableMutexLock7ReleaseEv, __ZN4absl12lts_2021110219ToChronoNanosecondsENS0_8DurationE, 
                       __ZN4absl12lts_2021110219ToDoubleNanosecondsENS0_8DurationE, 
                       __ZN4absl12lts_2021110219ToInt64MicrosecondsENS0_8DurationE, 
                       __ZN4absl12lts_2021110219ToInt64MillisecondsENS0_8DurationE, 
                       __ZN4absl12lts_2021110219WebSafeBase64EscapeENS0_11string_viewE, 
                       __ZN4absl12lts_2021110219WebSafeBase64EscapeENS0_11string_viewEPNSt3__112basic_stringIcNS2_11char_traitsIcEENS2_9allocatorIcEEEE, 
                       __ZN4absl12lts_2021110219bad_optional_accessD0Ev, __ZN4absl12lts_2021110219bad_optional_accessD1Ev, 
                       __ZN4absl12lts_2021110219bad_optional_accessD2Ev, __ZN4absl12lts_2021110219str_format_internal10AppendPackEPNSt3__112basic_stringIcNS2_11char_traitsIcEENS2_9allocatorIcEEEENS1_21UntypedFormatSpecImplENS0_4SpanIKNS1_13FormatArgImplEEE, 
                       __ZN4absl12lts_2021110219str_format_internal10FormatPackENS1_21UntypedFormatSpecImplENS0_4SpanIKNS1_13FormatArgImplEEE, 
                       __ZN4absl12lts_2021110219str_format_internal11FILERawSink5WriteENS0_11string_viewE, 
                       __ZN4absl12lts_2021110219str_format_internal12BindWithPackEPKNS1_17UnboundConversionENS0_4SpanIKNS1_13FormatArgImplEEEPNS1_15BoundConversionE, 
                       __ZN4absl12lts_2021110219str_format_internal13BufferRawSink5WriteENS0_11string_viewE, 
                       __ZN4absl12lts_2021110219str_format_internal13FlagsToStringENS1_5FlagsE, 
                       __ZN4absl12lts_2021110219str_format_internal13FormatUntypedENS1_17FormatRawSinkImplENS1_21UntypedFormatSpecImplENS0_4SpanIKNS1_13FormatArgImplEEE, 
                       __ZN4absl12lts_2021110219str_format_internal14FormatSinkImpl15PutPaddedStringENS0_11string_viewEiib, 
                       __ZN4absl12lts_2021110219str_format_internal16ConvertFloatImplEdRKNS1_24FormatConversionSpecImplEPNS1_14FormatSinkImplE, 
                       __ZN4absl12lts_2021110219str_format_internal16ConvertFloatImplEeRKNS1_24FormatConversionSpecImplEPNS1_14FormatSinkImplE, 
                       __ZN4absl12lts_2021110219str_format_internal16ConvertFloatImplEfRKNS1_24FormatConversionSpecImplEPNS1_14FormatSinkImplE, 
                       __ZN4absl12lts_2021110219str_format_internal16ParsedFormatBaseC1ENS0_11string_viewEbSt16initializer_listINS0_23FormatConversionCharSetEE, 
                       __ZN4absl12lts_2021110219str_format_internal16ParsedFormatBaseC2ENS0_11string_viewEbSt16initializer_listINS0_23FormatConversionCharSetEE, 
                       __ZN4absl12lts_2021110219str_format_internal17FormatConvertImplENS0_11string_viewENS1_24FormatConversionSpecImplEPNS1_14FormatSinkImplE, 
                       __ZN4absl12lts_2021110219str_format_internal17FormatConvertImplENS0_6int128ENS1_24FormatConversionSpecImplEPNS1_14FormatSinkImplE, 
                       __ZN4absl12lts_2021110219str_format_internal17FormatConvertImplENS0_7uint128ENS1_24FormatConversionSpecImplEPNS1_14FormatSinkImplE, 
                       __ZN4absl12lts_2021110219str_format_internal17FormatConvertImplENS1_7VoidPtrENS1_24FormatConversionSpecImplEPNS1_14FormatSinkImplE, 
                       __ZN4absl12lts_2021110219str_format_internal17FormatConvertImplEPKcNS1_24FormatConversionSpecImplEPNS1_14FormatSinkImplE, 
                       __ZN4absl12lts_2021110219str_format_internal17FormatConvertImplERKNSt3__112basic_stringIcNS2_11char_traitsIcEENS2_9allocatorIcEEEENS1_24FormatConversionSpecImplEPNS1_14FormatSinkImplE, 
                       __ZN4absl12lts_2021110219str_format_internal17FormatConvertImplEaNS1_24FormatConversionSpecImplEPNS1_14FormatSinkImplE, 
                       __ZN4absl12lts_2021110219str_format_internal17FormatConvertImplEcNS1_24FormatConversionSpecImplEPNS1_14FormatSinkImplE, 
                       __ZN4absl12lts_2021110219str_format_internal17FormatConvertImplEdNS1_24FormatConversionSpecImplEPNS1_14FormatSinkImplE, 
                       __ZN4absl12lts_2021110219str_format_internal17FormatConvertImplEeNS1_24FormatConversionSpecImplEPNS1_14FormatSinkImplE, 
                       __ZN4absl12lts_2021110219str_format_internal17FormatConvertImplEfNS1_24FormatConversionSpecImplEPNS1_14FormatSinkImplE, 
                       __ZN4absl12lts_2021110219str_format_internal17FormatConvertImplEhNS1_24FormatConversionSpecImplEPNS1_14FormatSinkImplE, 
                       __ZN4absl12lts_2021110219str_format_internal17FormatConvertImplEiNS1_24FormatConversionSpecImplEPNS1_14FormatSinkImplE, 
                       __ZN4absl12lts_2021110219str_format_internal17FormatConvertImplEjNS1_24FormatConversionSpecImplEPNS1_14FormatSinkImplE, 
                       __ZN4absl12lts_2021110219str_format_internal17FormatConvertImplElNS1_24FormatConversionSpecImplEPNS1_14FormatSinkImplE, 
                       __ZN4absl12lts_2021110219str_format_internal17FormatConvertImplEmNS1_24FormatConversionSpecImplEPNS1_14FormatSinkImplE, 
                       __ZN4absl12lts_2021110219str_format_internal17FormatConvertImplEsNS1_24FormatConversionSpecImplEPNS1_14FormatSinkImplE, 
                       __ZN4absl12lts_2021110219str_format_internal17FormatConvertImplEtNS1_24FormatConversionSpecImplEPNS1_14FormatSinkImplE, 
                       __ZN4absl12lts_2021110219str_format_internal17FormatConvertImplExNS1_24FormatConversionSpecImplEPNS1_14FormatSinkImplE, 
                       __ZN4absl12lts_2021110219str_format_internal17FormatConvertImplEyNS1_24FormatConversionSpecImplEPNS1_14FormatSinkImplE, 
                       __ZN4absl12lts_2021110219str_format_internal17LengthModToStringENS1_9LengthModE, 
                       __ZN4absl12lts_2021110219str_format_internal24ConsumeUnboundConversionEPKcS3_PNS1_17UnboundConversionEPi, 
                       __ZN4absl12lts_2021110219str_format_internal28FormatConversionCharInternal1AE, 
                       __ZN4absl12lts_2021110219str_format_internal28FormatConversionCharInternal1EE, 
                       __ZN4absl12lts_2021110219str_format_internal28FormatConversionCharInternal1FE, 
                       __ZN4absl12lts_2021110219str_format_internal28FormatConversionCharInternal1GE, 
                       __ZN4absl12lts_2021110219str_format_internal28FormatConversionCharInternal1XE, 
                       __ZN4absl12lts_2021110219str_format_internal28FormatConversionCharInternal1aE, 
                       __ZN4absl12lts_2021110219str_format_internal28FormatConversionCharInternal1cE, 
                       __ZN4absl12lts_2021110219str_format_internal28FormatConversionCharInternal1dE, 
                       __ZN4absl12lts_2021110219str_format_internal28FormatConversionCharInternal1eE, 
                       __ZN4absl12lts_2021110219str_format_internal28FormatConversionCharInternal1fE, 
                       __ZN4absl12lts_2021110219str_format_internal28FormatConversionCharInternal1gE, 
                       __ZN4absl12lts_2021110219str_format_internal28FormatConversionCharInternal1iE, 
                       __ZN4absl12lts_2021110219str_format_internal28FormatConversionCharInternal1nE, 
                       __ZN4absl12lts_2021110219str_format_internal28FormatConversionCharInternal1oE, 
                       __ZN4absl12lts_2021110219str_format_internal28FormatConversionCharInternal1pE, 
                       __ZN4absl12lts_2021110219str_format_internal28FormatConversionCharInternal1sE, 
                       __ZN4absl12lts_2021110219str_format_internal28FormatConversionCharInternal1uE, 
                       __ZN4absl12lts_2021110219str_format_internal28FormatConversionCharInternal1xE, 
                       __ZN4absl12lts_2021110219str_format_internal28FormatConversionCharInternal5kNoneE, 
                       __ZN4absl12lts_2021110219str_format_internal31FormatConversionCharSetInternal1AE, 
                       __ZN4absl12lts_2021110219str_format_internal31FormatConversionCharSetInternal1EE, 
                       __ZN4absl12lts_2021110219str_format_internal31FormatConversionCharSetInternal1FE, 
                       __ZN4absl12lts_2021110219str_format_internal31FormatConversionCharSetInternal1GE, 
                       __ZN4absl12lts_2021110219str_format_internal31FormatConversionCharSetInternal1XE, 
                       __ZN4absl12lts_2021110219str_format_internal31FormatConversionCharSetInternal1aE, 
                       __ZN4absl12lts_2021110219str_format_internal31FormatConversionCharSetInternal1cE, 
                       __ZN4absl12lts_2021110219str_format_internal31FormatConversionCharSetInternal1dE, 
                       __ZN4absl12lts_2021110219str_format_internal31FormatConversionCharSetInternal1eE, 
                       __ZN4absl12lts_2021110219str_format_internal31FormatConversionCharSetInternal1fE, 
                       __ZN4absl12lts_2021110219str_format_internal31FormatConversionCharSetInternal1gE, 
                       __ZN4absl12lts_2021110219str_format_internal31FormatConversionCharSetInternal1iE, 
                       __ZN4absl12lts_2021110219str_format_internal31FormatConversionCharSetInternal1nE, 
                       __ZN4absl12lts_2021110219str_format_internal31FormatConversionCharSetInternal1oE, 
                       __ZN4absl12lts_2021110219str_format_internal31FormatConversionCharSetInternal1pE, 
                       __ZN4absl12lts_2021110219str_format_internal31FormatConversionCharSetInternal1sE, 
                       __ZN4absl12lts_2021110219str_format_internal31FormatConversionCharSetInternal1uE, 
                       __ZN4absl12lts_2021110219str_format_internal31FormatConversionCharSetInternal1xE, 
                       __ZN4absl12lts_2021110219str_format_internal31FormatConversionCharSetInternal5kStarE, 
                       __ZN4absl12lts_2021110219str_format_internal31FormatConversionCharSetInternal8kNumericE, 
                       __ZN4absl12lts_2021110219str_format_internal31FormatConversionCharSetInternal8kPointerE, 
                       __ZN4absl12lts_2021110219str_format_internal31FormatConversionCharSetInternal9kFloatingE, 
                       __ZN4absl12lts_2021110219str_format_internal31FormatConversionCharSetInternal9kIntegralE, 
                       __ZN4absl12lts_2021110219str_format_internal5kTagsE, __ZN4absl12lts_2021110219str_format_internal7FprintFEP7__sFILENS1_21UntypedFormatSpecImplENS0_4SpanIKNS1_13FormatArgImplEEE, 
                       __ZN4absl12lts_2021110219str_format_internal8SnprintFEPcmNS1_21UntypedFormatSpecImplENS0_4SpanIKNS1_13FormatArgImplEEE, 
                       __ZN4absl12lts_2021110219str_format_internal9SummarizeENS1_21UntypedFormatSpecImplENS0_4SpanIKNS1_13FormatArgImplEEE, 
                       __ZN4absl12lts_2021110219substitute_internal24SubstituteAndAppendArrayEPNSt3__112basic_stringIcNS2_11char_traitsIcEENS2_9allocatorIcEEEENS0_11string_viewEPKSA_m, 
                       __ZN4absl12lts_2021110219substitute_internal3ArgC1ENS0_3DecE, 
                       __ZN4absl12lts_2021110219substitute_internal3ArgC1ENS0_3HexE, 
                       __ZN4absl12lts_2021110219substitute_internal3ArgC1EPKv, __ZN4absl12lts_2021110219substitute_internal3ArgC2ENS0_3DecE, 
                       __ZN4absl12lts_2021110219substitute_internal3ArgC2ENS0_3HexE, 
                       __ZN4absl12lts_2021110219substitute_internal3ArgC2EPKv, __ZN4absl12lts_2021110220DefaultStackUnwinderEPPvPiiiPKvS3_, 
                       __ZN4absl12lts_2021110220DurationFromTimespecE8timespec, __ZN4absl12lts_2021110220InitializeSymbolizerEPKc, 
                       __ZN4absl12lts_2021110220InvalidArgumentErrorENS0_11string_viewE, 
                       __ZN4absl12lts_2021110220IsFailedPreconditionERKNS0_6StatusE, 
                       __ZN4absl12lts_2021110220StartsWithIgnoreCaseENS0_11string_viewES1_, 
                       __ZN4absl12lts_2021110220ToChronoMicrosecondsENS0_8DurationE, 
                       __ZN4absl12lts_2021110220ToChronoMillisecondsENS0_8DurationE, 
                       __ZN4absl12lts_2021110220ToDoubleMicrosecondsENS0_8DurationE, 
                       __ZN4absl12lts_2021110220ToDoubleMillisecondsENS0_8DurationE, 
                       __ZN4absl12lts_2021110220UnauthenticatedErrorENS0_11string_viewE, 
                       __ZN4absl12lts_2021110220raw_logging_internal17RegisterAbortHookEPFvPKciS3_S3_S3_E, 
                       __ZN4absl12lts_2021110220raw_logging_internal17SafeWriteToStderrEPKcm, 
                       __ZN4absl12lts_2021110220raw_logging_internal21RegisterLogPrefixHookEPFbNS0_11LogSeverityEPKciPPcPiE, 
                       __ZN4absl12lts_2021110220raw_logging_internal21internal_log_functionE, 
                       __ZN4absl12lts_2021110220raw_logging_internal24RawLoggingFullySupportedEv, 
                       __ZN4absl12lts_2021110220raw_logging_internal27RegisterInternalLogFunctionEPFvNS0_11LogSeverityEPKciRKNSt3__112basic_stringIcNS5_11char_traitsIcEENS5_9allocatorIcEEEEE, 
                       __ZN4absl12lts_2021110220raw_logging_internal6RawLogENS0_11LogSeverityEPKciS4_z, 
                       __ZN4absl12lts_2021110221DeadlineExceededErrorENS0_11string_viewE, 
                       __ZN4absl12lts_2021110221ParseLenientCivilTimeENS0_11string_viewEPNS0_13time_internal4cctz6detail10civil_timeINS2_10minute_tagEEE, 
                       __ZN4absl12lts_2021110221ParseLenientCivilTimeENS0_11string_viewEPNS0_13time_internal4cctz6detail10civil_timeINS2_10second_tagEEE, 
                       __ZN4absl12lts_2021110221ParseLenientCivilTimeENS0_11string_viewEPNS0_13time_internal4cctz6detail10civil_timeINS2_7day_tagEEE, 
                       __ZN4absl12lts_2021110221ParseLenientCivilTimeENS0_11string_viewEPNS0_13time_internal4cctz6detail10civil_timeINS2_8hour_tagEEE, 
                       __ZN4absl12lts_2021110221ParseLenientCivilTimeENS0_11string_viewEPNS0_13time_internal4cctz6detail10civil_timeINS2_8year_tagEEE, 
                       __ZN4absl12lts_2021110221ParseLenientCivilTimeENS0_11string_viewEPNS0_13time_internal4cctz6detail10civil_timeINS2_9month_tagEEE, 
                       __ZN4absl12lts_2021110221PermissionDeniedErrorENS0_11string_viewE, 
                       __ZN4absl12lts_2021110221RegisterCondVarTracerEPFvPKcPKvE, 
                       __ZN4absl12lts_2021110221RegisterMutexProfilerEPFvxE, __ZN4absl12lts_2021110221WebSafeBase64UnescapeENS0_11string_viewEPNSt3__112basic_stringIcNS2_11char_traitsIcEENS2_9allocatorIcEEEE, 
                       __ZN4absl12lts_2021110222ResourceExhaustedErrorENS0_11string_viewE, 
                       __ZN4absl12lts_2021110223FailedPreconditionErrorENS0_11string_viewE, 
                       __ZN4absl12lts_2021110224GetStackTraceWithContextEPPviiPKvPi, 
                       __ZN4absl12lts_2021110224synchronization_internal10MutexDelayEii, 
                       __ZN4absl12lts_2021110224synchronization_internal11GraphCycles10InsertEdgeENS1_7GraphIdES3_, 
                       __ZN4absl12lts_2021110224synchronization_internal11GraphCycles10RemoveEdgeENS1_7GraphIdES3_, 
                       __ZN4absl12lts_2021110224synchronization_internal11GraphCycles10RemoveNodeEPv, 
                       __ZN4absl12lts_2021110224synchronization_internal11GraphCycles13GetStackTraceENS1_7GraphIdEPPPv, 
                       __ZN4absl12lts_2021110224synchronization_internal11GraphCycles16UpdateStackTraceENS1_7GraphIdEiPFiPPviE, 
                       __ZN4absl12lts_2021110224synchronization_internal11GraphCycles3PtrENS1_7GraphIdE, 
                       __ZN4absl12lts_2021110224synchronization_internal11GraphCycles5GetIdEPv, 
                       __ZN4absl12lts_2021110224synchronization_internal11GraphCycles7HasNodeENS1_7GraphIdE, 
                       __ZN4absl12lts_2021110224synchronization_internal11GraphCyclesC1Ev, 
                       __ZN4absl12lts_2021110224synchronization_internal11GraphCyclesC2Ev, 
                       __ZN4absl12lts_2021110224synchronization_internal11GraphCyclesD1Ev, 
                       __ZN4absl12lts_2021110224synchronization_internal11GraphCyclesD2Ev, 
                       __ZN4absl12lts_2021110224synchronization_internal12PerThreadSem23GetThreadBlockedCounterEv, 
                       __ZN4absl12lts_2021110224synchronization_internal12PerThreadSem23SetThreadBlockedCounterEPNSt3__16atomicIiEE, 
                       __ZN4absl12lts_2021110224synchronization_internal12PerThreadSem4InitEPNS0_13base_internal14ThreadIdentityE, 
                       __ZN4absl12lts_2021110224synchronization_internal12PerThreadSem4TickEPNS0_13base_internal14ThreadIdentityE, 
                       __ZN4absl12lts_2021110224synchronization_internal12PerThreadSem7DestroyEPNS0_13base_internal14ThreadIdentityE, 
                       __ZN4absl12lts_2021110224synchronization_internal20CreateThreadIdentityEv, 
                       __ZN4absl12lts_2021110224synchronization_internal21ReclaimThreadIdentityEPv, 
                       __ZN4absl12lts_2021110224synchronization_internal6Waiter19InternalCondVarPokeEv, 
                       __ZN4absl12lts_2021110224synchronization_internal6Waiter4PokeEv, 
                       __ZN4absl12lts_2021110224synchronization_internal6Waiter4PostEv, 
                       __ZN4absl12lts_2021110224synchronization_internal6Waiter4WaitENS1_13KernelTimeoutE, 
                       __ZN4absl12lts_2021110224synchronization_internal6WaiterC1Ev, 
                       __ZN4absl12lts_2021110224synchronization_internal6WaiterC2Ev, 
                       __ZN4absl12lts_2021110224synchronization_internal6WaiterD1Ev, 
                       __ZN4absl12lts_2021110224synchronization_internal6WaiterD2Ev, 
                       __ZN4absl12lts_2021110225GetStackFramesWithContextEPPvPiiiPKvS3_, 
                       __ZN4absl12lts_2021110226RemoveExtraAsciiWhitespaceEPNSt3__112basic_stringIcNS1_11char_traitsIcEENS1_9allocatorIcEEEE, 
                       __ZN4absl12lts_2021110229EnableMutexInvariantDebuggingEb, 
                       __ZN4absl12lts_2021110229SetMutexDeadlockDetectionModeENS0_15OnDeadlockCycleE, 
                       __ZN4absl12lts_202111023NowEv, __ZN4absl12lts_202111024CeilENS0_8DurationES1_, 
                       __ZN4absl12lts_202111024Cord10GetFlatAuxEPNS0_13cord_internal7CordRepEPNS0_11string_viewE, 
                       __ZN4absl12lts_202111024Cord12PrependArrayENS0_11string_viewENS0_13cord_internal18CordzUpdateTracker16MethodIdentifierE, 
                       __ZN4absl12lts_202111024Cord12RemovePrefixEm, __ZN4absl12lts_202111024Cord12RemoveSuffixEm, 
                       __ZN4absl12lts_202111024Cord13ChunkIterator12AdvanceStackEv, 
                       __ZN4absl12lts_202111024Cord13ChunkIterator19AdvanceAndReadBytesEm, 
                       __ZN4absl12lts_202111024Cord13ChunkIterator20AdvanceBytesSlowPathEm, 
                       __ZN4absl12lts_202111024Cord14MemoryUsageAuxEPKNS0_13cord_internal7CordRepE, 
                       __ZN4absl12lts_202111024Cord15DestroyCordSlowEv, __ZN4absl12lts_202111024Cord15FlattenSlowPathEv, 
                       __ZN4absl12lts_202111024Cord15ForEachChunkAuxEPNS0_13cord_internal7CordRepENS0_11FunctionRefIFvNS0_11string_viewEEEE, 
                       __ZN4absl12lts_202111024Cord17AssignLargeStringEONSt3__112basic_stringIcNS2_11char_traitsIcEENS2_9allocatorIcEEEE, 
                       __ZN4absl12lts_202111024Cord5ClearEv, __ZN4absl12lts_202111024Cord6AppendEOS1_, 
                       __ZN4absl12lts_202111024Cord6AppendERKS1_, __ZN4absl12lts_202111024Cord7PrependERKS1_, 
                       __ZN4absl12lts_202111024Cord9InlineRep10AppendTreeEPNS0_13cord_internal7CordRepENS3_18CordzUpdateTracker16MethodIdentifierE, 
                       __ZN4absl12lts_202111024Cord9InlineRep10AssignSlowERKS2_, 
                       __ZN4absl12lts_202111024Cord9InlineRep10kMaxInlineE, __ZN4absl12lts_202111024Cord9InlineRep11AppendArrayENS0_11string_viewENS0_13cord_internal18CordzUpdateTracker16MethodIdentifierE, 
                       __ZN4absl12lts_202111024Cord9InlineRep11PrependTreeEPNS0_13cord_internal7CordRepENS3_18CordzUpdateTracker16MethodIdentifierE, 
                       __ZN4absl12lts_202111024Cord9InlineRep16AppendTreeToTreeEPNS0_13cord_internal7CordRepENS3_18CordzUpdateTracker16MethodIdentifierE, 
                       __ZN4absl12lts_202111024Cord9InlineRep17PrependTreeToTreeEPNS0_13cord_internal7CordRepENS3_18CordzUpdateTracker16MethodIdentifierE, 
                       __ZN4absl12lts_202111024Cord9InlineRep19AppendTreeToInlinedEPNS0_13cord_internal7CordRepENS3_18CordzUpdateTracker16MethodIdentifierE, 
                       __ZN4absl12lts_202111024Cord9InlineRep20PrependTreeToInlinedEPNS0_13cord_internal7CordRepENS3_18CordzUpdateTracker16MethodIdentifierE, 
                       __ZN4absl12lts_202111024Cord9InlineRep9UnrefTreeEv, __ZN4absl12lts_202111024CordC1ENS0_11string_viewENS0_13cord_internal18CordzUpdateTracker16MethodIdentifierE, 
                       __ZN4absl12lts_202111024CordC2ENS0_11string_viewENS0_13cord_internal18CordzUpdateTracker16MethodIdentifierE, 
                       __ZN4absl12lts_202111024CordaSENS0_11string_viewE, __ZN4absl12lts_202111024ToTMENS0_4TimeENS0_8TimeZoneE, 
                       __ZN4absl12lts_202111025FloorENS0_8DurationES1_, __ZN4absl12lts_202111025Mutex10ReaderLockEv, 
                       __ZN4absl12lts_202111025Mutex10UnlockSlowEPNS0_15SynchWaitParamsE, 
                       __ZN4absl12lts_202111025Mutex11AwaitCommonERKNS0_9ConditionENS0_24synchronization_internal13KernelTimeoutE, 
                       __ZN4absl12lts_202111025Mutex12LockSlowLoopEPNS0_15SynchWaitParamsEi, 
                       __ZN4absl12lts_202111025Mutex12ReaderUnlockEv, __ZN4absl12lts_202111025Mutex13ReaderTryLockEv, 
                       __ZN4absl12lts_202111025Mutex14EnableDebugLogEPKc, __ZN4absl12lts_202111025Mutex14ReaderLockWhenERKNS0_9ConditionE, 
                       __ZN4absl12lts_202111025Mutex16AwaitWithTimeoutERKNS0_9ConditionENS0_8DurationE, 
                       __ZN4absl12lts_202111025Mutex17AwaitWithDeadlineERKNS0_9ConditionENS0_4TimeE, 
                       __ZN4absl12lts_202111025Mutex17DecrementSynchSemEPS1_PNS0_13base_internal14PerThreadSynchENS0_24synchronization_internal13KernelTimeoutE, 
                       __ZN4absl12lts_202111025Mutex17IncrementSynchSemEPS1_PNS0_13base_internal14PerThreadSynchE, 
                       __ZN4absl12lts_202111025Mutex18ForgetDeadlockInfoEv, __ZN4absl12lts_202111025Mutex19LockWhenWithTimeoutERKNS0_9ConditionENS0_8DurationE, 
                       __ZN4absl12lts_202111025Mutex20LockSlowWithDeadlineEPKNS0_6MuHowSEPKNS0_9ConditionENS0_24synchronization_internal13KernelTimeoutEi, 
                       __ZN4absl12lts_202111025Mutex20LockWhenWithDeadlineERKNS0_9ConditionENS0_4TimeE, 
                       __ZN4absl12lts_202111025Mutex24EnableInvariantDebuggingEPFvPvES2_, 
                       __ZN4absl12lts_202111025Mutex25ReaderLockWhenWithTimeoutERKNS0_9ConditionENS0_8DurationE, 
                       __ZN4absl12lts_202111025Mutex26ReaderLockWhenWithDeadlineERKNS0_9ConditionENS0_4TimeE, 
                       __ZN4absl12lts_202111025Mutex3FerEPNS0_13base_internal14PerThreadSynchE, 
                       __ZN4absl12lts_202111025Mutex45InternalAttemptToUseMutexInFatalSignalHandlerEv, 
                       __ZN4absl12lts_202111025Mutex4LockEv, __ZN4absl12lts_202111025Mutex5AwaitERKNS0_9ConditionE, 
                       __ZN4absl12lts_202111025Mutex5BlockEPNS0_13base_internal14PerThreadSynchE, 
                       __ZN4absl12lts_202111025Mutex5TransEPKNS0_6MuHowSE, __ZN4absl12lts_202111025Mutex6UnlockEv, 
                       __ZN4absl12lts_202111025Mutex6WakeupEPNS0_13base_internal14PerThreadSynchE, 
                       __ZN4absl12lts_202111025Mutex7TryLockEv, __ZN4absl12lts_202111025Mutex8LockSlowEPKNS0_6MuHowSEPKNS0_9ConditionEi, 
                       __ZN4absl12lts_202111025Mutex8LockWhenERKNS0_9ConditionE, 
                       __ZN4absl12lts_202111025Mutex9TryRemoveEPNS0_13base_internal14PerThreadSynchE, 
                       __ZN4absl12lts_202111025MutexD1Ev, __ZN4absl12lts_202111025MutexD2Ev, 
                       __ZN4absl12lts_202111025TruncENS0_8DurationES1_, __ZN4absl12lts_202111026FromTMERK2tmNS0_8TimeZoneE, 
                       __ZN4absl12lts_202111026Status10EqualsSlowERKS1_S3_, __ZN4absl12lts_202111026Status10SetPayloadENS0_11string_viewENS0_4CordE, 
                       __ZN4absl12lts_202111026Status11EmptyStringEv, __ZN4absl12lts_202111026Status12ErasePayloadENS0_11string_viewE, 
                       __ZN4absl12lts_202111026Status15MovedFromStringEv, __ZN4absl12lts_202111026Status15PrepareToModifyEv, 
                       __ZN4absl12lts_202111026Status15UnrefNonInlinedEm, __ZN4absl12lts_202111026Status16kMovedFromStringE, 
                       __ZN4absl12lts_202111026StatusC1ENS0_10StatusCodeENS0_11string_viewE, 
                       __ZN4absl12lts_202111026StatusC2ENS0_10StatusCodeENS0_11string_viewE, 
                       __ZN4absl12lts_202111026StrCatERKNS0_8AlphaNumES3_, __ZN4absl12lts_202111026StrCatERKNS0_8AlphaNumES3_S3_, 
                       __ZN4absl12lts_202111026StrCatERKNS0_8AlphaNumES3_S3_S3_, 
                       __ZN4absl12lts_202111027Barrier5BlockEv, __ZN4absl12lts_202111027CEscapeENS0_11string_viewE, 
                       __ZN4absl12lts_202111027CondVar10WaitCommonEPNS0_5MutexENS0_24synchronization_internal13KernelTimeoutE, 
                       __ZN4absl12lts_202111027CondVar14EnableDebugLogEPKc, __ZN4absl12lts_202111027CondVar15WaitWithTimeoutEPNS0_5MutexENS0_8DurationE, 
                       __ZN4absl12lts_202111027CondVar16WaitWithDeadlineEPNS0_5MutexENS0_4TimeE, 
                       __ZN4absl12lts_202111027CondVar4WaitEPNS0_5MutexE, __ZN4absl12lts_202111027CondVar6RemoveEPNS0_13base_internal14PerThreadSynchE, 
                       __ZN4absl12lts_202111027CondVar6SignalEv, __ZN4absl12lts_202111027CondVar6WakeupEPNS0_13base_internal14PerThreadSynchE, 
                       __ZN4absl12lts_202111027CondVar9SignalAllEv, __ZN4absl12lts_202111027CondVarD1Ev, 
                       __ZN4absl12lts_202111027CondVarD2Ev, __ZN4absl12lts_202111027ToTimeTENS0_4TimeE, 
                       __ZN4absl12lts_202111027ToUDateENS0_4TimeE, __ZN4absl12lts_202111027uint128C1Ed, 
                       __ZN4absl12lts_202111027uint128C1Ee, __ZN4absl12lts_202111027uint128C1Ef, 
                       __ZN4absl12lts_202111027uint128C2Ed, __ZN4absl12lts_202111027uint128C2Ee, 
                       __ZN4absl12lts_202111027uint128C2Ef, __ZN4absl12lts_202111028AlphaNumC1ENS0_3DecE, 
                       __ZN4absl12lts_202111028AlphaNumC1ENS0_3HexE, __ZN4absl12lts_202111028AlphaNumC2ENS0_3DecE, 
                       __ZN4absl12lts_202111028AlphaNumC2ENS0_3HexE, __ZN4absl12lts_202111028ByLengthC1El, 
                       __ZN4absl12lts_202111028ByLengthC2El, __ZN4absl12lts_202111028ByStringC1ENS0_11string_viewE, 
                       __ZN4absl12lts_202111028ByStringC2ENS0_11string_viewE, __ZN4absl12lts_202111028DurationdVEd, 
                       __ZN4absl12lts_202111028DurationdVEx, __ZN4absl12lts_202111028DurationmIES1_, 
                       __ZN4absl12lts_202111028DurationmLEd, __ZN4absl12lts_202111028DurationmLEx, 
                       __ZN4absl12lts_202111028DurationpLES1_, __ZN4absl12lts_202111028DurationrMES1_, 
                       __ZN4absl12lts_202111029ByAnyCharC1ENS0_11string_viewE, __ZN4absl12lts_202111029ByAnyCharC2ENS0_11string_viewE, 
                       __ZN4absl12lts_202111029CUnescapeENS0_11string_viewEPNSt3__112basic_stringIcNS2_11char_traitsIcEENS2_9allocatorIcEEEES9_, 
                       __ZN4absl12lts_202111029Condition15GuaranteedEqualEPKS1_S3_, 
                       __ZN4absl12lts_202111029Condition19CallVoidPtrFunctionEPKS1_, 
                       __ZN4absl12lts_202111029Condition5kTrueE, __ZN4absl12lts_202111029ConditionC1EPFbPvES2_, 
                       __ZN4absl12lts_202111029ConditionC1EPKb, __ZN4absl12lts_202111029ConditionC1Ev, 
                       __ZN4absl12lts_202111029ConditionC2EPFbPvES2_, __ZN4absl12lts_202111029ConditionC2EPKb, 
                       __ZN4absl12lts_202111029ConditionC2Ev, __ZN4absl12lts_202111029FromUDateEd, 
                       __ZN4absl12lts_202111029IsAbortedERKNS0_6StatusE, __ZN4absl12lts_202111029IsUnknownERKNS0_6StatusE, 
                       __ZN4absl12lts_202111029ParseFlagERKNSt3__112basic_stringIcNS1_11char_traitsIcEENS1_9allocatorIcEEEEPNS0_4TimeEPS7_, 
                       __ZN4absl12lts_202111029ParseFlagERKNSt3__112basic_stringIcNS1_11char_traitsIcEENS1_9allocatorIcEEEEPNS0_8DurationEPS7_, 
                       __ZN4absl12lts_202111029ParseTimeENS0_11string_viewES1_NS0_8TimeZoneEPNS0_4TimeEPNSt3__112basic_stringIcNS5_11char_traitsIcEENS5_9allocatorIcEEEE, 
                       __ZN4absl12lts_202111029ParseTimeENS0_11string_viewES1_PNS0_4TimeEPNSt3__112basic_stringIcNS4_11char_traitsIcEENS4_9allocatorIcEEEE, 
                       __ZN4absl12lts_202111029StrAppendEPNSt3__112basic_stringIcNS1_11char_traitsIcEENS1_9allocatorIcEEEERKNS0_8AlphaNumE, 
                       __ZN4absl12lts_202111029StrAppendEPNSt3__112basic_stringIcNS1_11char_traitsIcEENS1_9allocatorIcEEEERKNS0_8AlphaNumESB_, 
                       __ZN4absl12lts_202111029StrAppendEPNSt3__112basic_stringIcNS1_11char_traitsIcEENS1_9allocatorIcEEEERKNS0_8AlphaNumESB_SB_, 
                       __ZN4absl12lts_202111029StrAppendEPNSt3__112basic_stringIcNS1_11char_traitsIcEENS1_9allocatorIcEEEERKNS0_8AlphaNumESB_SB_SB_, 
                       __ZN4absl12lts_202111029SymbolizeEPKvPci, __ZN4absl12lts_202111029ToTimevalENS0_4TimeE, 
                       __ZN4absl12lts_202111029ToTimevalENS0_8DurationE, __ZN4absl12lts_20211102lsERNSt3__113basic_ostreamIcNS1_11char_traitsIcEEEENS0_10StatusCodeE, 
                       __ZN4absl12lts_20211102lsERNSt3__113basic_ostreamIcNS1_11char_traitsIcEEEENS0_11LogSeverityE, 
                       __ZN4absl12lts_20211102lsERNSt3__113basic_ostreamIcNS1_11char_traitsIcEEEENS0_11string_viewE, 
                       __ZN4absl12lts_20211102lsERNSt3__113basic_ostreamIcNS1_11char_traitsIcEEEENS0_6int128E, 
                       __ZN4absl12lts_20211102lsERNSt3__113basic_ostreamIcNS1_11char_traitsIcEEEENS0_7uint128E, 
                       __ZN4absl12lts_20211102lsERNSt3__113basic_ostreamIcNS1_11char_traitsIcEEEERKNS0_4CordE, 
                       __ZN4absl12lts_20211102lsERNSt3__113basic_ostreamIcNS1_11char_traitsIcEEEERKNS0_6StatusE, 
                       __ZNK4absl12lts_2021110211string_view12find_last_ofES1_m, 
                       __ZNK4absl12lts_2021110211string_view13find_first_ofES1_m, 
                       __ZNK4absl12lts_2021110211string_view16find_last_not_ofES1_m, 
                       __ZNK4absl12lts_2021110211string_view16find_last_not_ofEcm, 
                       __ZNK4absl12lts_2021110211string_view17find_first_not_ofES1_m, 
                       __ZNK4absl12lts_2021110211string_view17find_first_not_ofEcm, 
                       __ZNK4absl12lts_2021110211string_view4findES1_m, __ZNK4absl12lts_2021110211string_view4findEcm, 
                       __ZNK4absl12lts_2021110211string_view5rfindES1_m, __ZNK4absl12lts_2021110211string_view5rfindEcm, 
                       __ZNK4absl12lts_2021110212Notification19WaitForNotificationEv, 
                       __ZNK4absl12lts_2021110212Notification30WaitForNotificationWithTimeoutENS0_8DurationE, 
                       __ZNK4absl12lts_2021110212Notification31WaitForNotificationWithDeadlineENS0_4TimeE, 
                       __ZNK4absl12lts_2021110212bad_any_cast4whatEv, __ZNK4absl12lts_2021110213cord_internal11CordRepRing12FindTailSlowEjm, 
                       __ZNK4absl12lts_2021110213cord_internal11CordRepRing12GetCharacterEm, 
                       __ZNK4absl12lts_2021110213cord_internal11CordRepRing7IsValidERNSt3__113basic_ostreamIcNS3_11char_traitsIcEEEE, 
                       __ZNK4absl12lts_2021110213cord_internal11CordRepRing8FindSlowEjm, 
                       __ZNK4absl12lts_2021110213cord_internal11CordzHandle12SafeToDeleteEv, 
                       __ZNK4absl12lts_2021110213cord_internal11CordzHandle32DiagnosticsHandleIsSafeToInspectEPKS2_, 
                       __ZNK4absl12lts_2021110213cord_internal12CordRepBtree12GetCharacterEm, 
                       __ZNK4absl12lts_2021110213cord_internal12CordRepBtree6IsFlatEPNS0_11string_viewE, 
                       __ZNK4absl12lts_2021110213cord_internal12CordRepBtree6IsFlatEmmPNS0_11string_viewE, 
                       __ZNK4absl12lts_2021110213cord_internal9CordzInfo14GetParentStackEv, 
                       __ZNK4absl12lts_2021110213cord_internal9CordzInfo18GetCordzStatisticsEv, 
                       __ZNK4absl12lts_2021110213cord_internal9CordzInfo4NextERKNS1_13CordzSnapshotE, 
                       __ZNK4absl12lts_2021110213cord_internal9CordzInfo8GetStackEv, 
                       __ZNK4absl12lts_2021110213time_internal4cctz12TimeZoneInfo11DescriptionEv, 
                       __ZNK4absl12lts_2021110213time_internal4cctz12TimeZoneInfo14NextTransitionERKNSt3__16chrono10time_pointINS5_12system_clockENS5_8durationIxNS4_5ratioILl1ELl1EEEEEEEPNS2_9time_zone16civil_transitionE, 
                       __ZNK4absl12lts_2021110213time_internal4cctz12TimeZoneInfo14PrevTransitionERKNSt3__16chrono10time_pointINS5_12system_clockENS5_8durationIxNS4_5ratioILl1ELl1EEEEEEEPNS2_9time_zone16civil_transitionE, 
                       __ZNK4absl12lts_2021110213time_internal4cctz12TimeZoneInfo16EquivTransitionsEhh, 
                       __ZNK4absl12lts_2021110213time_internal4cctz12TimeZoneInfo6Header10DataLengthEm, 
                       __ZNK4absl12lts_2021110213time_internal4cctz12TimeZoneInfo7VersionEv, 
                       __ZNK4absl12lts_2021110213time_internal4cctz12TimeZoneInfo8MakeTimeERKNS2_6detail10civil_timeINS4_10second_tagEEE, 
                       __ZNK4absl12lts_2021110213time_internal4cctz12TimeZoneInfo9BreakTimeERKNSt3__16chrono10time_pointINS5_12system_clockENS5_8durationIxNS4_5ratioILl1ELl1EEEEEEE, 
                       __ZNK4absl12lts_2021110213time_internal4cctz12TimeZoneInfo9LocalTimeExRKNS2_10TransitionE, 
                       __ZNK4absl12lts_2021110213time_internal4cctz12TimeZoneInfo9LocalTimeExRKNS2_14TransitionTypeE, 
                       __ZNK4absl12lts_2021110213time_internal4cctz12TimeZoneInfo9TimeLocalERKNS2_6detail10civil_timeINS4_10second_tagEEEx, 
                       __ZNK4absl12lts_2021110213time_internal4cctz12TimeZoneLibC11DescriptionEv, 
                       __ZNK4absl12lts_2021110213time_internal4cctz12TimeZoneLibC14NextTransitionERKNSt3__16chrono10time_pointINS5_12system_clockENS5_8durationIxNS4_5ratioILl1ELl1EEEEEEEPNS2_9time_zone16civil_transitionE, 
                       __ZNK4absl12lts_2021110213time_internal4cctz12TimeZoneLibC14PrevTransitionERKNSt3__16chrono10time_pointINS5_12system_clockENS5_8durationIxNS4_5ratioILl1ELl1EEEEEEEPNS2_9time_zone16civil_transitionE, 
                       __ZNK4absl12lts_2021110213time_internal4cctz12TimeZoneLibC7VersionEv, 
                       __ZNK4absl12lts_2021110213time_internal4cctz12TimeZoneLibC8MakeTimeERKNS2_6detail10civil_timeINS4_10second_tagEEE, 
                       __ZNK4absl12lts_2021110213time_internal4cctz12TimeZoneLibC9BreakTimeERKNSt3__16chrono10time_pointINS5_12system_clockENS5_8durationIxNS4_5ratioILl1ELl1EEEEEEE, 
                       __ZNK4absl12lts_2021110213time_internal4cctz14ZoneInfoSource7VersionEv, 
                       __ZNK4absl12lts_2021110213time_internal4cctz9time_zone11descriptionEv, 
                       __ZNK4absl12lts_2021110213time_internal4cctz9time_zone14effective_implEv, 
                       __ZNK4absl12lts_2021110213time_internal4cctz9time_zone15next_transitionERKNSt3__16chrono10time_pointINS5_12system_clockENS5_8durationIxNS4_5ratioILl1ELl1EEEEEEEPNS3_16civil_transitionE, 
                       __ZNK4absl12lts_2021110213time_internal4cctz9time_zone15prev_transitionERKNSt3__16chrono10time_pointINS5_12system_clockENS5_8durationIxNS4_5ratioILl1ELl1EEEEEEEPNS3_16civil_transitionE, 
                       __ZNK4absl12lts_2021110213time_internal4cctz9time_zone4nameEv, 
                       __ZNK4absl12lts_2021110213time_internal4cctz9time_zone6lookupERKNS2_6detail10civil_timeINS4_10second_tagEEE, 
                       __ZNK4absl12lts_2021110213time_internal4cctz9time_zone6lookupERKNSt3__16chrono10time_pointINS5_12system_clockENS5_8durationIxNS4_5ratioILl1ELl1EEEEEEE, 
                       __ZNK4absl12lts_2021110213time_internal4cctz9time_zone7versionEv, 
                       __ZNK4absl12lts_2021110216SeedGenException4whatEv, __ZNK4absl12lts_2021110217BadStatusOrAccess4whatEv, 
                       __ZNK4absl12lts_2021110217BadStatusOrAccess6statusEv, __ZNK4absl12lts_2021110217BadStatusOrAccess8InitWhatEv, 
                       __ZNK4absl12lts_2021110218bad_variant_access4whatEv, __ZNK4absl12lts_2021110219bad_optional_access4whatEv, 
                       __ZNK4absl12lts_2021110219str_format_internal10Streamable5PrintERNSt3__113basic_ostreamIcNS3_11char_traitsIcEEEE, 
                       __ZNK4absl12lts_2021110219str_format_internal16ParsedFormatBase18MatchesConversionsEbSt16initializer_listINS0_23FormatConversionCharSetEE, 
                       __ZNK4absl12lts_2021110224synchronization_internal11GraphCycles11IsReachableENS1_7GraphIdES3_, 
                       __ZNK4absl12lts_2021110224synchronization_internal11GraphCycles15CheckInvariantsEv, 
                       __ZNK4absl12lts_2021110224synchronization_internal11GraphCycles7HasEdgeENS1_7GraphIdES3_, 
                       __ZNK4absl12lts_2021110224synchronization_internal11GraphCycles8FindPathENS1_7GraphIdES3_iPS3_, 
                       __ZNK4absl12lts_202111024Cord10EqualsImplENS0_11string_viewEm, 
                       __ZNK4absl12lts_202111024Cord10EqualsImplERKS1_m, __ZNK4absl12lts_202111024Cord11CompareImplERKS1_, 
                       __ZNK4absl12lts_202111024Cord19CopyToArraySlowPathEPc, __ZNK4absl12lts_202111024Cord7CompareENS0_11string_viewE, 
                       __ZNK4absl12lts_202111024Cord7SubcordEmm, __ZNK4absl12lts_202111024Cord8EndsWithENS0_11string_viewE, 
                       __ZNK4absl12lts_202111024Cord8EndsWithERKS1_, __ZNK4absl12lts_202111024CordcvNSt3__112basic_stringIcNS2_11char_traitsIcEENS2_9allocatorIcEEEEEv, 
                       __ZNK4absl12lts_202111024CordixEm, __ZNK4absl12lts_202111024Time2InENS0_8TimeZoneE, 
                       __ZNK4absl12lts_202111025Mutex10AssertHeldEv, __ZNK4absl12lts_202111025Mutex13AssertNotHeldEv, 
                       __ZNK4absl12lts_202111025Mutex16AssertReaderHeldEv, __ZNK4absl12lts_202111026ByChar4FindENS0_11string_viewEm, 
                       __ZNK4absl12lts_202111026Status10GetPayloadENS0_11string_viewE, 
                       __ZNK4absl12lts_202111026Status12ToStringSlowENS0_18StatusToStringModeE, 
                       __ZNK4absl12lts_202111026Status14ForEachPayloadENS0_11FunctionRefIFvNS0_11string_viewERKNS0_4CordEEEE, 
                       __ZNK4absl12lts_202111026Status4codeEv, __ZNK4absl12lts_202111026Status8raw_codeEv, 
                       __ZNK4absl12lts_202111028ByLength4FindENS0_11string_viewEm, 
                       __ZNK4absl12lts_202111028ByString4FindENS0_11string_viewEm, 
                       __ZNK4absl12lts_202111028TimeZone14NextTransitionENS0_4TimeEPNS1_15CivilTransitionE, 
                       __ZNK4absl12lts_202111028TimeZone14PrevTransitionENS0_4TimeEPNS1_15CivilTransitionE, 
                       __ZNK4absl12lts_202111028TimeZone2AtENS0_13time_internal4cctz6detail10civil_timeINS2_10second_tagEEE, 
                       __ZNK4absl12lts_202111028TimeZone2AtENS0_4TimeE, __ZNK4absl12lts_202111029ByAnyChar4FindENS0_11string_viewEm, 
                       __ZNK4absl12lts_202111029Condition4EvalEv, __ZNSt3__114numeric_limitsIN4absl12lts_202111026int128EE10has_denormE, 
                       __ZNSt3__114numeric_limitsIN4absl12lts_202111026int128EE10is_boundedE, 
                       __ZNSt3__114numeric_limitsIN4absl12lts_202111026int128EE10is_integerE, 
                       __ZNSt3__114numeric_limitsIN4absl12lts_202111026int128EE11round_styleE, 
                       __ZNSt3__114numeric_limitsIN4absl12lts_202111026int128EE12has_infinityE, 
                       __ZNSt3__114numeric_limitsIN4absl12lts_202111026int128EE12max_digits10E, 
                       __ZNSt3__114numeric_limitsIN4absl12lts_202111026int128EE12max_exponentE, 
                       __ZNSt3__114numeric_limitsIN4absl12lts_202111026int128EE12min_exponentE, 
                       __ZNSt3__114numeric_limitsIN4absl12lts_202111026int128EE13has_quiet_NaNE, 
                       __ZNSt3__114numeric_limitsIN4absl12lts_202111026int128EE14is_specializedE, 
                       __ZNSt3__114numeric_limitsIN4absl12lts_202111026int128EE14max_exponent10E, 
                       __ZNSt3__114numeric_limitsIN4absl12lts_202111026int128EE14min_exponent10E, 
                       __ZNSt3__114numeric_limitsIN4absl12lts_202111026int128EE15has_denorm_lossE, 
                       __ZNSt3__114numeric_limitsIN4absl12lts_202111026int128EE15tinyness_beforeE, 
                       __ZNSt3__114numeric_limitsIN4absl12lts_202111026int128EE17has_signaling_NaNE, 
                       __ZNSt3__114numeric_limitsIN4absl12lts_202111026int128EE5radixE, 
                       __ZNSt3__114numeric_limitsIN4absl12lts_202111026int128EE5trapsE, 
                       __ZNSt3__114numeric_limitsIN4absl12lts_202111026int128EE6digitsE, 
                       __ZNSt3__114numeric_limitsIN4absl12lts_202111026int128EE8digits10E, 
                       __ZNSt3__114numeric_limitsIN4absl12lts_202111026int128EE8is_exactE, 
                       __ZNSt3__114numeric_limitsIN4absl12lts_202111026int128EE9is_iec559E, 
                       __ZNSt3__114numeric_limitsIN4absl12lts_202111026int128EE9is_moduloE, 
                       __ZNSt3__114numeric_limitsIN4absl12lts_202111026int128EE9is_signedE, 
                       __ZNSt3__114numeric_limitsIN4absl12lts_202111027uint128EE10has_denormE, 
                       __ZNSt3__114numeric_limitsIN4absl12lts_202111027uint128EE10is_boundedE, 
                       __ZNSt3__114numeric_limitsIN4absl12lts_202111027uint128EE10is_integerE, 
                       __ZNSt3__114numeric_limitsIN4absl12lts_202111027uint128EE11round_styleE, 
                       __ZNSt3__114numeric_limitsIN4absl12lts_202111027uint128EE12has_infinityE, 
                       __ZNSt3__114numeric_limitsIN4absl12lts_202111027uint128EE12max_digits10E, 
                       __ZNSt3__114numeric_limitsIN4absl12lts_202111027uint128EE12max_exponentE, 
                       __ZNSt3__114numeric_limitsIN4absl12lts_202111027uint128EE12min_exponentE, 
                       __ZNSt3__114numeric_limitsIN4absl12lts_202111027uint128EE13has_quiet_NaNE, 
                       __ZNSt3__114numeric_limitsIN4absl12lts_202111027uint128EE14is_specializedE, 
                       __ZNSt3__114numeric_limitsIN4absl12lts_202111027uint128EE14max_exponent10E, 
                       __ZNSt3__114numeric_limitsIN4absl12lts_202111027uint128EE14min_exponent10E, 
                       __ZNSt3__114numeric_limitsIN4absl12lts_202111027uint128EE15has_denorm_lossE, 
                       __ZNSt3__114numeric_limitsIN4absl12lts_202111027uint128EE15tinyness_beforeE, 
                       __ZNSt3__114numeric_limitsIN4absl12lts_202111027uint128EE17has_signaling_NaNE, 
                       __ZNSt3__114numeric_limitsIN4absl12lts_202111027uint128EE5radixE, 
                       __ZNSt3__114numeric_limitsIN4absl12lts_202111027uint128EE5trapsE, 
                       __ZNSt3__114numeric_limitsIN4absl12lts_202111027uint128EE6digitsE, 
                       __ZNSt3__114numeric_limitsIN4absl12lts_202111027uint128EE8digits10E, 
                       __ZNSt3__114numeric_limitsIN4absl12lts_202111027uint128EE8is_exactE, 
                       __ZNSt3__114numeric_limitsIN4absl12lts_202111027uint128EE9is_iec559E, 
                       __ZNSt3__114numeric_limitsIN4absl12lts_202111027uint128EE9is_moduloE, 
                       __ZNSt3__114numeric_limitsIN4absl12lts_202111027uint128EE9is_signedE, 
                       __ZTCN4absl12lts_2021110216strings_internal13OStringStreamE64_NSt3__113basic_ostreamIcNS2_11char_traitsIcEEEE, 
                       __ZTIN4absl12lts_2021110212bad_any_castE, __ZTIN4absl12lts_2021110213cord_internal11CordzHandleE, 
                       __ZTIN4absl12lts_2021110213cord_internal9CordzInfoE, __ZTIN4absl12lts_2021110213time_internal4cctz10TimeZoneIfE, 
                       __ZTIN4absl12lts_2021110213time_internal4cctz12TimeZoneInfoE, 
                       __ZTIN4absl12lts_2021110213time_internal4cctz12TimeZoneLibCE, 
                       __ZTIN4absl12lts_2021110213time_internal4cctz14ZoneInfoSourceE, 
                       __ZTIN4absl12lts_2021110216SeedGenExceptionE, __ZTIN4absl12lts_2021110216strings_internal13OStringStreamE, 
                       __ZTIN4absl12lts_2021110217BadStatusOrAccessE, __ZTIN4absl12lts_2021110218bad_variant_accessE, 
                       __ZTIN4absl12lts_2021110219bad_optional_accessE, __ZTSN4absl12lts_2021110212bad_any_castE, 
                       __ZTSN4absl12lts_2021110213cord_internal11CordzHandleE, __ZTSN4absl12lts_2021110213cord_internal9CordzInfoE, 
                       __ZTSN4absl12lts_2021110213time_internal4cctz10TimeZoneIfE, 
                       __ZTSN4absl12lts_2021110213time_internal4cctz12TimeZoneInfoE, 
                       __ZTSN4absl12lts_2021110213time_internal4cctz12TimeZoneLibCE, 
                       __ZTSN4absl12lts_2021110213time_internal4cctz14ZoneInfoSourceE, 
                       __ZTSN4absl12lts_2021110216SeedGenExceptionE, __ZTSN4absl12lts_2021110216strings_internal13OStringStreamE, 
                       __ZTSN4absl12lts_2021110217BadStatusOrAccessE, __ZTSN4absl12lts_2021110218bad_variant_accessE, 
                       __ZTSN4absl12lts_2021110219bad_optional_accessE, __ZTTN4absl12lts_2021110216strings_internal13OStringStreamE, 
                       __ZTVN4absl12lts_2021110212bad_any_castE, __ZTVN4absl12lts_2021110213cord_internal11CordzHandleE, 
                       __ZTVN4absl12lts_2021110213cord_internal9CordzInfoE, __ZTVN4absl12lts_2021110213time_internal4cctz10TimeZoneIfE, 
                       __ZTVN4absl12lts_2021110213time_internal4cctz12TimeZoneInfoE, 
                       __ZTVN4absl12lts_2021110213time_internal4cctz12TimeZoneLibCE, 
                       __ZTVN4absl12lts_2021110213time_internal4cctz14ZoneInfoSourceE, 
                       __ZTVN4absl12lts_2021110216SeedGenExceptionE, __ZTVN4absl12lts_2021110216strings_internal13OStringStreamE, 
                       __ZTVN4absl12lts_2021110217BadStatusOrAccessE, __ZTVN4absl12lts_2021110218bad_variant_accessE, 
                       __ZTVN4absl12lts_2021110219bad_optional_accessE, __ZTWN4absl12lts_2021110213base_internal19thread_identity_ptrE, 
                       _abslVersionNumber, _abslVersionString ]
    objc-classes:    [ PodsDummy_abseil ]
    weak-symbols:    [ _AbslContainerInternalSampleEverything_lts_20211102, _AbslInternalMutexYield_lts_20211102, 
                       _AbslInternalPerThreadSemPost_lts_20211102, _AbslInternalPerThreadSemWait_lts_20211102, 
                       _AbslInternalSleepFor_lts_20211102, _AbslInternalSpinLockDelay_lts_20211102, 
                       _AbslInternalSpinLockWake_lts_20211102, __ZN4absl12lts_2021110210FixedArrayIPNS0_13cord_internal7CordRepELm18446744073709551615ENSt3__19allocatorIS4_EEE22NonEmptyInlinedStorage16AnnotateDestructEm, 
                       __ZN4absl12lts_2021110210FixedArrayIPNS0_13cord_internal7CordRepELm18446744073709551615ENSt3__19allocatorIS4_EEE22NonEmptyInlinedStorage17AnnotateConstructEm, 
                       __ZN4absl12lts_2021110212MillisecondsIdLi0EEENS0_8DurationET_, 
                       __ZN4absl12lts_2021110213StrReplaceAllISt16initializer_listINSt3__14pairINS0_11string_viewES5_EEEEENS3_12basic_stringIcNS3_11char_traitsIcEENS3_9allocatorIcEEEES5_RKT_, 
                       __ZN4absl12lts_2021110213StrReplaceAllISt16initializer_listINSt3__14pairINS0_11string_viewES5_EEEEEiRKT_PNS3_12basic_stringIcNS3_11char_traitsIcEENS3_9allocatorIcEEEE, 
                       __ZN4absl12lts_2021110213base_internal12CallOnceImplIRFvvEJEEEvPNSt3__16atomicIjEENS1_14SchedulingModeEOT_DpOT0_, 
                       __ZN4absl12lts_2021110213base_internal16LowLevelCallOnceIRFvvEJEEEvPNS0_9once_flagEOT_DpOT0_, 
                       __ZN4absl12lts_2021110213base_internal6invokeIRFvvEJEEEDTclsr7InvokerIT_DpT0_E4typeE6Invokeclsr3stdE7declvalIS5_EEspclsr3stdE7declvalIS6_EEEEOS5_DpOS6_, 
                       __ZN4absl12lts_2021110213cord_internal11CordRepRing4FillILb0EEEvPKS2_jj, 
                       __ZN4absl12lts_2021110213cord_internal11CordRepRing4FillILb1EEEvPKS2_jj, 
                       __ZN4absl12lts_2021110213cord_internal11CordRepRing7AddRingILNS2_7AddModeE0EEEPS2_S5_S5_mm, 
                       __ZN4absl12lts_2021110213cord_internal11CordRepRing7AddRingILNS2_7AddModeE1EEEPS2_S5_S5_mm, 
                       __ZN4absl12lts_2021110213cord_internal12CordRepBtree10AddCordRepILNS2_8EdgeTypeE0EEEPS2_S5_PNS1_7CordRepE, 
                       __ZN4absl12lts_2021110213cord_internal12CordRepBtree10AddCordRepILNS2_8EdgeTypeE1EEEPS2_S5_PNS1_7CordRepE, 
                       __ZN4absl12lts_2021110213cord_internal12CordRepBtree5MergeILNS2_8EdgeTypeE0EEEPS2_S5_S5_, 
                       __ZN4absl12lts_2021110213cord_internal12CordRepBtree5MergeILNS2_8EdgeTypeE1EEEPS2_S5_S5_, 
                       __ZN4absl12lts_2021110213cord_internal12CordRepBtree7AddDataILNS2_8EdgeTypeE0EEEPS2_S5_NS0_11string_viewEm, 
                       __ZN4absl12lts_2021110213cord_internal12CordRepBtree7AddDataILNS2_8EdgeTypeE1EEEPS2_S5_NS0_11string_viewEm, 
                       __ZN4absl12lts_2021110213cord_internal12CordRepBtree7SetEdgeILNS2_8EdgeTypeE0EEENS2_8OpResultEbPNS1_7CordRepEm, 
                       __ZN4absl12lts_2021110213cord_internal12CordRepBtree7SetEdgeILNS2_8EdgeTypeE1EEENS2_8OpResultEbPNS1_7CordRepEm, 
                       __ZN4absl12lts_2021110213time_internal14cctz_extension24zone_info_source_factoryE, 
                       __ZN4absl12lts_2021110213time_internal16ToChronoDurationINSt3__16chrono8durationIlNS3_5ratioILl3600ELl1EEEEEEET_NS0_8DurationE, 
                       __ZN4absl12lts_2021110213time_internal16ToChronoDurationINSt3__16chrono8durationIlNS3_5ratioILl60ELl1EEEEEEET_NS0_8DurationE, 
                       __ZN4absl12lts_2021110213time_internal16ToChronoDurationINSt3__16chrono8durationIxNS3_5ratioILl1ELl1000000000EEEEEEET_NS0_8DurationE, 
                       __ZN4absl12lts_2021110213time_internal16ToChronoDurationINSt3__16chrono8durationIxNS3_5ratioILl1ELl1000000EEEEEEET_NS0_8DurationE, 
                       __ZN4absl12lts_2021110213time_internal16ToChronoDurationINSt3__16chrono8durationIxNS3_5ratioILl1ELl1000EEEEEEET_NS0_8DurationE, 
                       __ZN4absl12lts_2021110213time_internal16ToChronoDurationINSt3__16chrono8durationIxNS3_5ratioILl1ELl1EEEEEEET_NS0_8DurationE, 
                       __ZN4absl12lts_2021110214GenericCompareIbNS0_11string_viewEEET_RKNS0_4CordERKT0_m, 
                       __ZN4absl12lts_2021110214GenericCompareIbNS0_4CordEEET_RKS2_RKT0_m, 
                       __ZN4absl12lts_2021110214GenericCompareIiNS0_11string_viewEEET_RKNS0_4CordERKT0_m, 
                       __ZN4absl12lts_2021110214GenericCompareIiNS0_4CordEEET_RKS2_RKT0_m, 
                       __ZN4absl12lts_2021110215random_internal10RandenPoolIhE3maxEv, 
                       __ZN4absl12lts_2021110215random_internal10RandenPoolIhE3minEv, 
                       __ZN4absl12lts_2021110215random_internal10RandenPoolIhE4FillENS0_4SpanIhEE, 
                       __ZN4absl12lts_2021110215random_internal10RandenPoolIhE8GenerateEv, 
                       __ZN4absl12lts_2021110215random_internal10RandenPoolIhEC1Ev, 
                       __ZN4absl12lts_2021110215random_internal10RandenPoolIhEC2Ev, 
                       __ZN4absl12lts_2021110215random_internal10RandenPoolIhEclEv, 
                       __ZN4absl12lts_2021110215random_internal10RandenPoolIjE3maxEv, 
                       __ZN4absl12lts_2021110215random_internal10RandenPoolIjE3minEv, 
                       __ZN4absl12lts_2021110215random_internal10RandenPoolIjE4FillENS0_4SpanIjEE, 
                       __ZN4absl12lts_2021110215random_internal10RandenPoolIjE8GenerateEv, 
                       __ZN4absl12lts_2021110215random_internal10RandenPoolIjEC1Ev, 
                       __ZN4absl12lts_2021110215random_internal10RandenPoolIjEC2Ev, 
                       __ZN4absl12lts_2021110215random_internal10RandenPoolIjEclEv, 
                       __ZN4absl12lts_2021110215random_internal10RandenPoolItE3maxEv, 
                       __ZN4absl12lts_2021110215random_internal10RandenPoolItE3minEv, 
                       __ZN4absl12lts_2021110215random_internal10RandenPoolItE4FillENS0_4SpanItEE, 
                       __ZN4absl12lts_2021110215random_internal10RandenPoolItE8GenerateEv, 
                       __ZN4absl12lts_2021110215random_internal10RandenPoolItEC1Ev, 
                       __ZN4absl12lts_2021110215random_internal10RandenPoolItEC2Ev, 
                       __ZN4absl12lts_2021110215random_internal10RandenPoolItEclEv, 
                       __ZN4absl12lts_2021110215random_internal10RandenPoolIyE3maxEv, 
                       __ZN4absl12lts_2021110215random_internal10RandenPoolIyE3minEv, 
                       __ZN4absl12lts_2021110215random_internal10RandenPoolIyE4FillENS0_4SpanIyEE, 
                       __ZN4absl12lts_2021110215random_internal10RandenPoolIyE8GenerateEv, 
                       __ZN4absl12lts_2021110215random_internal10RandenPoolIyEC1Ev, 
                       __ZN4absl12lts_2021110215random_internal10RandenPoolIyEC2Ev, 
                       __ZN4absl12lts_2021110215random_internal10RandenPoolIyEclEv, 
                       __ZN4absl12lts_2021110216numbers_internal15FastIntToBufferIaEEPcT_S3_, 
                       __ZN4absl12lts_2021110216numbers_internal15FastIntToBufferIcEEPcT_S3_, 
                       __ZN4absl12lts_2021110216numbers_internal15FastIntToBufferIhEEPcT_S3_, 
                       __ZN4absl12lts_2021110216numbers_internal15FastIntToBufferIlEEPcT_S3_, 
                       __ZN4absl12lts_2021110216numbers_internal15FastIntToBufferImEEPcT_S3_, 
                       __ZN4absl12lts_2021110216numbers_internal15FastIntToBufferIsEEPcT_S3_, 
                       __ZN4absl12lts_2021110216numbers_internal15FastIntToBufferItEEPcT_S3_, 
                       __ZN4absl12lts_2021110216strings_internal10ParseFloatILi10EEENS1_11ParsedFloatEPKcS5_NS0_12chars_formatE, 
                       __ZN4absl12lts_2021110216strings_internal10ParseFloatILi16EEENS1_11ParsedFloatEPKcS5_NS0_12chars_formatE, 
                       __ZN4absl12lts_2021110216strings_internal11BigUnsignedILi4EE10MultiplyByEiPKj, 
                       __ZN4absl12lts_2021110216strings_internal11BigUnsignedILi4EE10MultiplyByEj, 
                       __ZN4absl12lts_2021110216strings_internal11BigUnsignedILi4EE10MultiplyByEy, 
                       __ZN4absl12lts_2021110216strings_internal11BigUnsignedILi4EE10ReadDigitsEPKcS5_i, 
                       __ZN4absl12lts_2021110216strings_internal11BigUnsignedILi4EE12AddWithCarryEij, 
                       __ZN4absl12lts_2021110216strings_internal11BigUnsignedILi4EE12AddWithCarryEiy, 
                       __ZN4absl12lts_2021110216strings_internal11BigUnsignedILi4EE12FiveToTheNthEi, 
                       __ZN4absl12lts_2021110216strings_internal11BigUnsignedILi4EE12MultiplyStepEiPKjii, 
                       __ZN4absl12lts_2021110216strings_internal11BigUnsignedILi4EE17ReadFloatMantissaERKNS1_11ParsedFloatEi, 
                       __ZN4absl12lts_2021110216strings_internal11BigUnsignedILi4EE21MultiplyByTenToTheNthEi, 
                       __ZN4absl12lts_2021110216strings_internal11BigUnsignedILi4EE22MultiplyByFiveToTheNthEi, 
                       __ZN4absl12lts_2021110216strings_internal11BigUnsignedILi4EE8Digits10Ev, 
                       __ZN4absl12lts_2021110216strings_internal11BigUnsignedILi4EE9SetToZeroEv, 
                       __ZN4absl12lts_2021110216strings_internal11BigUnsignedILi4EE9ShiftLeftEi, 
                       __ZN4absl12lts_2021110216strings_internal11BigUnsignedILi4EEC1ENS0_11string_viewE, 
                       __ZN4absl12lts_2021110216strings_internal11BigUnsignedILi4EEC1Ev, 
                       __ZN4absl12lts_2021110216strings_internal11BigUnsignedILi4EEC1Ey, 
                       __ZN4absl12lts_2021110216strings_internal11BigUnsignedILi4EEC2ENS0_11string_viewE, 
                       __ZN4absl12lts_2021110216strings_internal11BigUnsignedILi4EEC2Ev, 
                       __ZN4absl12lts_2021110216strings_internal11BigUnsignedILi4EEC2Ey, 
                       __ZN4absl12lts_2021110216strings_internal11BigUnsignedILi84EE10MultiplyByEiPKj, 
                       __ZN4absl12lts_2021110216strings_internal11BigUnsignedILi84EE10MultiplyByEj, 
                       __ZN4absl12lts_2021110216strings_internal11BigUnsignedILi84EE10MultiplyByEy, 
                       __ZN4absl12lts_2021110216strings_internal11BigUnsignedILi84EE10ReadDigitsEPKcS5_i, 
                       __ZN4absl12lts_2021110216strings_internal11BigUnsignedILi84EE12AddWithCarryEij, 
                       __ZN4absl12lts_2021110216strings_internal11BigUnsignedILi84EE12AddWithCarryEiy, 
                       __ZN4absl12lts_2021110216strings_internal11BigUnsignedILi84EE12FiveToTheNthEi, 
                       __ZN4absl12lts_2021110216strings_internal11BigUnsignedILi84EE12MultiplyStepEiPKjii, 
                       __ZN4absl12lts_2021110216strings_internal11BigUnsignedILi84EE17ReadFloatMantissaERKNS1_11ParsedFloatEi, 
                       __ZN4absl12lts_2021110216strings_internal11BigUnsignedILi84EE21MultiplyByTenToTheNthEi, 
                       __ZN4absl12lts_2021110216strings_internal11BigUnsignedILi84EE22MultiplyByFiveToTheNthEi, 
                       __ZN4absl12lts_2021110216strings_internal11BigUnsignedILi84EE8Digits10Ev, 
                       __ZN4absl12lts_2021110216strings_internal11BigUnsignedILi84EE9SetToZeroEv, 
                       __ZN4absl12lts_2021110216strings_internal11BigUnsignedILi84EE9ShiftLeftEi, 
                       __ZN4absl12lts_2021110216strings_internal11BigUnsignedILi84EEC1ENS0_11string_viewE, 
                       __ZN4absl12lts_2021110216strings_internal11BigUnsignedILi84EEC1Ev, 
                       __ZN4absl12lts_2021110216strings_internal11BigUnsignedILi84EEC1Ey, 
                       __ZN4absl12lts_2021110216strings_internal11BigUnsignedILi84EEC2ENS0_11string_viewE, 
                       __ZN4absl12lts_2021110216strings_internal11BigUnsignedILi84EEC2Ev, 
                       __ZN4absl12lts_2021110216strings_internal11BigUnsignedILi84EEC2Ey, 
                       __ZN4absl12lts_2021110216strings_internal17FindSubstitutionsISt16initializer_listINSt3__14pairINS0_11string_viewES6_EEEEENS4_6vectorINS1_18ViableSubstitutionENS4_9allocatorISA_EEEES6_RKT_, 
                       __ZN4absl12lts_2021110216strings_internal20Base64EscapeInternalINSt3__112basic_stringIcNS3_11char_traitsIcEENS3_9allocatorIcEEEEEEvPKhmPT_bPKc, 
                       __ZN4absl12lts_2021110216strings_internal37STLStringResizeUninitializedAmortizedINSt3__112basic_stringIcNS3_11char_traitsIcEENS3_9allocatorIcEEEEEEvPT_m, 
                       __ZN4absl12lts_2021110216strings_internal7CompareILi84ELi84EEEiRKNS1_11BigUnsignedIXT_EEERKNS3_IXT0_EEE, 
                       __ZN4absl12lts_2021110218container_internal13TrailingZerosIyEEjT_, 
                       __ZN4absl12lts_2021110218container_internal19find_first_non_fullIvEENS1_8FindInfoEPKNS1_6ctrl_tEmm, 
                       __ZN4absl12lts_2021110218profiling_internal14SampleRecorderINS0_18container_internal14HashtablezInfoEE10UnregisterEPS4_, 
                       __ZN4absl12lts_2021110218profiling_internal14SampleRecorderINS0_18container_internal14HashtablezInfoEE13SetMaxSamplesEi, 
                       __ZN4absl12lts_2021110218profiling_internal14SampleRecorderINS0_18container_internal14HashtablezInfoEE7PopDeadEv, 
                       __ZN4absl12lts_2021110218profiling_internal14SampleRecorderINS0_18container_internal14HashtablezInfoEE7PushNewEPS4_, 
                       __ZN4absl12lts_2021110218profiling_internal14SampleRecorderINS0_18container_internal14HashtablezInfoEE8PushDeadEPS4_, 
                       __ZN4absl12lts_2021110218profiling_internal14SampleRecorderINS0_18container_internal14HashtablezInfoEE8RegisterEv, 
                       __ZN4absl12lts_2021110219str_format_internal11InvokeFlushINS1_11FILERawSinkEEEDTcl15AbslFormatFlushfp_fp0_EEPT_NS0_11string_viewE, 
                       __ZN4absl12lts_2021110219str_format_internal11InvokeFlushINS1_13BufferRawSinkEEEDTcl15AbslFormatFlushfp_fp0_EEPT_NS0_11string_viewE, 
                       __ZN4absl12lts_2021110219str_format_internal11InvokeFlushINSt3__112basic_stringIcNS3_11char_traitsIcEENS3_9allocatorIcEEEEEEDTcl15AbslFormatFlushfp_fp0_EEPT_NS0_11string_viewE, 
                       __ZN4absl12lts_2021110219str_format_internal11InvokeFlushINSt3__113basic_ostreamIcNS3_11char_traitsIcEEEEEEDTcl15AbslFormatFlushfp_fp0_EEPT_NS0_11string_viewE, 
                       __ZN4absl12lts_2021110219str_format_internal13FormatArgImpl8DispatchINS0_11string_viewEEEbNS2_4DataENS1_24FormatConversionSpecImplEPv, 
                       __ZN4absl12lts_2021110219str_format_internal13FormatArgImpl8DispatchINS0_6int128EEEbNS2_4DataENS1_24FormatConversionSpecImplEPv, 
                       __ZN4absl12lts_2021110219str_format_internal13FormatArgImpl8DispatchINS0_7uint128EEEbNS2_4DataENS1_24FormatConversionSpecImplEPv, 
                       __ZN4absl12lts_2021110219str_format_internal13FormatArgImpl8DispatchINS1_7VoidPtrEEEbNS2_4DataENS1_24FormatConversionSpecImplEPv, 
                       __ZN4absl12lts_2021110219str_format_internal13FormatArgImpl8DispatchINSt3__112basic_stringIcNS4_11char_traitsIcEENS4_9allocatorIcEEEEEEbNS2_4DataENS1_24FormatConversionSpecImplEPv, 
                       __ZN4absl12lts_2021110219str_format_internal13FormatArgImpl8DispatchIPKcEEbNS2_4DataENS1_24FormatConversionSpecImplEPv, 
                       __ZN4absl12lts_2021110219str_format_internal13FormatArgImpl8DispatchIaEEbNS2_4DataENS1_24FormatConversionSpecImplEPv, 
                       __ZN4absl12lts_2021110219str_format_internal13FormatArgImpl8DispatchIbEEbNS2_4DataENS1_24FormatConversionSpecImplEPv, 
                       __ZN4absl12lts_2021110219str_format_internal13FormatArgImpl8DispatchIcEEbNS2_4DataENS1_24FormatConversionSpecImplEPv, 
                       __ZN4absl12lts_2021110219str_format_internal13FormatArgImpl8DispatchIdEEbNS2_4DataENS1_24FormatConversionSpecImplEPv, 
                       __ZN4absl12lts_2021110219str_format_internal13FormatArgImpl8DispatchIeEEbNS2_4DataENS1_24FormatConversionSpecImplEPv, 
                       __ZN4absl12lts_2021110219str_format_internal13FormatArgImpl8DispatchIfEEbNS2_4DataENS1_24FormatConversionSpecImplEPv, 
                       __ZN4absl12lts_2021110219str_format_internal13FormatArgImpl8DispatchIhEEbNS2_4DataENS1_24FormatConversionSpecImplEPv, 
                       __ZN4absl12lts_2021110219str_format_internal13FormatArgImpl8DispatchIiEEbNS2_4DataENS1_24FormatConversionSpecImplEPv, 
                       __ZN4absl12lts_2021110219str_format_internal13FormatArgImpl8DispatchIjEEbNS2_4DataENS1_24FormatConversionSpecImplEPv, 
                       __ZN4absl12lts_2021110219str_format_internal13FormatArgImpl8DispatchIlEEbNS2_4DataENS1_24FormatConversionSpecImplEPv, 
                       __ZN4absl12lts_2021110219str_format_internal13FormatArgImpl8DispatchImEEbNS2_4DataENS1_24FormatConversionSpecImplEPv, 
                       __ZN4absl12lts_2021110219str_format_internal13FormatArgImpl8DispatchIsEEbNS2_4DataENS1_24FormatConversionSpecImplEPv, 
                       __ZN4absl12lts_2021110219str_format_internal13FormatArgImpl8DispatchItEEbNS2_4DataENS1_24FormatConversionSpecImplEPv, 
                       __ZN4absl12lts_2021110219str_format_internal13FormatArgImpl8DispatchIxEEbNS2_4DataENS1_24FormatConversionSpecImplEPv, 
                       __ZN4absl12lts_2021110219str_format_internal13FormatArgImpl8DispatchIyEEbNS2_4DataENS1_24FormatConversionSpecImplEPv, 
                       __ZN4absl12lts_2021110219str_format_internal17FormatConvertImplIbLi0EEENS1_16ArgConvertResultILNS0_23FormatConversionCharSetE131067EEET_NS1_24FormatConversionSpecImplEPNS1_14FormatSinkImplE, 
                       __ZN4absl12lts_2021110219str_format_internal17ParseFormatStringINS1_16ParsedFormatBase20ParsedFormatConsumerEEEbNS0_11string_viewET_, 
                       __ZN4absl12lts_2021110223inlined_vector_internal14AssignElementsINSt3__19allocatorINS0_15status_internal7PayloadEEENS1_20IteratorValueAdapterIS7_NS3_13move_iteratorIPS6_EEEEEEvNS3_16allocator_traitsIT_E7pointerERT0_NSF_9size_typeE, 
                       __ZN4absl12lts_2021110223inlined_vector_internal15DestroyElementsINSt3__19allocatorINS0_15status_internal7PayloadEEEEEvRNS1_12TypeIdentityIT_E4typeENS3_16allocator_traitsIS9_E7pointerENSE_9size_typeE, 
                       __ZN4absl12lts_2021110223inlined_vector_internal15DestroyElementsINSt3__19allocatorINS0_8SubRangeEEEEEvRNS1_12TypeIdentityIT_E4typeENS3_16allocator_traitsIS8_E7pointerENSD_9size_typeE, 
                       __ZN4absl12lts_2021110223inlined_vector_internal15DestroyElementsINSt3__19allocatorIPKNS0_13cord_internal7CordRepEEEEEvRNS1_12TypeIdentityIT_E4typeENS3_16allocator_traitsISB_E7pointerENSG_9size_typeE, 
                       __ZN4absl12lts_2021110223inlined_vector_internal15DestroyElementsINSt3__19allocatorIPNS0_13cord_internal7CordRepEEEEEvRNS1_12TypeIdentityIT_E4typeENS3_16allocator_traitsISA_E7pointerENSF_9size_typeE, 
                       __ZN4absl12lts_2021110223inlined_vector_internal15DestroyElementsINSt3__19allocatorIiEEEEvRNS1_12TypeIdentityIT_E4typeENS3_16allocator_traitsIS7_E7pointerENSC_9size_typeE, 
                       __ZN4absl12lts_2021110223inlined_vector_internal17ConstructElementsINSt3__19allocatorINS0_15status_internal7PayloadEEENS1_20IteratorValueAdapterIS7_NS3_13move_iteratorIPS6_EEEEEEvRNS1_12TypeIdentityIT_E4typeENS3_16allocator_traitsISE_E7pointerERT0_NSJ_9size_typeE, 
                       __ZN4absl12lts_2021110223inlined_vector_internal17ConstructElementsINSt3__19allocatorINS0_15status_internal7PayloadEEENS1_20IteratorValueAdapterIS7_PKS6_EEEEvRNS1_12TypeIdentityIT_E4typeENS3_16allocator_traitsISD_E7pointerERT0_NSI_9size_typeE, 
                       __ZN4absl12lts_2021110223inlined_vector_internal17ConstructElementsINSt3__19allocatorINS0_8SubRangeEEENS1_20IteratorValueAdapterIS6_NS3_13move_iteratorIPS5_EEEEEEvRNS1_12TypeIdentityIT_E4typeENS3_16allocator_traitsISD_E7pointerERT0_NSI_9size_typeE, 
                       __ZN4absl12lts_2021110223inlined_vector_internal17ConstructElementsINSt3__19allocatorIPKNS0_13cord_internal7CordRepEEENS1_20IteratorValueAdapterIS9_NS3_13move_iteratorIPS8_EEEEEEvRNS1_12TypeIdentityIT_E4typeENS3_16allocator_traitsISG_E7pointerERT0_NSL_9size_typeE, 
                       __ZN4absl12lts_2021110223inlined_vector_internal17ConstructElementsINSt3__19allocatorIPNS0_13cord_internal7CordRepEEENS1_16CopyValueAdapterIS8_EEEEvRNS1_12TypeIdentityIT_E4typeENS3_16allocator_traitsISC_E7pointerERT0_NSH_9size_typeE, 
                       __ZN4absl12lts_2021110223inlined_vector_internal17ConstructElementsINSt3__19allocatorIPNS0_13cord_internal7CordRepEEENS1_20IteratorValueAdapterIS8_NS3_13move_iteratorIPS7_EEEEEEvRNS1_12TypeIdentityIT_E4typeENS3_16allocator_traitsISF_E7pointerERT0_NSK_9size_typeE, 
                       __ZN4absl12lts_2021110223inlined_vector_internal17ConstructElementsINSt3__19allocatorIiEENS1_20IteratorValueAdapterIS5_NS3_13move_iteratorIPiEEEEEEvRNS1_12TypeIdentityIT_E4typeENS3_16allocator_traitsISC_E7pointerERT0_NSH_9size_typeE, 
                       __ZN4absl12lts_2021110223inlined_vector_internal7StorageINS0_15status_internal7PayloadELm1ENSt3__19allocatorIS4_EEE11EmplaceBackIJS4_EEERS4_DpOT_, 
                       __ZN4absl12lts_2021110223inlined_vector_internal7StorageINS0_15status_internal7PayloadELm1ENSt3__19allocatorIS4_EEE15DestroyContentsEv, 
                       __ZN4absl12lts_2021110223inlined_vector_internal7StorageINS0_15status_internal7PayloadELm1ENSt3__19allocatorIS4_EEE15EmplaceBackSlowIJS4_EEERS4_DpOT_, 
                       __ZN4absl12lts_2021110223inlined_vector_internal7StorageINS0_15status_internal7PayloadELm1ENSt3__19allocatorIS4_EEE5EraseEPKS4_SA_, 
                       __ZN4absl12lts_2021110223inlined_vector_internal7StorageINS0_15status_internal7PayloadELm1ENSt3__19allocatorIS4_EEE8InitFromERKS8_, 
                       __ZN4absl12lts_2021110223inlined_vector_internal7StorageINS0_8SubRangeELm47ENSt3__19allocatorIS3_EEE11EmplaceBackIJS3_EEERS3_DpOT_, 
                       __ZN4absl12lts_2021110223inlined_vector_internal7StorageINS0_8SubRangeELm47ENSt3__19allocatorIS3_EEE15EmplaceBackSlowIJS3_EEERS3_DpOT_, 
                       __ZN4absl12lts_2021110223inlined_vector_internal7StorageIPKNS0_13cord_internal7CordRepELm47ENSt3__19allocatorIS6_EEE11EmplaceBackIJRKS6_EEERS6_DpOT_, 
                       __ZN4absl12lts_2021110223inlined_vector_internal7StorageIPKNS0_13cord_internal7CordRepELm47ENSt3__19allocatorIS6_EEE15EmplaceBackSlowIJRKS6_EEERS6_DpOT_, 
                       __ZN4absl12lts_2021110223inlined_vector_internal7StorageIPNS0_13cord_internal7CordRepELm2ENSt3__19allocatorIS5_EEE11EmplaceBackIJRKS5_EEERS5_DpOT_, 
                       __ZN4absl12lts_2021110223inlined_vector_internal7StorageIPNS0_13cord_internal7CordRepELm2ENSt3__19allocatorIS5_EEE15EmplaceBackSlowIJRKS5_EEERS5_DpOT_, 
                       __ZN4absl12lts_2021110223inlined_vector_internal7StorageIPNS0_13cord_internal7CordRepELm47ENSt3__19allocatorIS5_EEE10InitializeINS1_16CopyValueAdapterIS8_EEEEvT_m, 
                       __ZN4absl12lts_2021110223inlined_vector_internal7StorageIPNS0_13cord_internal7CordRepELm47ENSt3__19allocatorIS5_EEE11EmplaceBackIJRKS5_EEERS5_DpOT_, 
                       __ZN4absl12lts_2021110223inlined_vector_internal7StorageIPNS0_13cord_internal7CordRepELm47ENSt3__19allocatorIS5_EEE11EmplaceBackIJS5_EEERS5_DpOT_, 
                       __ZN4absl12lts_2021110223inlined_vector_internal7StorageIPNS0_13cord_internal7CordRepELm47ENSt3__19allocatorIS5_EEE15EmplaceBackSlowIJRKS5_EEERS5_DpOT_, 
                       __ZN4absl12lts_2021110223inlined_vector_internal7StorageIPNS0_13cord_internal7CordRepELm47ENSt3__19allocatorIS5_EEE15EmplaceBackSlowIJS5_EEERS5_DpOT_, 
                       __ZN4absl12lts_2021110223inlined_vector_internal7StorageIiLm47ENSt3__19allocatorIiEEE11EmplaceBackIJRKiEEERiDpOT_, 
                       __ZN4absl12lts_2021110223inlined_vector_internal7StorageIiLm47ENSt3__19allocatorIiEEE15EmplaceBackSlowIJRKiEEERiDpOT_, 
                       __ZN4absl12lts_2021110239AbslInternalInlineVariableHoldernulloptIvE9kInstanceE, 
                       __ZN4absl12lts_2021110240AbslInternalInlineVariableHolderin_placeIvE9kInstanceE, 
                       __ZN4absl12lts_202111024Cord6AppendINSt3__112basic_stringIcNS3_11char_traitsIcEENS3_9allocatorIcEEEELi0EEEvOT_, 
                       __ZN4absl12lts_202111024Cord7PrependINSt3__112basic_stringIcNS3_11char_traitsIcEENS3_9allocatorIcEEEELi0EEEvOT_, 
                       __ZN4absl12lts_202111024CordC1INSt3__112basic_stringIcNS3_11char_traitsIcEENS3_9allocatorIcEEEELi0EEEOT_, 
                       __ZN4absl12lts_202111024CordC2INSt3__112basic_stringIcNS3_11char_traitsIcEENS3_9allocatorIcEEEELi0EEEOT_, 
                       __ZN4absl12lts_202111029Condition19CastAndCallFunctionIKNSt3__16atomicIbEEEEbPKS1_, 
                       __ZN4absl12lts_202111029Condition19CastAndCallFunctionINS0_10SynchEventEEEbPKS1_, 
                       __ZN4absl12lts_202111029call_onceIRFvvEJEEEvRNS0_9once_flagEOT_DpOT0_, 
                       __ZN4absl12lts_20211102dvIxEENS0_8DurationES2_T_, __ZN4absl12lts_20211102mlIdEENS0_8DurationET_S2_, 
                       __ZN4absl12lts_20211102mlIiEENS0_8DurationET_S2_, __ZN4absl12lts_20211102mlIxEENS0_8DurationET_S2_, 
                       __ZNK4absl12lts_2021110213cord_internal11CordRepRing10FindBinaryILb0EEEjjjm, 
                       __ZNK4absl12lts_2021110213cord_internal11CordRepRing10FindBinaryILb1EEEjjjm, 
                       __ZNK4absl12lts_2021110216strings_internal11BigUnsignedILi4EE4sizeEv, 
                       __ZNK4absl12lts_2021110216strings_internal11BigUnsignedILi4EE5wordsEv, 
                       __ZNK4absl12lts_2021110216strings_internal11BigUnsignedILi4EE7GetWordEi, 
                       __ZNK4absl12lts_2021110216strings_internal11BigUnsignedILi4EE8ToStringEv, 
                       __ZNK4absl12lts_2021110216strings_internal11BigUnsignedILi84EE4sizeEv, 
                       __ZNK4absl12lts_2021110216strings_internal11BigUnsignedILi84EE5wordsEv, 
                       __ZNK4absl12lts_2021110216strings_internal11BigUnsignedILi84EE7GetWordEi, 
                       __ZNK4absl12lts_2021110216strings_internal11BigUnsignedILi84EE8ToStringEv, 
                       __ZNKSt3__115basic_stringbufIcNS_11char_traitsIcEENS_9allocatorIcEEE3strEv, 
                       __ZNKSt3__16vectorIN4absl12lts_2021110213time_internal4cctz10TransitionENS_9allocatorIS5_EEE8max_sizeEv, 
                       __ZNKSt3__16vectorIN4absl12lts_2021110213time_internal4cctz14TransitionTypeENS_9allocatorIS5_EEE8max_sizeEv, 
                       __ZNKSt3__16vectorIN4absl12lts_2021110216strings_internal18ViableSubstitutionENS_9allocatorIS4_EEE8max_sizeEv, 
                       __ZNKSt3__16vectorIN4absl12lts_2021110219str_format_internal13FormatArgImplENS_9allocatorIS4_EEE8max_sizeEv, 
                       __ZNKSt3__16vectorIN4absl12lts_2021110219str_format_internal16ParsedFormatBase14ConversionItemENS_9allocatorIS5_EEE8max_sizeEv, 
                       __ZNKSt3__16vectorINS_4pairIdmEENS_9allocatorIS2_EEE8max_sizeEv, 
                       __ZNKSt3__16vectorIPKN4absl12lts_2021110213cord_internal11CordzHandleENS_9allocatorIS6_EEE8max_sizeEv, 
                       __ZNKSt3__16vectorIPN4absl12lts_2021110213cord_internal11CordzHandleENS_9allocatorIS5_EEE8max_sizeEv, 
                       __ZNKSt3__16vectorIPN4absl12lts_2021110213cord_internal7CordRepENS_9allocatorIS5_EEE8max_sizeEv, 
                       __ZNKSt3__16vectorIcNS_9allocatorIcEEE8max_sizeEv, __ZNKSt3__16vectorIjNS_9allocatorIjEEE8max_sizeEv, 
                       __ZNKSt3__16vectorImNS_9allocatorImEEE8max_sizeEv, __ZNKSt3__18functionIFNS_10unique_ptrIN4absl12lts_2021110213time_internal4cctz14ZoneInfoSourceENS_14default_deleteIS6_EEEERKNS_12basic_stringIcNS_11char_traitsIcEENS_9allocatorIcEEEEEEclESH_, 
                       __ZNSt3__112__deque_baseIPKN4absl12lts_2021110213time_internal4cctz9time_zone4ImplENS_9allocatorIS8_EEE3endEv, 
                       __ZNSt3__112__hash_tableINS_17__hash_value_typeINS_12basic_stringIcNS_11char_traitsIcEENS_9allocatorIcEEEEPKN4absl12lts_2021110213time_internal4cctz9time_zone4ImplEEENS_22__unordered_map_hasherIS7_SG_NS_4hashIS7_EENS_8equal_toIS7_EELb1EEENS_21__unordered_map_equalIS7_SG_SL_SJ_Lb1EEENS5_ISG_EEE11__do_rehashILb1EEEvm, 
                       __ZNSt3__112__hash_tableINS_17__hash_value_typeINS_12basic_stringIcNS_11char_traitsIcEENS_9allocatorIcEEEEPKN4absl12lts_2021110213time_internal4cctz9time_zone4ImplEEENS_22__unordered_map_hasherIS7_SG_NS_4hashIS7_EENS_8equal_toIS7_EELb1EEENS_21__unordered_map_equalIS7_SG_SL_SJ_Lb1EEENS5_ISG_EEE17__deallocate_nodeEPNS_16__hash_node_baseIPNS_11__hash_nodeISG_PvEEEE, 
                       __ZNSt3__112__hash_tableINS_17__hash_value_typeINS_12basic_stringIcNS_11char_traitsIcEENS_9allocatorIcEEEEPKN4absl12lts_2021110213time_internal4cctz9time_zone4ImplEEENS_22__unordered_map_hasherIS7_SG_NS_4hashIS7_EENS_8equal_toIS7_EELb1EEENS_21__unordered_map_equalIS7_SG_SL_SJ_Lb1EEENS5_ISG_EEE21__construct_node_hashIRKNS_21piecewise_construct_tEJNS_5tupleIJRKS7_EEENSV_IJEEEEEENS_10unique_ptrINS_11__hash_nodeISG_PvEENS_22__hash_node_destructorINS5_IS13_EEEEEEmOT_DpOT0_, 
                       __ZNSt3__112__hash_tableINS_17__hash_value_typeINS_12basic_stringIcNS_11char_traitsIcEENS_9allocatorIcEEEEPKN4absl12lts_2021110213time_internal4cctz9time_zone4ImplEEENS_22__unordered_map_hasherIS7_SG_NS_4hashIS7_EENS_8equal_toIS7_EELb1EEENS_21__unordered_map_equalIS7_SG_SL_SJ_Lb1EEENS5_ISG_EEE25__emplace_unique_key_argsIS7_JRKNS_21piecewise_construct_tENS_5tupleIJRKS7_EEENSV_IJEEEEEENS_4pairINS_15__hash_iteratorIPNS_11__hash_nodeISG_PvEEEEbEERKT_DpOT0_, 
                       __ZNSt3__112__hash_tableINS_17__hash_value_typeINS_12basic_stringIcNS_11char_traitsIcEENS_9allocatorIcEEEEPKN4absl12lts_2021110213time_internal4cctz9time_zone4ImplEEENS_22__unordered_map_hasherIS7_SG_NS_4hashIS7_EENS_8equal_toIS7_EELb1EEENS_21__unordered_map_equalIS7_SG_SL_SJ_Lb1EEENS5_ISG_EEE4findIS7_EENS_15__hash_iteratorIPNS_11__hash_nodeISG_PvEEEERKT_, 
                       __ZNSt3__112__hash_tableINS_17__hash_value_typeINS_12basic_stringIcNS_11char_traitsIcEENS_9allocatorIcEEEEPKN4absl12lts_2021110213time_internal4cctz9time_zone4ImplEEENS_22__unordered_map_hasherIS7_SG_NS_4hashIS7_EENS_8equal_toIS7_EELb1EEENS_21__unordered_map_equalIS7_SG_SL_SJ_Lb1EEENS5_ISG_EEE5clearEv, 
                       __ZNSt3__112__hash_tableINS_17__hash_value_typeINS_12basic_stringIcNS_11char_traitsIcEENS_9allocatorIcEEEEPKN4absl12lts_2021110213time_internal4cctz9time_zone4ImplEEENS_22__unordered_map_hasherIS7_SG_NS_4hashIS7_EENS_8equal_toIS7_EELb1EEENS_21__unordered_map_equalIS7_SG_SL_SJ_Lb1EEENS5_ISG_EEE8__rehashILb1EEEvm, 
                       __ZNSt3__112__hash_tableIiNS_4hashIiEENS_8equal_toIiEENS_9allocatorIiEEE11__do_rehashILb1EEEvm, 
                       __ZNSt3__112__hash_tableIiNS_4hashIiEENS_8equal_toIiEENS_9allocatorIiEEE17__deallocate_nodeEPNS_16__hash_node_baseIPNS_11__hash_nodeIiPvEEEE, 
                       __ZNSt3__112__hash_tableIiNS_4hashIiEENS_8equal_toIiEENS_9allocatorIiEEE21__construct_node_hashIRKiJEEENS_10unique_ptrINS_11__hash_nodeIiPvEENS_22__hash_node_destructorINS5_ISE_EEEEEEmOT_DpOT0_, 
                       __ZNSt3__112__hash_tableIiNS_4hashIiEENS_8equal_toIiEENS_9allocatorIiEEE25__emplace_unique_key_argsIiJRKiEEENS_4pairINS_15__hash_iteratorIPNS_11__hash_nodeIiPvEEEEbEERKT_DpOT0_, 
                       __ZNSt3__112__hash_tableIiNS_4hashIiEENS_8equal_toIiEENS_9allocatorIiEEE8__rehashILb1EEEvm, 
                       __ZNSt3__112__rotate_gcdINS_17_ClassicAlgPolicyEPcEET0_S3_S3_S3_, 
                       __ZNSt3__113basic_filebufIcNS_11char_traitsIcEEE11__read_modeEv, 
                       __ZNSt3__113basic_filebufIcNS_11char_traitsIcEEE12__write_modeEv, 
                       __ZNSt3__113basic_filebufIcNS_11char_traitsIcEEE4openEPKcj, 
                       __ZNSt3__113basic_filebufIcNS_11char_traitsIcEEE5closeEv, 
                       __ZNSt3__113unordered_mapINS_12basic_stringIcNS_11char_traitsIcEENS_9allocatorIcEEEEPKN4absl12lts_2021110213time_internal4cctz9time_zone4ImplENS_4hashIS6_EENS_8equal_toIS6_EENS4_INS_4pairIKS6_SE_EEEEEixERSK_, 
                       __ZNSt3__114__split_bufferIN4absl12lts_2021110213time_internal4cctz10TransitionERNS_9allocatorIS5_EEE12emplace_backIJEEEvDpOT_, 
                       __ZNSt3__114__split_bufferIN4absl12lts_2021110213time_internal4cctz10TransitionERNS_9allocatorIS5_EEE18__construct_at_endEm, 
                       __ZNSt3__114__split_bufferIN4absl12lts_2021110213time_internal4cctz10TransitionERNS_9allocatorIS5_EEE18__construct_at_endINS_13move_iteratorIPS5_EEEENS_9enable_ifIXsr27__is_cpp17_forward_iteratorIT_EE5valueEvE4typeESF_SF_, 
                       __ZNSt3__114__split_bufferIN4absl12lts_2021110213time_internal4cctz14TransitionTypeERNS_9allocatorIS5_EEE12emplace_backIJEEEvDpOT_, 
                       __ZNSt3__114__split_bufferIN4absl12lts_2021110213time_internal4cctz14TransitionTypeERNS_9allocatorIS5_EEE18__construct_at_endEm, 
                       __ZNSt3__114__split_bufferIN4absl12lts_2021110213time_internal4cctz14TransitionTypeERNS_9allocatorIS5_EEE18__construct_at_endINS_13move_iteratorIPS5_EEEENS_9enable_ifIXsr27__is_cpp17_forward_iteratorIT_EE5valueEvE4typeESF_SF_, 
                       __ZNSt3__114__split_bufferIPPKN4absl12lts_2021110213time_internal4cctz9time_zone4ImplENS_9allocatorIS9_EEE10push_frontEOS9_, 
                       __ZNSt3__114__split_bufferIPPKN4absl12lts_2021110213time_internal4cctz9time_zone4ImplENS_9allocatorIS9_EEE9push_backEOS9_, 
                       __ZNSt3__114__split_bufferIPPKN4absl12lts_2021110213time_internal4cctz9time_zone4ImplERNS_9allocatorIS9_EEE10push_frontERKS9_, 
                       __ZNSt3__114__split_bufferIPPKN4absl12lts_2021110213time_internal4cctz9time_zone4ImplERNS_9allocatorIS9_EEE18__construct_at_endINS_13move_iteratorIPS9_EEEENS_9enable_ifIXsr27__is_cpp17_forward_iteratorIT_EE5valueEvE4typeESJ_SJ_, 
                       __ZNSt3__114__split_bufferIPPKN4absl12lts_2021110213time_internal4cctz9time_zone4ImplERNS_9allocatorIS9_EEE9push_backEOS9_, 
                       __ZNSt3__114__split_bufferIcRNS_9allocatorIcEEE18__construct_at_endEm, 
                       __ZNSt3__124__put_character_sequenceIcNS_11char_traitsIcEEEERNS_13basic_ostreamIT_T0_EES7_PKS4_m, 
                       __ZNSt3__15dequeIPKN4absl12lts_2021110213time_internal4cctz9time_zone4ImplENS_9allocatorIS8_EEE19__add_back_capacityEv, 
                       __ZNSt3__15dequeIPKN4absl12lts_2021110213time_internal4cctz9time_zone4ImplENS_9allocatorIS8_EEE9push_backERKS8_, 
                       __ZNSt3__16vectorIN4absl12lts_2021110213time_internal4cctz10TransitionENS_9allocatorIS5_EEE12__move_rangeEPS5_S9_S9_, 
                       __ZNSt3__16vectorIN4absl12lts_2021110213time_internal4cctz10TransitionENS_9allocatorIS5_EEE13shrink_to_fitEv, 
                       __ZNSt3__16vectorIN4absl12lts_2021110213time_internal4cctz10TransitionENS_9allocatorIS5_EEE18__construct_at_endEm, 
                       __ZNSt3__16vectorIN4absl12lts_2021110213time_internal4cctz10TransitionENS_9allocatorIS5_EEE26__swap_out_circular_bufferERNS_14__split_bufferIS5_RS7_EE, 
                       __ZNSt3__16vectorIN4absl12lts_2021110213time_internal4cctz10TransitionENS_9allocatorIS5_EEE26__swap_out_circular_bufferERNS_14__split_bufferIS5_RS7_EEPS5_, 
                       __ZNSt3__16vectorIN4absl12lts_2021110213time_internal4cctz10TransitionENS_9allocatorIS5_EEE6resizeEm, 
                       __ZNSt3__16vectorIN4absl12lts_2021110213time_internal4cctz10TransitionENS_9allocatorIS5_EEE7emplaceIJEEENS_11__wrap_iterIPS5_EENSA_IPKS5_EEDpOT_, 
                       __ZNSt3__16vectorIN4absl12lts_2021110213time_internal4cctz10TransitionENS_9allocatorIS5_EEE7reserveEm, 
                       __ZNSt3__16vectorIN4absl12lts_2021110213time_internal4cctz10TransitionENS_9allocatorIS5_EEE8__appendEm, 
                       __ZNSt3__16vectorIN4absl12lts_2021110213time_internal4cctz14TransitionTypeENS_9allocatorIS5_EEE12__move_rangeEPS5_S9_S9_, 
                       __ZNSt3__16vectorIN4absl12lts_2021110213time_internal4cctz14TransitionTypeENS_9allocatorIS5_EEE18__construct_at_endEm, 
                       __ZNSt3__16vectorIN4absl12lts_2021110213time_internal4cctz14TransitionTypeENS_9allocatorIS5_EEE26__swap_out_circular_bufferERNS_14__split_bufferIS5_RS7_EE, 
                       __ZNSt3__16vectorIN4absl12lts_2021110213time_internal4cctz14TransitionTypeENS_9allocatorIS5_EEE26__swap_out_circular_bufferERNS_14__split_bufferIS5_RS7_EEPS5_, 
                       __ZNSt3__16vectorIN4absl12lts_2021110213time_internal4cctz14TransitionTypeENS_9allocatorIS5_EEE6resizeEm, 
                       __ZNSt3__16vectorIN4absl12lts_2021110213time_internal4cctz14TransitionTypeENS_9allocatorIS5_EEE7emplaceIJEEENS_11__wrap_iterIPS5_EENSA_IPKS5_EEDpOT_, 
                       __ZNSt3__16vectorIN4absl12lts_2021110213time_internal4cctz14TransitionTypeENS_9allocatorIS5_EEE7reserveEm, 
                       __ZNSt3__16vectorIN4absl12lts_2021110213time_internal4cctz14TransitionTypeENS_9allocatorIS5_EEE8__appendEm, 
                       __ZNSt3__16vectorIN4absl12lts_2021110216strings_internal18ViableSubstitutionENS_9allocatorIS4_EEE26__swap_out_circular_bufferERNS_14__split_bufferIS4_RS6_EE, 
                       __ZNSt3__16vectorIN4absl12lts_2021110216strings_internal18ViableSubstitutionENS_9allocatorIS4_EEE7reserveEm, 
                       __ZNSt3__16vectorIN4absl12lts_2021110219str_format_internal13FormatArgImplENS_9allocatorIS4_EEE13__vdeallocateEv, 
                       __ZNSt3__16vectorIN4absl12lts_2021110219str_format_internal13FormatArgImplENS_9allocatorIS4_EEE18__construct_at_endIPKS4_EENS_9enable_ifIXsr27__is_cpp17_forward_iteratorIT_EE5valueEvE4typeESC_SC_m, 
                       __ZNSt3__16vectorIN4absl12lts_2021110219str_format_internal13FormatArgImplENS_9allocatorIS4_EEE6assignIPKS4_EENS_9enable_ifIXaasr27__is_cpp17_forward_iteratorIT_EE5valuesr16is_constructibleIS4_NS_15iterator_traitsISC_E9referenceEEE5valueEvE4typeESC_SC_, 
                       __ZNSt3__16vectorIN4absl12lts_2021110219str_format_internal16ParsedFormatBase14ConversionItemENS_9allocatorIS5_EEE26__swap_out_circular_bufferERNS_14__split_bufferIS5_RS7_EE, 
                       __ZNSt3__16vectorINS_4pairIdmEENS_9allocatorIS2_EEE26__swap_out_circular_bufferERNS_14__split_bufferIS2_RS4_EE, 
                       __ZNSt3__16vectorINS_4pairIdmEENS_9allocatorIS2_EEE7reserveEm, 
                       __ZNSt3__16vectorIPKN4absl12lts_2021110213cord_internal11CordzHandleENS_9allocatorIS6_EEE26__swap_out_circular_bufferERNS_14__split_bufferIS6_RS8_EE, 
                       __ZNSt3__16vectorIPN4absl12lts_2021110213cord_internal11CordzHandleENS_9allocatorIS5_EEE26__swap_out_circular_bufferERNS_14__split_bufferIS5_RS7_EE, 
                       __ZNSt3__16vectorIPN4absl12lts_2021110213cord_internal7CordRepENS_9allocatorIS5_EEE18__construct_at_endIPKS5_EENS_9enable_ifIXsr27__is_cpp17_forward_iteratorIT_EE5valueEvE4typeESD_SD_m, 
                       __ZNSt3__16vectorIPN4absl12lts_2021110213cord_internal7CordRepENS_9allocatorIS5_EEE26__swap_out_circular_bufferERNS_14__split_bufferIS5_RS7_EE, 
                       __ZNSt3__16vectorIcNS_9allocatorIcEEE18__construct_at_endEm, 
                       __ZNSt3__16vectorIcNS_9allocatorIcEEE26__swap_out_circular_bufferERNS_14__split_bufferIcRS2_EE, 
                       __ZNSt3__16vectorIcNS_9allocatorIcEEE6resizeEm, __ZNSt3__16vectorIcNS_9allocatorIcEEE8__appendEm, 
                       __ZNSt3__16vectorIjNS_9allocatorIjEEE18__construct_at_endEm, 
                       __ZNSt3__16vectorIjNS_9allocatorIjEEE26__swap_out_circular_bufferERNS_14__split_bufferIjRS2_EE, 
                       __ZNSt3__16vectorImNS_9allocatorImEEE26__swap_out_circular_bufferERNS_14__split_bufferImRS2_EE, 
                       __ZNSt3__17__mergeIRNS_6__lessIiiEEPiS4_S4_EET2_T0_S6_T1_S7_S5_T_, 
                       __ZNSt3__17getlineIcNS_11char_traitsIcEENS_9allocatorIcEEEERNS_13basic_istreamIT_T0_EES9_RNS_12basic_stringIS6_S7_T1_EES6_, 
                       __ZNSt3__18seed_seq6__initIPjEEvT_S3_, __ZNSt3__1lsINS_11char_traitsIcEEEERNS_13basic_ostreamIcT_EES6_PKc, 
                       __ZNSt3__1lsINS_11char_traitsIcEEEERNS_13basic_ostreamIcT_EES6_c, 
                       __ZNSt3__1lsIcNS_11char_traitsIcEENS_9allocatorIcEEEERNS_13basic_ostreamIT_T0_EES9_RKNS_12basic_stringIS6_S7_T1_EE, 
                       __ZZN4absl12lts_2021110213base_internal12CallOnceImplIRFvvEJEEEvPNSt3__16atomicIjEENS1_14SchedulingModeEOT_DpOT0_E5trans ]
    thread-local-symbols: [ __ZN4absl12lts_2021110213base_internal19thread_identity_ptrE ]
...
