--- !tapi-tbd
tbd-version:     4
targets:         [ arm64-macos ]
flags:           [ not_app_extension_safe ]
install-name:    '@rpath/grpc.framework/Versions/A/grpc'
exports:
  - targets:         [ arm64-macos ]
    symbols:         [ __Z10gpr_getenvPKc, __Z10gpr_setenvPKcS0_, __Z10grpc_htonlj, 
                       __Z10grpc_htonst, __Z10grpc_ntohlj, __Z10grpc_ntohst, __Z10int64_ttoaxPc, 
                       __Z11gpr_leftpadPKccm, __Z11gpr_memrchrPKvim, __Z11gpr_stricmpPKcS0_, 
                       __Z11gpr_strjoinPPKcmPm, __Z11gpr_tmpfilePKcPPc, __Z11grpc_tcp_fdP13grpc_endpoint, 
                       __Z12gpr_strincmpPKcS0_m, __Z12gpr_unsetenvPKc, __Z12grpc_accept4iP21grpc_resolved_addressii, 
                       __Z12grpc_preforkv, __Z12pcre_compilePKciPS0_PiPKh, __Z13CFStreamPhonyv, 
                       __Z13grpc_os_errorPKciiS0_, __Z13grpc_strhtonsPKc, __Z13pcre_fullinfoPK4pcrePK10pcre_extraiPv, 
                       __Z14grpc_cq_end_opP21grpc_completion_queuePvP10grpc_errorPFvS1_P18grpc_cq_completionES1_S5_b, 
                       __Z14grpc_fd_createiPKcb, __Z14grpc_fd_orphanP7grpc_fdP12grpc_closurePiPKc, 
                       __Z14grpc_inet_ntopiPKvPcm, __Z14grpc_inet_ptoniPKcPv, __Z14grpc_load_filePKciP10grpc_slice, 
                       __Z14grpc_log_errorPKcP10grpc_errorS0_i, __Z14grpc_parse_uriRKN9grpc_core3URIEP21grpc_resolved_address, 
                       __Z14tcp_server_refP15grpc_tcp_server, __Z15gpr_default_logP17gpr_log_func_args, 
                       __Z15gpr_strjoin_sepPPKcmS0_Pm, __Z15grpc_cq_pollsetP21grpc_completion_queue, 
                       __Z15grpc_dump_sliceRK10grpc_slicej, __Z15grpc_iomgr_initv, 
                       __Z15grpc_parse_ipv4RKN9grpc_core3URIEP21grpc_resolved_address, 
                       __Z15grpc_parse_ipv6RKN9grpc_core3URIEP21grpc_resolved_address, 
                       __Z15grpc_parse_unixRKN9grpc_core3URIEP21grpc_resolved_address, 
                       __Z15grpc_stats_diffPK15grpc_stats_dataS1_PS_, __Z15grpc_stats_initv, 
                       __Z15grpc_tcp_createP7grpc_fdPK17grpc_channel_argsN4absl12lts_2021110211string_viewE, 
                       __Z15grpc_timer_initP10grpc_timerxP12grpc_closure, __Z16gpr_murmur_hash3PKvmj, 
                       __Z16gpr_string_splitPKcS0_PPPcPm, __Z16grpc_call_createP21grpc_call_create_argsPP9grpc_call, 
                       __Z16grpc_call_log_opPKci16gpr_log_severityP17grpc_call_elementP30grpc_transport_stream_op_batch, 
                       __Z16grpc_cq_begin_opP21grpc_completion_queuePv, __Z16grpc_fd_shutdownP7grpc_fdP10grpc_error, 
                       __Z16grpc_gethostnamev, __Z16grpc_httpcli_getP19grpc_polling_entityN9grpc_core13RefCountedPtrINS1_13ResourceQuotaEEEPK20grpc_httpcli_requestxP12grpc_closureP18grpc_http_response, 
                       __Z16grpc_iomgr_startv, __Z16grpc_kick_pollerv, __Z16grpc_slice_split10grpc_slicePKcP17grpc_slice_buffer, 
                       __Z16grpc_timer_checkPx, __Z16grpc_tracer_initPKc, __Z16grpc_tracer_initv, 
                       __Z17gpr_reverse_bytesPci, __Z17grpc_call_next_opP17grpc_call_elementP30grpc_transport_stream_op_batch, 
                       __Z17grpc_channel_pingP12grpc_channelP21grpc_completion_queuePvS3_, 
                       __Z17grpc_combiner_refPN9grpc_core8CombinerEPKciS3_, __Z17grpc_error_createPKciRK10grpc_slicePP10grpc_errorm, 
                       __Z17grpc_error_do_refP10grpc_errorPKci, __Z17grpc_error_stringP10grpc_error, 
                       __Z17grpc_event_stringP10grpc_event, __Z17grpc_fd_set_errorP7grpc_fd, 
                       __Z17grpc_httpcli_postP19grpc_polling_entityN9grpc_core13RefCountedPtrINS1_13ResourceQuotaEEEPK20grpc_httpcli_requestPKcmxP12grpc_closureP18grpc_http_response, 
                       __Z17grpc_msg_compress26grpc_compression_algorithmP17grpc_slice_bufferS1_, 
                       __Z17grpc_pollset_initP12grpc_pollsetPP23_opaque_pthread_mutex_t, 
                       __Z17grpc_pollset_kickP12grpc_pollsetP19grpc_pollset_worker, 
                       __Z17grpc_pollset_sizev, __Z17grpc_pollset_workP12grpc_pollsetPP19grpc_pollset_workerx, 
                       __Z17grpc_timer_cancelP10grpc_timer, __Z17increment_counterP28alts_record_protocol_crypterPPc, 
                       __Z17tsi_peer_destructP8tsi_peer, __Z18grpc_base64_decodePKci, 
                       __Z18grpc_base64_encodePKvmii, __Z18grpc_cq_can_listenP21grpc_completion_queue, 
                       __Z18grpc_endpoint_readP13grpc_endpointP17grpc_slice_bufferP12grpc_closureb, 
                       __Z18grpc_error_get_intP10grpc_error15grpc_error_intsPl, __Z18grpc_error_get_strP10grpc_error15grpc_error_strsPNSt3__112basic_stringIcNS2_11char_traitsIcEENS2_9allocatorIcEEEE, 
                       __Z18grpc_error_set_intP10grpc_error15grpc_error_intsl, __Z18grpc_error_set_strP10grpc_error15grpc_error_strsN4absl12lts_2021110211string_viewE, 
                       __Z18grpc_fd_wrapped_fdP7grpc_fd, __Z18grpc_has_wakeup_fdv, 
                       __Z18grpc_jwt_claims_idPK15grpc_jwt_claims, __Z18grpc_stats_collectP15grpc_stats_data, 
                       __Z18input_sanity_checkPK28alts_record_protocol_crypterPKhPmPPc, 
                       __Z18tsi_construct_peermP8tsi_peer, __Z19alts_counter_createbmmPP12alts_counterPPc, 
                       __Z19gpr_dump_return_lenPKcmjPm, __Z19gpr_format_timespec12gpr_timespec, 
                       __Z19grpc_call_get_arenaP9grpc_call, __Z19grpc_call_is_clientP9grpc_call, 
                       __Z19grpc_call_log_batchPKci16gpr_log_severityPK7grpc_opm, 
                       __Z19grpc_channel_createPKcPK17grpc_channel_args23grpc_channel_stack_typeP14grpc_transportPP10grpc_error, 
                       __Z19grpc_combiner_unrefPN9grpc_core8CombinerEPKciS3_, __Z19grpc_cq_global_initv, 
                       __Z19grpc_endpoint_writeP13grpc_endpointP17grpc_slice_bufferP12grpc_closurePv, 
                       __Z19grpc_error_do_unrefP10grpc_errorPKci, __Z19grpc_fd_is_shutdownP7grpc_fd, 
                       __Z19grpc_if_nametoindexPc, __Z19grpc_iomgr_shutdownv, __Z19grpc_is_unix_socketPK21grpc_resolved_address, 
                       __Z19grpc_msg_decompress26grpc_compression_algorithmP17grpc_slice_bufferS1_, 
                       __Z19grpc_pollset_add_fdP12grpc_pollsetP7grpc_fd, __Z19grpc_postfork_childv, 
                       __Z19grpc_set_timer_implP17grpc_timer_vtable, __Z19grpc_ssl_check_alpnPK8tsi_peer, 
                       __Z19grpc_stats_shutdownv, __Z19grpc_stream_destroyP20grpc_stream_refcount, 
                       __Z19grpc_tcp_posix_initv, __Z19grpc_tcp_server_refP15grpc_tcp_server, 
                       __Z19grpc_timer_heap_addP15grpc_timer_heapP10grpc_timer, __Z19grpc_timer_heap_popP15grpc_timer_heap, 
                       __Z19grpc_timer_heap_topP15grpc_timer_heap, __Z19grpc_wakeup_fd_initP14grpc_wakeup_fd, 
                       __Z19pollset_global_initv, __Z19tsi_handshaker_nextP14tsi_handshakerPKhmPS2_PmPP21tsi_handshaker_resultPFv10tsi_resultPvS2_mS6_ES9_, 
                       __Z20alts_counter_destroyP12alts_counter, __Z20alts_crypter_destroyP12alts_crypter, 
                       __Z20gpr_parse_bool_valuePKcPb, __Z20grpc_call_stack_initP18grpc_channel_stackiPFvPvP10grpc_errorES1_PK22grpc_call_element_args, 
                       __Z20grpc_channel_next_opP20grpc_channel_elementP17grpc_transport_op, 
                       __Z20grpc_chttp2_ack_pingP21grpc_chttp2_transporty, __Z20grpc_combiner_createv, 
                       __Z20grpc_cq_internal_refP21grpc_completion_queuePKcS2_i, 
                       __Z20grpc_endpoint_get_fdP13grpc_endpoint, __Z20grpc_error_add_childP10grpc_errorS0_, 
                       __Z20grpc_fd_set_readableP7grpc_fd, __Z20grpc_fd_set_writableP7grpc_fd, 
                       __Z20grpc_get_cq_poll_numP21grpc_completion_queue, __Z20grpc_http_parser_eofP16grpc_http_parser, 
                       __Z20grpc_init_poll_posixb, __Z20grpc_jwt_claims_jsonPK15grpc_jwt_claims, 
                       __Z20grpc_pollset_destroyP12grpc_pollset, __Z20grpc_postfork_parentv, 
                       __Z20grpc_sockaddr_to_uriPK21grpc_resolved_address, __Z20grpc_stream_ref_initP20grpc_stream_refcountiPFvPvP10grpc_errorES1_PKc, 
                       __Z20grpc_timer_heap_initP15grpc_timer_heap, __Z20grpc_timer_list_initv, 
                       __Z20grpc_tracer_shutdownv, __Z20slice_stream_destroyPv, __Z20tsi_result_to_string10tsi_result, 
                       __Z21alts_counter_get_sizeP12alts_counter, __Z21alts_read_frame_bytesP17alts_frame_readerPKhPm, 
                       __Z21gpr_cycle_counter_subdd, __Z21gpr_get_cycle_counterv, 
                       __Z21gpr_precise_clock_nowP12gpr_timespec, __Z21gpr_timer_set_enabledi, 
                       __Z21grpc_call_context_getP9grpc_call18grpc_context_index, 
                       __Z21grpc_call_context_setP9grpc_call18grpc_context_indexPvPFvS2_E, 
                       __Z21grpc_chttp2_end_writeP21grpc_chttp2_transportP10grpc_error, 
                       __Z21grpc_endpoint_destroyP13grpc_endpoint, __Z21grpc_error_get_statusP10grpc_errorxP16grpc_status_codePNSt3__112basic_stringIcNS3_11char_traitsIcEENS3_9allocatorIcEEEEP21grpc_http2_error_codePPKc, 
                       __Z21grpc_error_std_stringP10grpc_error, __Z21grpc_http_parser_initP16grpc_http_parser14grpc_http_typePv, 
                       __Z21grpc_jwt_claims_checkPK15grpc_jwt_claimsPKc, __Z21grpc_pollset_shutdownP12grpc_pollsetP12grpc_closure, 
                       __Z21grpc_slice_sub_no_refRKN9grpc_core20UnmanagedMemorySliceEmm, 
                       __Z21grpc_tcp_server_startP15grpc_tcp_serverPKNSt3__16vectorIP12grpc_pollsetNS1_9allocatorIS4_EEEEPFvPvP13grpc_endpointS4_P24grpc_tcp_server_acceptorESA_, 
                       __Z21grpc_tcp_server_unrefP15grpc_tcp_server, __Z21grpc_timer_init_unsetP10grpc_timer, 
                       __Z21grpc_wakeup_fd_wakeupP14grpc_wakeup_fd, __Z22alts_counter_incrementP12alts_counterPbPPc, 
                       __Z22alts_get_output_bufferP17alts_frame_reader, __Z22alts_write_frame_bytesP17alts_frame_writerPhPm, 
                       __Z22gpr_precise_clock_initv, __Z22gpr_timers_global_initv, 
                       __Z22grpc_call_internal_refP9grpc_callPKc, __Z22grpc_channel_args_copyPK17grpc_channel_args, 
                       __Z22grpc_channel_args_findPK17grpc_channel_argsPKc, __Z22grpc_chttp2_stream_refP18grpc_chttp2_streamPKc, 
                       __Z22grpc_cq_internal_unrefP21grpc_completion_queuePKcS2_i, 
                       __Z22grpc_custom_iomgr_initP18grpc_socket_vtableP27grpc_custom_resolver_vtableP24grpc_custom_timer_vtableP25grpc_custom_poller_vtable, 
                       __Z22grpc_custom_timer_initP24grpc_custom_timer_vtable, __Z22grpc_endpoint_get_peerP13grpc_endpoint, 
                       __Z22grpc_endpoint_shutdownP13grpc_endpointP10grpc_error, 
                       __Z22grpc_event_engine_initv, __Z22grpc_fd_notify_on_readP7grpc_fdP12grpc_closure, 
                       __Z22grpc_http_parser_parseP16grpc_http_parserRK10grpc_slicePm, 
                       __Z22grpc_init_epoll1_linuxb, __Z22grpc_jwt_claims_issuerPK15grpc_jwt_claims, 
                       __Z22grpc_make_transport_opP12grpc_closure, __Z22grpc_resolver_xds_initv, 
                       __Z22grpc_security_pre_initv, __Z22grpc_set_socket_rcvbufii, 
                       __Z22grpc_set_socket_sndbufii, __Z22grpc_shutdown_internalPv, 
                       __Z22grpc_slice_intern_initv, __Z22grpc_sockaddr_get_portPK21grpc_resolved_address, 
                       __Z22grpc_sockaddr_set_portP21grpc_resolved_addressi, __Z22grpc_stats_histo_countPK15grpc_stats_data21grpc_stats_histograms, 
                       __Z22grpc_tcp_server_createP12grpc_closurePK17grpc_channel_argsPP15grpc_tcp_server, 
                       __Z22grpc_timer_heap_removeP15grpc_timer_heapP10grpc_timer, 
                       __Z22grpc_transport_destroyP14grpc_transport, __Z22grpc_wakeup_fd_destroyP14grpc_wakeup_fd, 
                       __Z22tsi_handshaker_destroyP14tsi_handshaker, __Z22tsi_init_peer_propertyv, 
                       __Z23alts_reset_frame_readerP17alts_frame_readerPh, __Z23alts_reset_frame_writerP17alts_frame_writerPKhm, 
                       __Z23get_message_size_limitsPK17grpc_channel_args, __Z23grpc_base64_encode_corePcPKvmii, 
                       __Z23grpc_call_stack_destroyP15grpc_call_stackPK20grpc_call_final_infoP12grpc_closure, 
                       __Z23grpc_call_stack_elementP15grpc_call_stackm, __Z23grpc_channel_args_unionPK17grpc_channel_argsS1_, 
                       __Z23grpc_channel_stack_initiPFvPvP10grpc_errorES_PPK19grpc_channel_filtermPK17grpc_channel_argsP14grpc_transportPKcP18grpc_channel_stack, 
                       __Z23grpc_channel_stack_sizePPK19grpc_channel_filterm, __Z23grpc_chttp2_begin_writeP21grpc_chttp2_transport, 
                       __Z23grpc_chttp2_encode_datajP17grpc_slice_bufferjiP28grpc_transport_one_way_statsS0_, 
                       __Z23grpc_chttp2_fake_statusP21grpc_chttp2_transportP18grpc_chttp2_streamP10grpc_error, 
                       __Z23grpc_chttp2_ping_createhy, __Z23grpc_chttp2_plugin_initv, 
                       __Z23grpc_fd_notify_on_errorP7grpc_fdP12grpc_closure, __Z23grpc_fd_notify_on_writeP7grpc_fdP12grpc_closure, 
                       __Z23grpc_init_epollex_linuxb, __Z23grpc_jwt_claims_destroyP15grpc_jwt_claims, 
                       __Z23grpc_jwt_claims_subjectPK15grpc_jwt_claims, __Z23grpc_lb_policy_cds_initv, 
                       __Z23grpc_millis_to_timespecx14gpr_clock_type, __Z23grpc_pollset_set_add_fdP16grpc_pollset_setP7grpc_fd, 
                       __Z23grpc_pollset_set_createv, __Z23grpc_pollset_set_del_fdP16grpc_pollset_setP7grpc_fd, 
                       __Z23grpc_resolver_fake_initv, __Z23grpc_set_pollset_vtableP19grpc_pollset_vtable, 
                       __Z23grpc_set_socket_cloexecii, __Z23grpc_slice_memory_usage10grpc_slice, 
                       __Z23grpc_sockaddr_mask_bitsP21grpc_resolved_addressj, __Z23grpc_sockaddr_to_stringPK21grpc_resolved_addressb, 
                       __Z23grpc_socket_factory_refP19grpc_socket_factory, __Z23grpc_socket_mutator_refP19grpc_socket_mutator, 
                       __Z23grpc_stats_data_as_jsonPK15grpc_stats_data, __Z23grpc_string_to_sockaddrP21grpc_resolved_addressPKci, 
                       __Z23grpc_tcp_client_connectP12grpc_closurePP13grpc_endpointP16grpc_pollset_setPK17grpc_channel_argsPK21grpc_resolved_addressx, 
                       __Z23grpc_tcp_posix_shutdownv, __Z23grpc_tcp_server_port_fdP15grpc_tcp_serverjj, 
                       __Z23grpc_timer_consume_kickv, __Z23grpc_timer_heap_destroyP15grpc_timer_heap, 
                       __Z23grpc_timer_manager_initv, __Z23grpc_timer_manager_tickv, 
                       __Z23grpc_transport_set_popsP14grpc_transportP11grpc_streamP19grpc_polling_entity, 
                       __Z23pollset_global_shutdownv, __Z23probe_so_reuseport_oncev, 
                       __Z23tsi_handshaker_shutdownP14tsi_handshaker, __Z23verifier_cb_ctx_destroyP15verifier_cb_ctx, 
                       __Z24alts_counter_get_counterP12alts_counter, __Z24alts_create_frame_readerv, 
                       __Z24alts_create_frame_writerv, __Z24alts_seal_crypter_createP17gsec_aead_crypterbmPP12alts_crypterPPc, 
                       __Z24grpc_auth_context_to_argP17grpc_auth_context, __Z24grpc_auth_property_resetP18grpc_auth_property, 
                       __Z24grpc_call_get_call_stackP9grpc_call, __Z24grpc_call_internal_unrefP9grpc_callPKc, 
                       __Z24grpc_channel_args_stringPK17grpc_channel_args, __Z24grpc_chttp2_perform_readP21grpc_chttp2_transportRK10grpc_slice, 
                       __Z24grpc_chttp2_stream_unrefP18grpc_chttp2_streamPKc, __Z24grpc_client_channel_initv, 
                       __Z24grpc_custom_pollset_initP25grpc_custom_poller_vtable, 
                       __Z24grpc_dump_slice_to_sliceRK10grpc_slicej, __Z24grpc_get_tsi_tls_version16grpc_tls_version, 
                       __Z24grpc_http_parser_destroyP16grpc_http_parser, __Z24grpc_iomgr_platform_initv, 
                       __Z24grpc_jwt_claims_audiencePK15grpc_jwt_claims, __Z24grpc_jwt_encode_and_signPK18grpc_auth_json_keyPKc12gpr_timespecS3_, 
                       __Z24grpc_jwt_verifier_createPK46grpc_jwt_verifier_email_domain_key_url_mappingm, 
                       __Z24grpc_jwt_verifier_verifyP17grpc_jwt_verifierP12grpc_pollsetPKcS4_PFvPv24grpc_jwt_verifier_statusP15grpc_jwt_claimsES5_, 
                       __Z24grpc_parse_ipv4_hostportN4absl12lts_2021110211string_viewEP21grpc_resolved_addressb, 
                       __Z24grpc_parse_ipv6_hostportN4absl12lts_2021110211string_viewEP21grpc_resolved_addressb, 
                       __Z24grpc_parse_unix_abstractRKN9grpc_core3URIEP21grpc_resolved_address, 
                       __Z24grpc_pollset_global_initv, __Z24grpc_pollset_set_destroyP16grpc_pollset_set, 
                       __Z24grpc_set_socket_zerocopyi, __Z24grpc_set_tcp_client_implP22grpc_tcp_client_vtable, 
                       __Z24grpc_set_tcp_server_implP22grpc_tcp_server_vtable, __Z24grpc_sockaddr_get_familyPK21grpc_resolved_address, 
                       __Z24grpc_socket_factory_bindP19grpc_socket_factoryiPK21grpc_resolved_address, 
                       __Z24grpc_socket_factory_initP19grpc_socket_factoryPK26grpc_socket_factory_vtable, 
                       __Z24grpc_socket_mutator_initP19grpc_socket_mutatorPK26grpc_socket_mutator_vtable, 
                       __Z24grpc_ssl_check_call_hostN4absl12lts_2021110211string_viewES1_S1_P17grpc_auth_contextPP10grpc_error, 
                       __Z24grpc_ssl_check_peer_nameN4absl12lts_2021110211string_viewEPK8tsi_peer, 
                       __Z24grpc_ssl_cmp_target_nameN4absl12lts_2021110211string_viewES1_S1_S1_, 
                       __Z24grpc_tcp_server_add_addrP15grpc_tcp_serverPK21grpc_resolved_addressjjP19grpc_dualstack_modePP17grpc_tcp_listener, 
                       __Z24grpc_tcp_server_add_portP15grpc_tcp_serverPK21grpc_resolved_addressPi, 
                       __Z24grpc_timer_heap_is_emptyP15grpc_timer_heap, __Z24grpc_timer_list_shutdownv, 
                       __Z24grpc_transport_op_stringP17grpc_transport_op, __Z24schedule_bdp_ping_lockedP21grpc_chttp2_transport, 
                       __Z24tcp_server_port_fd_countP15grpc_tcp_serverj, __Z25absl_status_to_grpc_errorN4absl12lts_202111026StatusE, 
                       __Z25alts_destroy_frame_readerP17alts_frame_reader, __Z25alts_destroy_frame_writerP17alts_frame_writer, 
                       __Z25alts_is_frame_reader_doneP17alts_frame_reader, __Z25alts_is_frame_writer_doneP17alts_frame_writer, 
                       __Z25gpr_cycle_counter_to_timed, __Z25gpr_parse_bytes_to_uint32PKcmPj, 
                       __Z25gpr_parse_nonnegative_intPKc, __Z25gpr_should_log_stacktrace16gpr_log_severity, 
                       __Z25gpr_timers_global_destroyv, __Z25grpc_add_connected_filterP26grpc_channel_stack_builder, 
                       __Z25grpc_call_cancel_internalP9grpc_call, __Z25grpc_channel_arg_get_boolPK8grpc_argb, 
                       __Z25grpc_channel_args_comparePK17grpc_channel_argsS1_, __Z25grpc_channel_args_destroyP17grpc_channel_args, 
                       __Z25grpc_check_security_level19grpc_security_levelS_, __Z25grpc_chttp2_base64_decodeRK10grpc_slice, 
                       __Z25grpc_chttp2_base64_encodeRK10grpc_slice, __Z25grpc_chttp2_cancel_streamP21grpc_chttp2_transportP18grpc_chttp2_streamP10grpc_error, 
                       __Z25grpc_chttp2_goaway_appendjjRK10grpc_sliceP17grpc_slice_buffer, 
                       __Z25grpc_custom_endpoint_initP18grpc_socket_vtable, __Z25grpc_deadline_state_resetP17grpc_call_elementx, 
                       __Z25grpc_error_to_absl_statusP10grpc_error, __Z25grpc_http_request_destroyP17grpc_http_request, 
                       __Z25grpc_httpcli_set_overridePFiPK20grpc_httpcli_requestxP12grpc_closureP18grpc_http_responseEPFiS1_PKcmxS3_S5_E, 
                       __Z25grpc_iomgr_abort_on_leaksv, __Z25grpc_iomgr_platform_flushv, 
                       __Z25grpc_jwt_claims_from_jsonN9grpc_core4JsonE, __Z25grpc_jwt_claims_issued_atPK15grpc_jwt_claims, 
                       __Z25grpc_jwt_verifier_destroyP17grpc_jwt_verifier, __Z25grpc_resolver_binder_initv, 
                       __Z25grpc_set_disable_ping_ackb, __Z25grpc_set_socket_dualstacki, 
                       __Z25grpc_set_tsi_error_resultP10grpc_error10tsi_result, __Z25grpc_sockaddr_is_v4mappedPK21grpc_resolved_addressPS_, 
                       __Z25grpc_sockaddr_is_wildcardPK21grpc_resolved_addressPi, 
                       __Z25grpc_sockaddr_to_v4mappedPK21grpc_resolved_addressPS_, 
                       __Z25grpc_socket_factory_unrefP19grpc_socket_factory, __Z25grpc_socket_mutator_unrefP19grpc_socket_mutator, 
                       __Z25grpc_status_code_from_intiP16grpc_status_code, __Z25grpc_transport_move_statsP27grpc_transport_stream_statsS0_, 
                       __Z25grpc_transport_perform_opP14grpc_transportP17grpc_transport_op, 
                       __Z25gsec_aead_crypter_decryptP17gsec_aead_crypterPKhmS2_mS2_mPhmPmPPc, 
                       __Z25gsec_aead_crypter_destroyP17gsec_aead_crypter, __Z25gsec_aead_crypter_encryptP17gsec_aead_crypterPKhmS2_mS2_mPhmPmPPc, 
                       __Z25tsi_handshaker_get_resultP14tsi_handshaker, __Z25tsi_ssl_peer_matches_namePK8tsi_peerN4absl12lts_2021110211string_viewE, 
                       __Z25tsi_ssl_session_cache_refP21tsi_ssl_session_cache, __Z26alts_crypter_create_commonP17gsec_aead_crypterbmPPc, 
                       __Z26alts_get_output_bytes_readP17alts_frame_reader, __Z26alts_has_read_frame_lengthP17alts_frame_reader, 
                       __Z26alts_tsi_handshaker_createPK29grpc_alts_credentials_optionsPKcS3_bP16grpc_pollset_setPP14tsi_handshakerm, 
                       __Z26alts_unseal_crypter_createP17gsec_aead_crypterbmPP12alts_crypterPPc, 
                       __Z26custom_tcp_endpoint_createP18grpc_custom_socketPKc, __Z26grpc_auth_context_from_argPK8grpc_arg, 
                       __Z26grpc_base64_decode_partialP26grpc_base64_decode_context, 
                       __Z26grpc_call_from_top_elementP17grpc_call_element, __Z26grpc_call_is_trailers_onlyPK9grpc_call, 
                       __Z26grpc_channel_next_get_infoP20grpc_channel_elementPK17grpc_channel_info, 
                       __Z26grpc_channel_stack_destroyP18grpc_channel_stack, __Z26grpc_channel_stack_elementP18grpc_channel_stackm, 
                       __Z26grpc_chttp2_initiate_writeP21grpc_chttp2_transport33grpc_chttp2_initiate_write_reason, 
                       __Z26grpc_chttp2_stream_map_addP22grpc_chttp2_stream_mapjPv, 
                       __Z26grpc_custom_timer_callbackP17grpc_custom_timerP10grpc_error, 
                       __Z26grpc_enable_error_creationv, __Z26grpc_event_engine_shutdownv, 
                       __Z26grpc_get_ssl_cipher_suitesv, __Z26grpc_handshake_manager_addPN9grpc_core16HandshakeManagerEPNS_10HandshakerE, 
                       __Z26grpc_http_response_destroyP18grpc_http_response, __Z26grpc_inproc_channel_createP11grpc_serverPK17grpc_channel_argsPv, 
                       __Z26grpc_iomgr_register_objectP17grpc_iomgr_objectPKc, __Z26grpc_jwt_claims_expires_atPK15grpc_jwt_claims, 
                       __Z26grpc_jwt_claims_not_beforePK15grpc_jwt_claims, __Z26grpc_lb_policy_grpclb_initv, 
                       __Z26grpc_parse_slice_to_uint3210grpc_slicePj, __Z26grpc_resolver_xds_shutdownv, 
                       __Z26grpc_set_socket_reuse_addrii, __Z26grpc_set_socket_reuse_portii, 
                       __Z26grpc_shallow_peer_destructP8tsi_peer, __Z26grpc_slice_from_cpp_stringNSt3__112basic_stringIcNS_11char_traitsIcEENS_9allocatorIcEEEE, 
                       __Z26grpc_slice_intern_shutdownv, __Z26grpc_sockaddr_match_subnetPK21grpc_resolved_addressS1_j, 
                       __Z26grpc_socket_factory_socketP19grpc_socket_factoryiii, 
                       __Z26grpc_socket_factory_to_argP19grpc_socket_factory, __Z26grpc_socket_mutator_to_argP19grpc_socket_mutator, 
                       __Z26grpc_ssl_host_matches_namePK8tsi_peerN4absl12lts_2021110211string_viewE, 
                       __Z26grpc_status_code_to_string16grpc_status_code, __Z26grpc_status_to_http2_error16grpc_status_code, 
                       __Z26grpc_tcp_client_prepare_fdPK17grpc_channel_argsPK21grpc_resolved_addressPS2_Pi, 
                       __Z26grpc_transport_init_streamP14grpc_transportP11grpc_streamP20grpc_stream_refcountPKvPN9grpc_core5ArenaE, 
                       __Z26grpc_transport_stream_sizeP14grpc_transport, __Z26grpc_wakeup_fd_global_initv, 
                       __Z26grpc_wire_id_to_setting_idjP22grpc_chttp2_setting_id, 
                       __Z26tsi_create_fake_handshakeri, __Z26tsi_peer_property_destructP17tsi_peer_property, 
                       __Z27alts_create_frame_protectorPKhmbbPmPP19tsi_frame_protector, 
                       __Z27alts_handshaker_client_nextP22alts_handshaker_clientP10grpc_slice, 
                       __Z27gpr_timers_set_log_filenamePKc, __Z27grpc_alts_is_running_on_gcpv, 
                       __Z27grpc_auth_json_key_destructP18grpc_auth_json_key, __Z27grpc_auth_json_key_is_validPK18grpc_auth_json_key, 
                       __Z27grpc_base64_decode_with_lenPKcmi, __Z27grpc_channel_arg_get_stringPK8grpc_arg, 
                       __Z27grpc_channel_args_find_boolPK17grpc_channel_argsPKcb, 
                       __Z27grpc_channel_args_normalizePK17grpc_channel_args, __Z27grpc_chttp2_add_ping_strikeP21grpc_chttp2_transport, 
                       __Z27grpc_chttp2_plugin_shutdownv, __Z27grpc_chttp2_settings_createPjPKjjm, 
                       __Z27grpc_chttp2_stream_map_findP22grpc_chttp2_stream_mapj, 
                       __Z27grpc_chttp2_stream_map_initP22grpc_chttp2_stream_mapm, 
                       __Z27grpc_chttp2_stream_map_randP22grpc_chttp2_stream_map, 
                       __Z27grpc_chttp2_stream_map_sizeP22grpc_chttp2_stream_map, 
                       __Z27grpc_disable_error_creationv, __Z27grpc_endpoint_can_track_errP13grpc_endpoint, 
                       __Z27grpc_get_cq_completion_typeP21grpc_completion_queue, 
                       __Z27grpc_get_poll_strategy_namev, __Z27grpc_lb_policy_cds_shutdownv, 
                       __Z27grpc_polling_entity_pollsetP19grpc_polling_entity, __Z27grpc_resolver_dns_ares_initv, 
                       __Z27grpc_resolver_fake_shutdownv, __Z27grpc_resolver_sockaddr_initv, 
                       __Z27grpc_secure_endpoint_createP19tsi_frame_protectorP28tsi_zero_copy_grpc_protectorP13grpc_endpointP10grpc_slicem, 
                       __Z27grpc_security_connector_cmpPK23grpc_security_connectorS1_, 
                       __Z27grpc_set_pollset_set_vtableP23grpc_pollset_set_vtable, 
                       __Z27grpc_set_socket_low_latencyii, __Z27grpc_set_socket_nonblockingii, 
                       __Z27grpc_slice_buffer_sub_firstP17grpc_slice_buffermm, __Z27grpc_socket_factory_compareP19grpc_socket_factoryS0_, 
                       __Z27grpc_socket_mutator_compareP19grpc_socket_mutatorS0_, 
                       __Z27grpc_stats_histo_percentilePK15grpc_stats_data21grpc_stats_histogramsd, 
                       __Z27grpc_status_to_http2_status16grpc_status_code, __Z27grpc_timer_manager_shutdownv, 
                       __Z27grpc_transport_get_endpointP14grpc_transport, __Z27tsi_frame_protector_destroyP19tsi_frame_protector, 
                       __Z27tsi_frame_protector_protectP19tsi_frame_protectorPKhPmPhS3_, 
                       __Z27tsi_handshaker_extract_peerP14tsi_handshakerP8tsi_peer, 
                       __Z27tsi_local_handshaker_createbPP14tsi_handshaker, __Z27tsi_ssl_session_cache_unrefP21tsi_ssl_session_cache, 
                       __Z28compute_and_encode_signaturePK18grpc_auth_json_keyPKcS3_, 
                       __Z28grpc_channel_arg_get_integerPK8grpc_arg20grpc_integer_options, 
                       __Z28grpc_chttp2_huffman_compressRK10grpc_slice, __Z28grpc_chttp2_reset_ping_clockP21grpc_chttp2_transport, 
                       __Z28grpc_client_channel_shutdownv, __Z28grpc_create_chttp2_transportPK17grpc_channel_argsP13grpc_endpointb, 
                       __Z28grpc_create_dualstack_socketPK21grpc_resolved_addressiiP19grpc_dualstack_modePi, 
                       __Z28grpc_custom_pollset_set_initv, __Z28grpc_custom_resolve_callbackP20grpc_custom_resolverP23grpc_resolved_addressesP10grpc_error, 
                       __Z28grpc_endpoint_add_to_pollsetP13grpc_endpointP12grpc_pollset, 
                       __Z28grpc_iomgr_platform_shutdownv, __Z28grpc_iomgr_run_in_backgroundv, 
                       __Z28grpc_iomgr_unregister_objectP17grpc_iomgr_object, __Z28grpc_ipv6_loopback_availablev, 
                       __Z28grpc_jwt_issuer_email_domainPKc, __Z28grpc_lb_policy_priority_initv, 
                       __Z28grpc_polling_entity_is_emptyPK19grpc_polling_entity, 
                       __Z28grpc_pollset_global_shutdownv, __Z28grpc_pollset_set_add_pollsetP16grpc_pollset_setP12grpc_pollset, 
                       __Z28grpc_pollset_set_del_pollsetP16grpc_pollset_setP12grpc_pollset, 
                       __Z28grpc_set_socket_with_mutatori13grpc_fd_usageP19grpc_socket_mutator, 
                       __Z28grpc_slice_from_moved_bufferNSt3__110unique_ptrIcN9grpc_core17DefaultDeleteCharEEEm, 
                       __Z28grpc_slice_from_moved_stringNSt3__110unique_ptrIcN9grpc_core17DefaultDeleteCharEEE, 
                       __Z28grpc_sockaddr_get_uri_schemePK21grpc_resolved_address, 
                       __Z28grpc_sockaddr_make_wildcard4iP21grpc_resolved_address, 
                       __Z28grpc_sockaddr_make_wildcard6iP21grpc_resolved_address, 
                       __Z28grpc_sockaddr_make_wildcardsiP21grpc_resolved_addressS0_, 
                       __Z28grpc_stats_inc_tcp_read_sizei, __Z28grpc_status_code_from_stringPKcP16grpc_status_code, 
                       __Z28grpc_tcp_server_have_ifaddrsv, __Z28gsec_aead_crypter_key_lengthPK17gsec_aead_crypterPmPPc, 
                       __Z28gsec_aead_crypter_tag_lengthPK17gsec_aead_crypterPmPPc, 
                       __Z28tsi_security_level_to_string18tsi_security_level, __Z29alts_crypter_process_in_placeP12alts_crypterPhmmPmPPc, 
                       __Z29grpc_channel_args_find_stringPK17grpc_channel_argsPKc, 
                       __Z29grpc_channel_destroy_internalP12grpc_channel, __Z29grpc_chttp2_data_parser_parsePvP21grpc_chttp2_transportP18grpc_chttp2_streamRK10grpc_slicei, 
                       __Z29grpc_chttp2_num_alpn_versionsv, __Z29grpc_chttp2_ping_parser_parsePvP21grpc_chttp2_transportP18grpc_chttp2_streamRK10grpc_slicei, 
                       __Z29grpc_chttp2_rst_stream_createjjP28grpc_transport_one_way_stats, 
                       __Z29grpc_chttp2_stream_map_deleteP22grpc_chttp2_stream_mapj, 
                       __Z29grpc_json_get_string_propertyRKN9grpc_core4JsonEPKcPP10grpc_error, 
                       __Z29grpc_make_transport_stream_opP12grpc_closure, __Z29grpc_message_size_filter_initv, 
                       __Z29grpc_resolver_binder_shutdownv, __Z29grpc_resolver_dns_native_initv, 
                       __Z29grpc_shutdown_internal_lockedv, __Z29grpc_slice_differs_refcountedRK10grpc_sliceS1_, 
                       __Z29grpc_sockaddr_get_packed_hostPK21grpc_resolved_address, 
                       __Z29grpc_socket_mutator_mutate_fdP19grpc_socket_mutatori13grpc_fd_usage, 
                       __Z29grpc_ssl_peer_to_auth_contextPK8tsi_peerPKc, __Z29grpc_stats_inc_tcp_read_offeri, 
                       __Z29grpc_stats_inc_tcp_write_sizei, __Z29grpc_tcp_server_port_fd_countP15grpc_tcp_serverj, 
                       __Z29grpc_time_averaged_stats_initP24grpc_time_averaged_statsddd, 
                       __Z29grpc_transport_destroy_streamP14grpc_transportP11grpc_streamP12grpc_closure, 
                       __Z29grpc_wakeup_fd_consume_wakeupP14grpc_wakeup_fd, __Z29grpc_wakeup_fd_global_destroyv, 
                       __Z29openssl_digest_from_algorithmPKc, __Z29tsi_frame_protector_unprotectP19tsi_frame_protectorPKhPmPhS3_, 
                       __Z29tsi_handshaker_result_destroyP21tsi_handshaker_result, 
                       __Z29tsi_peer_get_property_by_namePK8tsi_peerPKc, __Z30alts_grpc_record_protocol_initP25alts_grpc_record_protocolP17gsec_aead_cryptermbbb, 
                       __Z30alts_handshaker_client_destroyP22alts_handshaker_client, 
                       __Z30grpc_call_set_completion_queueP9grpc_callP21grpc_completion_queue, 
                       __Z30grpc_channel_arg_string_createPcS_, __Z30grpc_channel_args_copy_and_addPK17grpc_channel_argsPK8grpc_argm, 
                       __Z30grpc_channel_args_find_integerPK17grpc_channel_argsPKc20grpc_integer_options, 
                       __Z30grpc_channel_stack_type_string23grpc_channel_stack_type, 
                       __Z30grpc_chttp2_goaway_parser_initP25grpc_chttp2_goaway_parser, 
                       __Z30grpc_chttp2_mark_stream_closedP21grpc_chttp2_transportP18grpc_chttp2_streamiiP10grpc_error, 
                       __Z30grpc_chttp2_stream_map_destroyP22grpc_chttp2_stream_map, 
                       __Z30grpc_copy_json_string_propertyRKN9grpc_core4JsonEPKcPPc, 
                       __Z30grpc_create_socketpair_if_unixPi, __Z30grpc_deadline_checking_enabledPK17grpc_channel_args, 
                       __Z30grpc_find_auth_context_in_argsPK17grpc_channel_args, 
                       __Z30grpc_is_binary_header_internalRK10grpc_slice, __Z30grpc_lb_policy_grpclb_shutdownv, 
                       __Z30grpc_lb_policy_pick_first_initv, __Z30grpc_register_built_in_pluginsv, 
                       __Z30grpc_security_connector_to_argP23grpc_security_connector, 
                       __Z30grpc_server_credentials_to_argP23grpc_server_credentials, 
                       __Z30grpc_set_iomgr_platform_vtableP26grpc_iomgr_platform_vtable, 
                       __Z30grpc_slice_buffer_remove_firstP17grpc_slice_buffer, __Z30grpc_slice_split_without_space10grpc_slicePKcP17grpc_slice_buffer, 
                       __Z30grpc_tcp_client_create_from_fdP7grpc_fdPK17grpc_channel_argsN4absl12lts_2021110211string_viewE, 
                       __Z30grpc_tcp_server_prepare_socketP15grpc_tcp_serveriPK21grpc_resolved_addressbPi, 
                       __Z30gsec_aead_crypter_nonce_lengthPK17gsec_aead_crypterPmPPc, 
                       __Z31alts_crypter_num_overhead_bytesPK12alts_crypter, __Z31alts_get_reader_bytes_remainingP17alts_frame_reader, 
                       __Z31alts_handshaker_client_shutdownP22alts_handshaker_client, 
                       __Z31alts_reset_reader_output_bufferP17alts_frame_readerPh, 
                       __Z31config_default_tcp_user_timeoutbib, __Z31grpc_call_compression_for_levelP9grpc_call22grpc_compression_level, 
                       __Z31grpc_channel_arg_integer_createPci, __Z31grpc_channel_arg_pointer_createPcPvPK23grpc_arg_pointer_vtable, 
                       __Z31grpc_channel_credentials_to_argP24grpc_channel_credentials, 
                       __Z31grpc_channel_stack_last_elementP18grpc_channel_stack, 
                       __Z31grpc_chttp2_add_incoming_goawayP21grpc_chttp2_transportjjN4absl12lts_2021110211string_viewE, 
                       __Z31grpc_chttp2_fail_pending_writesP21grpc_chttp2_transportP18grpc_chttp2_streamP10grpc_error, 
                       __Z31grpc_chttp2_goaway_parser_parsePvP21grpc_chttp2_transportP18grpc_chttp2_streamRK10grpc_slicei, 
                       __Z31grpc_chttp2_header_parser_parsePvP21grpc_chttp2_transportP18grpc_chttp2_streamRK10grpc_slicei, 
                       __Z31grpc_chttp2_retry_initiate_pingPvP10grpc_error, __Z31grpc_chttp2_settings_ack_createv, 
                       __Z31grpc_chttp2_stream_map_for_eachP22grpc_chttp2_stream_mapPFvPvjS1_ES1_, 
                       __Z31grpc_combiner_continue_exec_ctxv, __Z31grpc_endpoint_get_local_addressP13grpc_endpoint, 
                       __Z31grpc_fill_alpn_protocol_stringsPm, __Z31grpc_http2_error_to_grpc_status21grpc_http2_error_codex, 
                       __Z31grpc_httpcli_format_get_requestPK20grpc_httpcli_request, 
                       __Z31grpc_iomgr_create_endpoint_pairPKcP17grpc_channel_args, 
                       __Z31grpc_lb_policy_round_robin_initv, __Z31grpc_polling_entity_pollset_setP19grpc_polling_entity, 
                       __Z31grpc_resolved_addresses_destroyP23grpc_resolved_addresses, 
                       __Z31grpc_resolver_dns_ares_shutdownv, __Z31grpc_resolver_sockaddr_shutdownv, 
                       __Z31grpc_security_handshaker_createP14tsi_handshakerP23grpc_security_connectorPK17grpc_channel_args, 
                       __Z31grpc_set_default_iomgr_platformv, __Z31grpc_tcp_destroy_and_release_fdP13grpc_endpointPiP12grpc_closure, 
                       __Z31gsec_aead_crypter_decrypt_iovecP17gsec_aead_crypterPKhmPK5iovecmS5_mS3_PmPPc, 
                       __Z31gsec_aead_crypter_encrypt_iovecP17gsec_aead_crypterPKhmPK5iovecmS5_mS3_PmPPc, 
                       __Z31tsi_create_fake_frame_protectorPm, __Z31tsi_ssl_get_cert_chain_contentsP13stack_st_X509P17tsi_peer_property, 
                       __Z31tsi_ssl_root_certs_store_createPKc, __Z32alts_tsi_handshaker_has_shutdownP19alts_tsi_handshaker, 
                       __Z32gpr_global_config_get_grpc_tracev, __Z32gpr_global_config_set_grpc_tracePKc, 
                       __Z32grpc_auth_metadata_context_buildPKcRK10grpc_sliceS3_P17grpc_auth_contextP26grpc_auth_metadata_context, 
                       __Z32grpc_auth_refresh_token_destructP23grpc_auth_refresh_token, 
                       __Z32grpc_auth_refresh_token_is_validPK23grpc_auth_refresh_token, 
                       __Z32grpc_call_stack_from_top_elementP17grpc_call_element, 
                       __Z32grpc_channel_create_with_builderP26grpc_channel_stack_builder23grpc_channel_stack_typePP10grpc_error, 
                       __Z32grpc_chttp2_mark_stream_writableP21grpc_chttp2_transportP18grpc_chttp2_stream, 
                       __Z32grpc_chttp2_window_update_createjjP28grpc_transport_one_way_stats, 
                       __Z32grpc_endpoint_add_to_pollset_setP13grpc_endpointP16grpc_pollset_set, 
                       __Z32grpc_error_has_clear_grpc_statusP10grpc_error, __Z32grpc_fork_handlers_auto_registerv, 
                       __Z32grpc_http2_status_to_grpc_statusi, __Z32grpc_httpcli_format_post_requestPK20grpc_httpcli_requestPKcm, 
                       __Z32grpc_lb_policy_priority_shutdownv, __Z32grpc_pollset_set_add_pollset_setP16grpc_pollset_setS0_, 
                       __Z32grpc_pollset_set_del_pollset_setP16grpc_pollset_setS0_, 
                       __Z32grpc_resolve_unix_domain_addressN4absl12lts_2021110211string_viewE, 
                       __Z32grpc_security_connector_from_argPK8grpc_arg, __Z32grpc_server_credentials_from_argPK8grpc_arg, 
                       __Z32grpc_set_socket_tcp_user_timeoutiPK17grpc_channel_argsb, 
                       __Z32grpc_shutdown_background_closurev, __Z32grpc_stats_inc_call_initial_sizei, 
                       __Z32grpc_timer_manager_set_threadingb, __Z32grpc_timespec_to_millis_round_up12gpr_timespec, 
                       __Z32grpc_transport_perform_stream_opP14grpc_transportP11grpc_streamP30grpc_transport_stream_op_batch, 
                       __Z32gsec_aes_gcm_aead_crypter_createPKhmmmbPP17gsec_aead_crypterPPc, 
                       __Z32tsi_ssl_root_certs_store_destroyP24tsi_ssl_root_certs_store, 
                       __Z32tsi_ssl_session_cache_create_lrum, __Z33alts_grpc_record_protocol_destroyP25alts_grpc_record_protocol, 
                       __Z33alts_grpc_record_protocol_protectP25alts_grpc_record_protocolP17grpc_slice_bufferS2_, 
                       __Z33alts_iovec_record_protocol_createP17gsec_aead_cryptermbbbPP26alts_iovec_record_protocolPPc, 
                       __Z33alts_tsi_handshaker_result_createP23grpc_gcp_HandshakerRespbPP21tsi_handshaker_result, 
                       __Z33grpc_apply_socket_mutator_in_argsi13grpc_fd_usagePK17grpc_channel_args, 
                       __Z33grpc_base64_estimate_encoded_sizemi, __Z33grpc_call_start_batch_and_executeP9grpc_callPK7grpc_opmP12grpc_closure, 
                       __Z33grpc_channel_args_copy_and_removePK17grpc_channel_argsPPKcm, 
                       __Z33grpc_channel_credentials_from_argPK8grpc_arg, __Z33grpc_channel_stack_builder_createPKc, 
                       __Z33grpc_channel_stack_builder_finishP26grpc_channel_stack_buildermiPFvPvP10grpc_errorES1_PS1_, 
                       __Z33grpc_channel_stack_type_is_client23grpc_channel_stack_type, 
                       __Z33grpc_chttp2_act_on_flowctl_actionRKN9grpc_core6chttp217FlowControlActionEP21grpc_chttp2_transportP18grpc_chttp2_stream, 
                       __Z33grpc_chttp2_complete_closure_stepP21grpc_chttp2_transportP18grpc_chttp2_streamPP12grpc_closureP10grpc_errorPKc, 
                       __Z33grpc_chttp2_goaway_parser_destroyP25grpc_chttp2_goaway_parser, 
                       __Z33grpc_chttp2_parsing_accept_streamP21grpc_chttp2_transportj, 
                       __Z33grpc_chttp2_settings_parser_parsePvP21grpc_chttp2_transportP18grpc_chttp2_streamRK10grpc_slicei, 
                       __Z33grpc_connected_channel_get_streamP17grpc_call_element, 
                       __Z33grpc_custom_close_server_callbackP17grpc_tcp_listener, 
                       __Z33grpc_message_size_filter_shutdownv, __Z33grpc_resolver_dns_native_shutdownv, 
                       __Z33grpc_stats_histo_find_bucket_slowiPKii, __Z33grpc_stats_inc_server_cqs_checkedi, 
                       __Z33grpc_stats_inc_tcp_write_iov_sizei, __Z33grpc_tcp_server_create_fd_handlerP15grpc_tcp_server, 
                       __Z33grpc_transport_move_one_way_statsP28grpc_transport_one_way_statsS0_, 
                       __Z33grpc_unlink_if_unix_domain_socketPK21grpc_resolved_address, 
                       __Z33grpc_validate_header_key_is_legalRK10grpc_slice, __Z33tsi_frame_protector_protect_flushP19tsi_frame_protectorPhPmS2_, 
                       __Z34alts_grpc_handshaker_client_createP19alts_tsi_handshakerP12grpc_channelPKcP16grpc_pollset_setP29grpc_alts_credentials_optionsRK10grpc_slicePFvPvP10grpc_errorEPFv10tsi_resultSC_PKhmP21tsi_handshaker_resultESC_P29alts_handshaker_client_vtablebm, 
                       __Z34alts_iovec_record_protocol_destroyP26alts_iovec_record_protocol, 
                       __Z34grpc_alts_credentials_options_copyPK29grpc_alts_credentials_options, 
                       __Z34grpc_channel_stack_builder_destroyP26grpc_channel_stack_builder, 
                       __Z34grpc_chttp2_get_alpn_version_indexm, __Z34grpc_event_engine_can_track_errorsv, 
                       __Z34grpc_jwt_verifier_status_to_string24grpc_jwt_verifier_status, 
                       __Z34grpc_lb_policy_pick_first_shutdownv, __Z34grpc_maybe_wait_for_async_shutdownv, 
                       __Z34grpc_register_event_engine_factoryPKcPFPK24grpc_event_engine_vtablebEb, 
                       __Z34grpc_slice_buffer_destroy_internalP17grpc_slice_buffer, 
                       __Z34grpc_tcp_server_shutdown_listenersP15grpc_tcp_server, 
                       __Z34grpc_test_only_set_slice_hash_seedj, __Z34grpc_timespec_to_millis_round_down12gpr_timespec, 
                       __Z34tsi_construct_string_peer_propertyPKcS0_mP17tsi_peer_property, 
                       __Z34tsi_handshaker_result_extract_peerPK21tsi_handshaker_resultP8tsi_peer, 
                       __Z35alts_get_num_writer_bytes_remainingP17alts_frame_writer, 
                       __Z35alts_grpc_record_protocol_unprotectP25alts_grpc_record_protocolP17grpc_slice_bufferS2_, 
                       __Z35alts_handshaker_client_start_clientP22alts_handshaker_client, 
                       __Z35alts_handshaker_client_start_serverP22alts_handshaker_clientP10grpc_slice, 
                       __Z35alts_tsi_utils_deserialize_responseP16grpc_byte_bufferP9upb_arena, 
                       __Z35grpc_alts_set_rpc_protocol_versionsP29_grpc_gcp_RpcProtocolVersions, 
                       __Z35grpc_auth_json_key_create_from_jsonRKN9grpc_core4JsonE, 
                       __Z35grpc_call_get_initial_size_estimatev, __Z35grpc_channel_get_call_size_estimateP12grpc_channel, 
                       __Z35grpc_channel_stack_from_top_elementP20grpc_channel_element, 
                       __Z35grpc_chttp2_data_parser_begin_frameP23grpc_chttp2_data_parserhjP18grpc_chttp2_stream, 
                       __Z35grpc_chttp2_list_add_writing_streamP21grpc_chttp2_transportP18grpc_chttp2_stream, 
                       __Z35grpc_chttp2_list_pop_writing_streamP21grpc_chttp2_transportPP18grpc_chttp2_stream, 
                       __Z35grpc_chttp2_ping_parser_begin_frameP23grpc_chttp2_ping_parserjh, 
                       __Z35grpc_chttp2_rst_stream_parser_parsePvP21grpc_chttp2_transportP18grpc_chttp2_streamRK10grpc_slicei, 
                       __Z35grpc_chttp2_transport_start_readingP14grpc_transportP17grpc_slice_bufferP12grpc_closureS4_, 
                       __Z35grpc_client_security_context_createPN9grpc_core5ArenaEP21grpc_call_credentials, 
                       __Z35grpc_convert_grpc_to_tsi_cert_pairsPK26grpc_ssl_pem_key_cert_pairm, 
                       __Z35grpc_event_engine_run_in_backgroundv, __Z35grpc_gcp_rpc_protocol_versions_copyPK29_grpc_gcp_RpcProtocolVersionsPS_, 
                       __Z35grpc_have_determined_iomgr_platformv, __Z35grpc_httpcli_format_connect_requestPK20grpc_httpcli_request, 
                       __Z35grpc_is_socket_reuse_port_supportedv, __Z35grpc_lb_policy_round_robin_shutdownv, 
                       __Z35grpc_lb_policy_weighted_target_initv, __Z35grpc_server_security_context_createPN9grpc_core5ArenaE, 
                       __Z35grpc_stats_inc_poll_events_returnedi, __Z35grpc_tcp_server_add_all_local_addrsP15grpc_tcp_serverjiPi, 
                       __Z35grpc_time_averaged_stats_add_sampleP24grpc_time_averaged_statsd, 
                       __Z36alts_tsi_utils_convert_to_tsi_result16grpc_status_code, 
                       __Z36alts_zero_copy_grpc_protector_createPKhmbbbbPmPP28tsi_zero_copy_grpc_protector, 
                       __Z36gpr_global_config_get_grpc_verbosityv, __Z36gpr_global_config_set_grpc_verbosityPKc, 
                       __Z36grpc_channel_args_want_minimal_stackPK17grpc_channel_args, 
                       __Z36grpc_channel_create_pollset_set_callP12grpc_channelP9grpc_calljP16grpc_pollset_setRK10grpc_slicePS6_xPv, 
                       __Z36grpc_channel_stack_builder_move_nextP35grpc_channel_stack_builder_iterator, 
                       __Z36grpc_channel_stack_builder_move_prevP35grpc_channel_stack_builder_iterator, 
                       __Z36grpc_chttp2_list_add_writable_streamP21grpc_chttp2_transportP18grpc_chttp2_stream, 
                       __Z36grpc_chttp2_list_pop_writable_streamP21grpc_chttp2_transportPP18grpc_chttp2_stream, 
                       __Z36grpc_client_security_context_destroyPv, __Z36grpc_find_server_credentials_in_argsPK17grpc_channel_args, 
                       __Z36grpc_gcp_rpc_protocol_versions_checkPK29_grpc_gcp_RpcProtocolVersionsS1_P37_grpc_gcp_RpcProtocolVersions_Version, 
                       __Z36grpc_iomgr_count_objects_for_testingv, __Z36grpc_is_any_background_poller_threadv, 
                       __Z36grpc_lb_policy_xds_cluster_impl_initv, __Z36grpc_md_only_test_credentials_createPKcS0_b, 
                       __Z36grpc_security_connector_find_in_argsPK17grpc_channel_args, 
                       __Z36grpc_server_security_context_destroyPv, __Z36tsi_zero_copy_grpc_protector_destroyP28tsi_zero_copy_grpc_protector, 
                       __Z36tsi_zero_copy_grpc_protector_protectP28tsi_zero_copy_grpc_protectorP17grpc_slice_bufferS2_, 
                       __Z37alts_record_protocol_crypter_destructP12alts_crypter, 
                       __Z37grpc_add_closure_to_background_pollerP12grpc_closureP10grpc_error, 
                       __Z37grpc_auth_json_key_create_from_stringPKc, __Z37grpc_call_test_only_get_message_flagsP9grpc_call, 
                       __Z37grpc_channel_credentials_find_in_argsPK17grpc_channel_args, 
                       __Z37grpc_channel_stack_builder_get_targetP26grpc_channel_stack_builder, 
                       __Z37grpc_channel_stack_builder_set_targetP26grpc_channel_stack_builderPKc, 
                       __Z37grpc_chttp2_base64_decode_with_lengthRK10grpc_slicem, 
                       __Z37grpc_chttp2_goaway_parser_begin_frameP25grpc_chttp2_goaway_parserjh, 
                       __Z37grpc_chttp2_is_alpn_version_supportedPKcm, __Z37grpc_chttp2_list_have_writing_streamsP21grpc_chttp2_transport, 
                       __Z37grpc_chttp2_transport_get_socket_nodeP14grpc_transport, 
                       __Z37grpc_completion_queue_create_internal23grpc_cq_completion_type20grpc_cq_polling_typeP29grpc_completion_queue_functor, 
                       __Z37grpc_cycle_counter_to_millis_round_upd, __Z37grpc_endpoint_delete_from_pollset_setP13grpc_endpointP16grpc_pollset_set, 
                       __Z37grpc_gcp_rpc_protocol_versions_decodeRK10grpc_sliceP29_grpc_gcp_RpcProtocolVersions, 
                       __Z37grpc_gcp_rpc_protocol_versions_encodePK28grpc_gcp_RpcProtocolVersionsP9upb_arenaP10grpc_slice, 
                       __Z37grpc_gcp_rpc_protocol_versions_encodePK29_grpc_gcp_RpcProtocolVersionsP10grpc_slice, 
                       __Z37grpc_jwt_encode_and_sign_set_overridePFPcPK18grpc_auth_json_keyPKc12gpr_timespecS4_E, 
                       __Z37grpc_tcp_server_shutdown_starting_addP15grpc_tcp_serverP12grpc_closure, 
                       __Z37grpc_transport_stream_op_batch_stringP30grpc_transport_stream_op_batch, 
                       __Z37tsi_handshaker_create_frame_protectorP14tsi_handshakerPmPP19tsi_frame_protector, 
                       __Z38alts_handshaker_client_handle_responseP22alts_handshaker_clientb, 
                       __Z38grpc_channel_update_call_size_estimateP12grpc_channelm, 
                       __Z38grpc_chttp2_list_add_stalled_by_streamP21grpc_chttp2_transportP18grpc_chttp2_stream, 
                       __Z38grpc_chttp2_list_pop_stalled_by_streamP21grpc_chttp2_transportPP18grpc_chttp2_stream, 
                       __Z38grpc_chttp2_parsing_become_skip_parserP21grpc_chttp2_transport, 
                       __Z38grpc_chttp2_window_update_parser_parsePvP21grpc_chttp2_transportP18grpc_chttp2_streamRK10grpc_slicei, 
                       __Z38grpc_gcp_rpc_protocol_versions_set_maxP29_grpc_gcp_RpcProtocolVersionsjj, 
                       __Z38grpc_gcp_rpc_protocol_versions_set_minP29_grpc_gcp_RpcProtocolVersionsjj, 
                       __Z38grpc_iomgr_shutdown_background_closurev, __Z38grpc_polling_entity_add_to_pollset_setP19grpc_polling_entityP16grpc_pollset_set, 
                       __Z38grpc_set_socket_ip_pktinfo_if_possiblei, __Z38grpc_set_socket_no_sigpipe_if_possiblei, 
                       __Z38grpc_stats_inc_http2_send_message_sizei, __Z38grpc_stats_inc_tcp_read_offer_iov_sizei, 
                       __Z38gsec_aead_crypter_max_plaintext_lengthPK17gsec_aead_cryptermPmPPc, 
                       __Z38tsi_handshaker_process_bytes_from_peerP14tsi_handshakerPKhPm, 
                       __Z38tsi_handshaker_result_get_unused_bytesPK21tsi_handshaker_resultPPKhPm, 
                       __Z38tsi_ssl_handshaker_factory_swap_vtableP26tsi_ssl_handshaker_factoryP33tsi_ssl_handshaker_factory_vtable, 
                       __Z38tsi_zero_copy_grpc_protector_unprotectP28tsi_zero_copy_grpc_protectorP17grpc_slice_bufferS2_, 
                       __Z39gpr_global_config_get_grpc_dns_resolverv, __Z39gpr_global_config_set_grpc_dns_resolverPKc, 
                       __Z39grpc_alts_credentials_create_customizedPK29grpc_alts_credentials_optionsPKcb, 
                       __Z39grpc_alts_get_shared_resource_dedicatedv, __Z39grpc_certificate_provider_registry_initv, 
                       __Z39grpc_chttp2_list_remove_writable_streamP21grpc_chttp2_transportP18grpc_chttp2_stream, 
                       __Z39grpc_chttp2_maybe_complete_recv_messageP21grpc_chttp2_transportP18grpc_chttp2_stream, 
                       __Z39grpc_chttp2_settings_parser_begin_frameP27grpc_chttp2_settings_parserjhPj, 
                       __Z39grpc_client_channel_stop_backup_pollingP16grpc_pollset_set, 
                       __Z39grpc_cycle_counter_to_millis_round_downd, __Z39grpc_lb_policy_weighted_target_shutdownv, 
                       __Z39grpc_lb_policy_xds_cluster_manager_initv, __Z39grpc_polling_entity_create_from_pollsetP12grpc_pollset, 
                       __Z39grpc_shallow_peer_from_ssl_auth_contextPK17grpc_auth_context, 
                       __Z39grpc_tcp_client_create_from_prepared_fdP16grpc_pollset_setP12grpc_closureiPK17grpc_channel_argsPK21grpc_resolved_addressxPP13grpc_endpoint, 
                       __Z39grpc_time_averaged_stats_update_averageP24grpc_time_averaged_stats, 
                       __Z39grpc_timer_manager_get_wakeups_testonlyv, __Z39grpc_tsi_ssl_pem_key_cert_pairs_destroyP25tsi_ssl_pem_key_cert_pairm, 
                       __Z39tsi_ssl_client_handshaker_factory_unrefP33tsi_ssl_client_handshaker_factory, 
                       __Z39tsi_ssl_server_handshaker_factory_unrefP33tsi_ssl_server_handshaker_factory, 
                       __Z40gpr_global_config_get_grpc_poll_strategyv, __Z40gpr_global_config_set_grpc_poll_strategyPKc, 
                       __Z40grpc_alts_shared_resource_dedicated_initv, __Z40grpc_auth_refresh_token_create_from_jsonRKN9grpc_core4JsonE, 
                       __Z40grpc_channel_stack_builder_append_filterP26grpc_channel_stack_builderPK19grpc_channel_filterPFvP18grpc_channel_stackP20grpc_channel_elementPvES8_, 
                       __Z40grpc_channel_stack_builder_get_transportP26grpc_channel_stack_builder, 
                       __Z40grpc_channel_stack_builder_iterator_findP26grpc_channel_stack_builderPKc, 
                       __Z40grpc_channel_stack_builder_remove_filterP26grpc_channel_stack_builderPKc, 
                       __Z40grpc_channel_stack_builder_set_transportP26grpc_channel_stack_builderP14grpc_transport, 
                       __Z40grpc_chttp2_add_rst_stream_to_next_writeP21grpc_chttp2_transportjjP28grpc_transport_one_way_stats, 
                       __Z40grpc_chttp2_initiate_write_reason_string33grpc_chttp2_initiate_write_reason, 
                       __Z40grpc_client_channel_start_backup_pollingP16grpc_pollset_set, 
                       __Z40grpc_deframe_unprocessed_incoming_framesP23grpc_chttp2_data_parserP18grpc_chttp2_streamP17grpc_slice_bufferP10grpc_slicePNSt3__110unique_ptrIN9grpc_core10ByteStreamENS9_16OrphanableDeleteEEE, 
                       __Z40grpc_fake_transport_expected_targets_argPc, __Z40grpc_fake_transport_get_expected_targetsPK17grpc_channel_args, 
                       __Z40grpc_lb_policy_xds_cluster_impl_shutdownv, __Z40grpc_lb_policy_xds_cluster_resolver_initv, 
                       __Z40grpc_polling_entity_del_from_pollset_setP19grpc_polling_entityP16grpc_pollset_set, 
                       __Z40tsi_create_fake_zero_copy_grpc_protectorPm, __Z40tsi_create_ssl_client_handshaker_factoryPK25tsi_ssl_pem_key_cert_pairPKcS3_PS3_tPP33tsi_ssl_client_handshaker_factory, 
                       __Z40tsi_create_ssl_server_handshaker_factoryPK25tsi_ssl_pem_key_cert_pairmPKciS3_PS3_tPP33tsi_ssl_server_handshaker_factory, 
                       __Z40tsi_handshaker_get_bytes_to_send_to_peerP14tsi_handshakerPhPm, 
                       __Z41alts_iovec_record_protocol_get_tag_lengthPK26alts_iovec_record_protocol, 
                       __Z41gpr_global_config_get_grpc_abort_on_leaksv, __Z41gpr_global_config_set_grpc_abort_on_leaksb, 
                       __Z41grpc_alts_shared_resource_dedicated_startPKc, __Z41grpc_channel_args_copy_and_add_and_removePK17grpc_channel_argsPPKcmPK8grpc_argm, 
                       __Z41grpc_channel_stack_builder_prepend_filterP26grpc_channel_stack_builderPK19grpc_channel_filterPFvP18grpc_channel_stackP20grpc_channel_elementPvES8_, 
                       __Z41grpc_channel_stack_filter_instance_numberP18grpc_channel_stackP20grpc_channel_element, 
                       __Z41grpc_chttp2_config_default_keepalive_argsP17grpc_channel_argsb, 
                       __Z41grpc_chttp2_list_add_stalled_by_transportP21grpc_chttp2_transportP18grpc_chttp2_stream, 
                       __Z41grpc_chttp2_list_pop_stalled_by_transportP21grpc_chttp2_transportPP18grpc_chttp2_stream, 
                       __Z41grpc_chttp2_list_remove_stalled_by_streamP21grpc_chttp2_transportP18grpc_chttp2_stream, 
                       __Z41grpc_chttp2_rst_stream_parser_begin_frameP29grpc_chttp2_rst_stream_parserjh, 
                       __Z41grpc_resolve_unix_abstract_domain_addressN4absl12lts_2021110211string_viewE, 
                       __Z41grpc_ssl_server_security_connector_createN9grpc_core13RefCountedPtrI23grpc_server_credentialsEE, 
                       __Z42alts_grpc_record_protocol_get_header_iovecP25alts_grpc_record_protocol, 
                       __Z42grpc_alts_server_security_connector_createN9grpc_core13RefCountedPtrI23grpc_server_credentialsEE, 
                       __Z42grpc_auth_refresh_token_create_from_stringPKc, __Z42grpc_call_stack_set_pollset_or_pollset_setP15grpc_call_stackP19grpc_polling_entity, 
                       __Z42grpc_channel_stack_builder_iterator_is_endP35grpc_channel_stack_builder_iterator, 
                       __Z42grpc_create_dualstack_socket_using_factoryP19grpc_socket_factoryPK21grpc_resolved_addressiiP19grpc_dualstack_modePi, 
                       __Z42grpc_fake_server_security_connector_createN9grpc_core13RefCountedPtrI23grpc_server_credentialsEE, 
                       __Z42grpc_iomgr_is_any_background_poller_threadv, __Z42grpc_slice_buffer_reset_and_unref_internalP17grpc_slice_buffer, 
                       __Z42grpc_ssl_channel_security_connector_createN9grpc_core13RefCountedPtrI24grpc_channel_credentialsEENS0_I21grpc_call_credentialsEEPK15grpc_ssl_configPKcS9_P21tsi_ssl_session_cache, 
                       __Z42grpc_validate_header_nonbin_value_is_legalRK10grpc_slice, 
                       __Z43alts_grpc_record_protocol_copy_slice_bufferPK17grpc_slice_bufferPh, 
                       __Z43alts_tsi_handshaker_result_set_unused_bytesP21tsi_handshaker_resultP10grpc_slicem, 
                       __Z43grpc_alts_channel_security_connector_createN9grpc_core13RefCountedPtrI24grpc_channel_credentialsEENS0_I21grpc_call_credentialsEEPKc, 
                       __Z43grpc_certificate_provider_registry_shutdownv, __Z43grpc_channel_stack_builder_add_filter_afterP35grpc_channel_stack_builder_iteratorPK19grpc_channel_filterPFvP18grpc_channel_stackP20grpc_channel_elementPvES8_, 
                       __Z43grpc_channel_stack_builder_iterator_destroyP35grpc_channel_stack_builder_iterator, 
                       __Z43grpc_fake_channel_security_connector_createN9grpc_core13RefCountedPtrI24grpc_channel_credentialsEENS0_I21grpc_call_credentialsEEPKcPK17grpc_channel_args, 
                       __Z43grpc_iomgr_add_closure_to_background_pollerP12grpc_closureP10grpc_error, 
                       __Z43grpc_lb_policy_xds_cluster_manager_shutdownv, __Z43grpc_local_server_security_connector_createN9grpc_core13RefCountedPtrI23grpc_server_credentialsEE, 
                       __Z43grpc_polling_entity_create_from_pollset_setP16grpc_pollset_set, 
                       __Z43grpc_ssl_tsi_client_handshaker_factory_initP25tsi_ssl_pem_key_cert_pairPKcb15tsi_tls_versionS3_P21tsi_ssl_session_cacheS2_PP33tsi_ssl_client_handshaker_factory, 
                       __Z43grpc_ssl_tsi_server_handshaker_factory_initP25tsi_ssl_pem_key_cert_pairmPKc40grpc_ssl_client_certificate_request_type15tsi_tls_versionS4_S2_PP33tsi_ssl_server_handshaker_factory, 
                       __Z43grpc_stats_inc_http2_send_flowctl_per_writei, __Z43grpc_stats_inc_http2_send_message_per_writei, 
                       __Z43tsi_create_ssl_server_handshaker_factory_exPK25tsi_ssl_pem_key_cert_pairmPKc35tsi_client_certificate_request_typeS3_PS3_tPP33tsi_ssl_server_handshaker_factory, 
                       __Z43tsi_zero_copy_grpc_protector_max_frame_sizeP28tsi_zero_copy_grpc_protectorPm, 
                       __Z44alts_iovec_record_protocol_get_header_lengthv, __Z44gpr_global_config_get_grpc_ssl_cipher_suitesv, 
                       __Z44gpr_global_config_set_grpc_ssl_cipher_suitesPKc, __Z44grpc_alts_shared_resource_dedicated_shutdownv, 
                       __Z44grpc_channel_stack_builder_add_filter_beforeP35grpc_channel_stack_builder_iteratorPK19grpc_channel_filterPFvP18grpc_channel_stackP20grpc_channel_elementPvES8_, 
                       __Z44grpc_chttp2_base64_infer_length_after_decodeRK10grpc_slice, 
                       __Z44grpc_chttp2_list_add_waiting_for_concurrencyP21grpc_chttp2_transportP18grpc_chttp2_stream, 
                       __Z44grpc_chttp2_list_pop_waiting_for_concurrencyP21grpc_chttp2_transportPP18grpc_chttp2_stream, 
                       __Z44grpc_chttp2_list_remove_stalled_by_transportP21grpc_chttp2_transportP18grpc_chttp2_stream, 
                       __Z44grpc_chttp2_window_update_parser_begin_frameP32grpc_chttp2_window_update_parserjh, 
                       __Z44grpc_get_tsi_client_certificate_request_type40grpc_ssl_client_certificate_request_type, 
                       __Z44grpc_lb_policy_xds_cluster_resolver_shutdownv, __Z44grpc_local_channel_security_connector_createN9grpc_core13RefCountedPtrI24grpc_channel_credentialsEENS0_I21grpc_call_credentialsEEPK17grpc_channel_argsPKc, 
                       __Z44grpc_set_socket_ipv6_recvpktinfo_if_possiblei, __Z44tsi_construct_allocated_string_peer_propertyPKcmP17tsi_peer_property, 
                       __Z44tsi_handshaker_result_create_frame_protectorPK21tsi_handshaker_resultPmPP19tsi_frame_protector, 
                       __Z45grpc_call_test_only_get_compression_algorithmP9grpc_call, 
                       __Z46gpr_global_config_get_grpc_enable_fork_supportv, __Z46gpr_global_config_set_grpc_enable_fork_supportb, 
                       __Z46grpc_alts_server_credentials_create_customizedPK29grpc_alts_credentials_optionsPKcb, 
                       __Z46grpc_chttp2_base64_encode_and_huffman_compressRK10grpc_slice, 
                       __Z46grpc_client_channel_global_init_backup_pollingv, __Z46grpc_gcp_rpc_protocol_versions_assign_from_upbP29_grpc_gcp_RpcProtocolVersionsPK28grpc_gcp_RpcProtocolVersions, 
                       __Z46tsi_handshaker_result_get_frame_protector_typePK21tsi_handshaker_resultP24tsi_frame_protector_type, 
                       __Z47alts_grpc_integrity_only_record_protocol_createP17gsec_aead_cryptermbbbPP25alts_grpc_record_protocol, 
                       __Z47alts_record_protocol_crypter_num_overhead_bytesPK12alts_crypter, 
                       __Z47grpc_channel_stack_builder_iterator_filter_nameP35grpc_channel_stack_builder_iterator, 
                       __Z47grpc_chttp2_list_remove_waiting_for_concurrencyP21grpc_chttp2_transportP18grpc_chttp2_stream, 
                       __Z47grpc_fake_transport_security_credentials_createv, __Z47grpc_gcp_RpcProtocolVersions_assign_from_structP28grpc_gcp_RpcProtocolVersionsP9upb_arenaPK29_grpc_gcp_RpcProtocolVersions, 
                       __Z47grpc_iomgr_platform_shutdown_background_closurev, __Z47gsec_aead_crypter_max_ciphertext_and_tag_lengthPK17gsec_aead_cryptermPmPPc, 
                       __Z47tsi_construct_string_peer_property_from_cstringPKcS0_P17tsi_peer_property, 
                       __Z48grpc_channel_stack_builder_get_channel_argumentsP26grpc_channel_stack_builder, 
                       __Z48grpc_channel_stack_builder_set_channel_argumentsP26grpc_channel_stack_builderPK17grpc_channel_args, 
                       __Z48grpc_chttp2_maybe_complete_recv_initial_metadataP21grpc_chttp2_transportP18grpc_chttp2_stream, 
                       __Z48grpc_get_well_known_google_credentials_file_pathv, __Z48grpc_override_well_known_credentials_path_getterPFNSt3__112basic_stringIcNS_11char_traitsIcEENS_9allocatorIcEEEEvE, 
                       __Z48tsi_ssl_extract_x509_subject_names_from_pem_certPKcP8tsi_peer, 
                       __Z49alts_iovec_record_protocol_integrity_only_protectP26alts_iovec_record_protocolPK5iovecmS1_S1_PPc, 
                       __Z49gpr_global_config_get_grpc_stacktrace_minloglevelv, __Z49gpr_global_config_set_grpc_stacktrace_minloglevelPKc, 
                       __Z49grpc_call_stack_ignore_set_pollset_or_pollset_setP17grpc_call_elementP19grpc_polling_entity, 
                       __Z49grpc_chttp2_maybe_complete_recv_trailing_metadataP21grpc_chttp2_transportP18grpc_chttp2_stream, 
                       __Z50alts_grpc_privacy_integrity_record_protocol_createP17gsec_aead_cryptermbbPP25alts_grpc_record_protocol, 
                       __Z50grpc_call_test_only_get_encodings_accepted_by_peerP9grpc_call, 
                       __Z50grpc_channel_stack_builder_create_iterator_at_lastP26grpc_channel_stack_builder, 
                       __Z50grpc_transport_stream_op_batch_finish_with_failureP30grpc_transport_stream_op_batchP10grpc_errorPN9grpc_core12CallCombinerE, 
                       __Z51alts_grpc_record_protocol_max_unprotected_data_sizePK25alts_grpc_record_protocolm, 
                       __Z51alts_iovec_record_protocol_integrity_only_unprotectP26alts_iovec_record_protocolPK5iovecmS1_S1_PPc, 
                       __Z51gpr_global_config_get_grpc_not_use_system_ssl_rootsv, 
                       __Z51gpr_global_config_set_grpc_not_use_system_ssl_rootsb, 
                       __Z51grpc_channel_stack_builder_create_iterator_at_firstP26grpc_channel_stack_builder, 
                       __Z51grpc_iomgr_platform_is_any_background_poller_threadv, 
                       __Z51tsi_ssl_client_handshaker_factory_create_handshakerP33tsi_ssl_client_handshaker_factoryPKcPP14tsi_handshaker, 
                       __Z51tsi_ssl_server_handshaker_factory_create_handshakerP33tsi_ssl_server_handshaker_factoryPP14tsi_handshaker, 
                       __Z52alts_iovec_record_protocol_max_unprotected_data_sizePK26alts_iovec_record_protocolm, 
                       __Z52alts_iovec_record_protocol_privacy_integrity_protectP26alts_iovec_record_protocolPK5iovecmS1_PPc, 
                       __Z52grpc_iomgr_platform_add_closure_to_background_pollerP12grpc_closureP10grpc_error, 
                       __Z52grpc_stats_inc_http2_send_initial_metadata_per_writei, 
                       __Z53grpc_channel_args_get_client_channel_creation_mutatorv, 
                       __Z53grpc_channel_args_set_client_channel_creation_mutatorPFP17grpc_channel_argsPKcS0_23grpc_channel_stack_typeE, 
                       __Z53grpc_get_well_known_google_credentials_file_path_implv, 
                       __Z53grpc_stats_inc_http2_send_trailing_metadata_per_writei, 
                       __Z53tsi_create_ssl_client_handshaker_factory_with_optionsPK33tsi_ssl_client_handshaker_optionsPP33tsi_ssl_client_handshaker_factory, 
                       __Z53tsi_create_ssl_server_handshaker_factory_with_optionsPK33tsi_ssl_server_handshaker_optionsPP33tsi_ssl_server_handshaker_factory, 
                       __Z53tsi_handshaker_result_create_zero_copy_grpc_protectorPK21tsi_handshaker_resultPmPP28tsi_zero_copy_grpc_protector, 
                       __Z54alts_iovec_record_protocol_privacy_integrity_unprotectP26alts_iovec_record_protocol5iovecPKS1_mS1_PPc, 
                       __Z54gpr_global_config_get_grpc_default_ssl_roots_file_pathv, 
                       __Z54gpr_global_config_set_grpc_default_ssl_roots_file_pathPKc, 
                       __Z54grpc_fake_transport_security_server_credentials_createv, 
                       __Z55alts_grpc_record_protocol_convert_slice_buffer_to_iovecP25alts_grpc_record_protocolPK17grpc_slice_buffer, 
                       __Z58grpc_deadline_state_client_start_transport_stream_op_batchP17grpc_call_elementP30grpc_transport_stream_op_batch, 
                       __Z59grpc_oauth2_token_fetcher_credentials_parse_server_responsePK18grpc_http_responsePN4absl12lts_202111028optionalIN9grpc_core5SliceEEEPx, 
                       __Z60gpr_global_config_get_grpc_experimental_disable_flow_controlv, 
                       __Z60gpr_global_config_set_grpc_experimental_disable_flow_controlb, 
                       __Z61grpc_refresh_token_credentials_create_from_auth_refresh_token23grpc_auth_refresh_token, 
                       __Z65gpr_global_config_get_grpc_client_channel_backup_poll_interval_msv, 
                       __Z65gpr_global_config_set_grpc_client_channel_backup_poll_interval_msi, 
                       __Z69grpc_service_account_jwt_access_credentials_create_from_auth_json_key18grpc_auth_json_key12gpr_timespec, 
                       __Z8gpr_dumpPKcmj, __Z8gpr_ltoalPc, __Z8tcp_sendiPK6msghdri, 
                       __Z9pcre_execPK4pcrePK10pcre_extraPKciiiPii, __Z9pcre_freePv, 
                       __ZN14TlsCredentials25create_security_connectorEN9grpc_core13RefCountedPtrI21grpc_call_credentialsEEPKcPK17grpc_channel_argsPPS6_, 
                       __ZN14TlsCredentialsC1EN9grpc_core13RefCountedPtrI28grpc_tls_credentials_optionsEE, 
                       __ZN14TlsCredentialsC2EN9grpc_core13RefCountedPtrI28grpc_tls_credentials_optionsEE, 
                       __ZN14TlsCredentialsD0Ev, __ZN14TlsCredentialsD1Ev, __ZN14TlsCredentialsD2Ev, 
                       __ZN17grpc_auth_context12add_propertyEPKcS1_m, __ZN17grpc_auth_context15ensure_capacityEv, 
                       __ZN17grpc_auth_context20add_cstring_propertyEPKcS1_, __ZN17grpc_event_engine12experimental11EventEngine15ResolvedAddressC1EPK8sockaddrj, 
                       __ZN17grpc_event_engine12experimental11EventEngine15ResolvedAddressC2EPK8sockaddrj, 
                       __ZN17grpc_event_engine12experimental15MemoryAllocator9MakeSliceENS0_13MemoryRequestE, 
                       __ZN17grpc_event_engine12experimental17CreateEventEngineEv, 
                       __ZN17grpc_event_engine12experimental20ResolvedAddressToURIERKNS0_11EventEngine15ResolvedAddressE, 
                       __ZN17grpc_event_engine12experimental21CreateResolvedAddressERK21grpc_resolved_address, 
                       __ZN17grpc_event_engine12experimental21GetDefaultEventEngineEv, 
                       __ZN17grpc_event_engine12experimental25CreateGRPCResolvedAddressERKNS0_11EventEngine15ResolvedAddressE, 
                       __ZN17grpc_event_engine12experimental28SetDefaultEventEngineFactoryEPNSt3__18functionIFNS1_10unique_ptrINS0_11EventEngineENS1_14default_deleteIS4_EEEEvEEE, 
                       __ZN18grpc_chttp2_stream6RefferC1EPS_, __ZN18grpc_chttp2_stream6RefferC2EPS_, 
                       __ZN18grpc_chttp2_streamC1EP21grpc_chttp2_transportP20grpc_stream_refcountPKvPN9grpc_core5ArenaE, 
                       __ZN18grpc_chttp2_streamC2EP21grpc_chttp2_transportP20grpc_stream_refcountPKvPN9grpc_core5ArenaE, 
                       __ZN18grpc_chttp2_streamD1Ev, __ZN18grpc_chttp2_streamD2Ev, 
                       __ZN19grpc_deadline_stateC1EP17grpc_call_elementRK22grpc_call_element_argsx, 
                       __ZN19grpc_deadline_stateC2EP17grpc_call_elementRK22grpc_call_element_argsx, 
                       __ZN19grpc_deadline_stateD1Ev, __ZN19grpc_deadline_stateD2Ev, 
                       __ZN20TlsServerCredentials25create_security_connectorEPK17grpc_channel_args, 
                       __ZN20TlsServerCredentialsC1EN9grpc_core13RefCountedPtrI28grpc_tls_credentials_optionsEE, 
                       __ZN20TlsServerCredentialsC2EN9grpc_core13RefCountedPtrI28grpc_tls_credentials_optionsEE, 
                       __ZN20TlsServerCredentialsD0Ev, __ZN20TlsServerCredentialsD1Ev, 
                       __ZN20TlsServerCredentialsD2Ev, __ZN20grpc_ssl_credentials12build_configEPKcP26grpc_ssl_pem_key_cert_pairPK28grpc_ssl_verify_peer_options, 
                       __ZN20grpc_ssl_credentials19set_max_tls_versionE16grpc_tls_version, 
                       __ZN20grpc_ssl_credentials19set_min_tls_versionE16grpc_tls_version, 
                       __ZN20grpc_ssl_credentials25create_security_connectorEN9grpc_core13RefCountedPtrI21grpc_call_credentialsEEPKcPK17grpc_channel_argsPPS6_, 
                       __ZN20grpc_ssl_credentialsC1EPKcP26grpc_ssl_pem_key_cert_pairPK28grpc_ssl_verify_peer_options, 
                       __ZN20grpc_ssl_credentialsC2EPKcP26grpc_ssl_pem_key_cert_pairPK28grpc_ssl_verify_peer_options, 
                       __ZN20grpc_ssl_credentialsD0Ev, __ZN20grpc_ssl_credentialsD1Ev, 
                       __ZN20grpc_ssl_credentialsD2Ev, __ZN21grpc_alts_credentials25create_security_connectorEN9grpc_core13RefCountedPtrI21grpc_call_credentialsEEPKcPK17grpc_channel_argsPPS6_, 
                       __ZN21grpc_alts_credentialsC1EPK29grpc_alts_credentials_optionsPKc, 
                       __ZN21grpc_alts_credentialsC2EPK29grpc_alts_credentials_optionsPKc, 
                       __ZN21grpc_alts_credentialsD0Ev, __ZN21grpc_alts_credentialsD1Ev, 
                       __ZN21grpc_alts_credentialsD2Ev, __ZN21grpc_chttp2_transportC1EPK17grpc_channel_argsP13grpc_endpointb, 
                       __ZN21grpc_chttp2_transportC2EPK17grpc_channel_argsP13grpc_endpointb, 
                       __ZN21grpc_chttp2_transportD1Ev, __ZN21grpc_chttp2_transportD2Ev, 
                       __ZN22grpc_local_credentials25create_security_connectorEN9grpc_core13RefCountedPtrI21grpc_call_credentialsEEPKcPK17grpc_channel_argsPPS6_, 
                       __ZN22grpc_local_credentialsC1E23grpc_local_connect_type, 
                       __ZN22grpc_local_credentialsC2E23grpc_local_connect_type, 
                       __ZN23grpc_chttp2_data_parserD1Ev, __ZN23grpc_chttp2_data_parserD2Ev, 
                       __ZN23grpc_plugin_credentials12debug_stringEv, __ZN23grpc_plugin_credentials20get_request_metadataEP19grpc_polling_entity26grpc_auth_metadata_contextPNSt3__16vectorINS3_4pairIN9grpc_core5SliceES7_EENS3_9allocatorIS8_EEEEP12grpc_closurePP10grpc_error, 
                       __ZN23grpc_plugin_credentials24pending_request_completeEPNS_15pending_requestE, 
                       __ZN23grpc_plugin_credentials27cancel_get_request_metadataEPNSt3__16vectorINS0_4pairIN9grpc_core5SliceES4_EENS0_9allocatorIS5_EEEEP10grpc_error, 
                       __ZN23grpc_plugin_credentials29pending_request_remove_lockedEPNS_15pending_requestE, 
                       __ZN23grpc_plugin_credentialsC1E32grpc_metadata_credentials_plugin19grpc_security_level, 
                       __ZN23grpc_plugin_credentialsC2E32grpc_metadata_credentials_plugin19grpc_security_level, 
                       __ZN23grpc_plugin_credentialsD0Ev, __ZN23grpc_plugin_credentialsD1Ev, 
                       __ZN23grpc_plugin_credentialsD2Ev, __ZN23grpc_server_credentials27set_auth_metadata_processorERK28grpc_auth_metadata_processor, 
                       __ZN27grpc_google_iam_credentials20get_request_metadataEP19grpc_polling_entity26grpc_auth_metadata_contextPNSt3__16vectorINS3_4pairIN9grpc_core5SliceES7_EENS3_9allocatorIS8_EEEEP12grpc_closurePP10grpc_error, 
                       __ZN27grpc_google_iam_credentials27cancel_get_request_metadataEPNSt3__16vectorINS0_4pairIN9grpc_core5SliceES4_EENS0_9allocatorIS5_EEEEP10grpc_error, 
                       __ZN27grpc_google_iam_credentialsC1EPKcS1_, __ZN27grpc_google_iam_credentialsC2EPKcS1_, 
                       __ZN27grpc_ssl_server_credentials12build_configEPKcP26grpc_ssl_pem_key_cert_pairm40grpc_ssl_client_certificate_request_type, 
                       __ZN27grpc_ssl_server_credentials19set_max_tls_versionE16grpc_tls_version, 
                       __ZN27grpc_ssl_server_credentials19set_min_tls_versionE16grpc_tls_version, 
                       __ZN27grpc_ssl_server_credentials25create_security_connectorEPK17grpc_channel_args, 
                       __ZN27grpc_ssl_server_credentialsC1ERK35grpc_ssl_server_credentials_options, 
                       __ZN27grpc_ssl_server_credentialsC2ERK35grpc_ssl_server_credentials_options, 
                       __ZN27grpc_ssl_server_credentialsD0Ev, __ZN27grpc_ssl_server_credentialsD1Ev, 
                       __ZN27grpc_ssl_server_credentialsD2Ev, __ZN28grpc_alts_server_credentials25create_security_connectorEPK17grpc_channel_args, 
                       __ZN28grpc_alts_server_credentialsC1EPK29grpc_alts_credentials_optionsPKc, 
                       __ZN28grpc_alts_server_credentialsC2EPK29grpc_alts_credentials_optionsPKc, 
                       __ZN28grpc_alts_server_credentialsD0Ev, __ZN28grpc_alts_server_credentialsD1Ev, 
                       __ZN28grpc_alts_server_credentialsD2Ev, __ZN28grpc_client_security_contextD1Ev, 
                       __ZN28grpc_client_security_contextD2Ev, __ZN28grpc_server_security_contextD1Ev, 
                       __ZN28grpc_server_security_contextD2Ev, __ZN29grpc_access_token_credentials12debug_stringEv, 
                       __ZN29grpc_access_token_credentials20get_request_metadataEP19grpc_polling_entity26grpc_auth_metadata_contextPNSt3__16vectorINS3_4pairIN9grpc_core5SliceES7_EENS3_9allocatorIS8_EEEEP12grpc_closurePP10grpc_error, 
                       __ZN29grpc_access_token_credentials27cancel_get_request_metadataEPNSt3__16vectorINS0_4pairIN9grpc_core5SliceES4_EENS0_9allocatorIS5_EEEEP10grpc_error, 
                       __ZN29grpc_access_token_credentialsC1EPKc, __ZN29grpc_access_token_credentialsC2EPKc, 
                       __ZN29grpc_local_server_credentials25create_security_connectorEPK17grpc_channel_args, 
                       __ZN29grpc_local_server_credentialsC1E23grpc_local_connect_type, 
                       __ZN29grpc_local_server_credentialsC2E23grpc_local_connect_type, 
                       __ZN29grpc_md_only_test_credentials20get_request_metadataEP19grpc_polling_entity26grpc_auth_metadata_contextPNSt3__16vectorINS3_4pairIN9grpc_core5SliceES7_EENS3_9allocatorIS8_EEEEP12grpc_closurePP10grpc_error, 
                       __ZN29grpc_md_only_test_credentials27cancel_get_request_metadataEPNSt3__16vectorINS0_4pairIN9grpc_core5SliceES4_EENS0_9allocatorIS5_EEEEP10grpc_error, 
                       __ZN30grpc_server_security_connectorC2EPKcN9grpc_core13RefCountedPtrI23grpc_server_credentialsEE, 
                       __ZN30grpc_server_security_connectorD0Ev, __ZN30grpc_server_security_connectorD1Ev, 
                       __ZN30grpc_server_security_connectorD2Ev, __ZN31grpc_channel_security_connectorC2EPKcN9grpc_core13RefCountedPtrI24grpc_channel_credentialsEENS3_I21grpc_call_credentialsEE, 
                       __ZN31grpc_channel_security_connectorD0Ev, __ZN31grpc_channel_security_connectorD1Ev, 
                       __ZN31grpc_channel_security_connectorD2Ev, __ZN31grpc_composite_call_credentials12debug_stringEv, 
                       __ZN31grpc_composite_call_credentials13push_to_innerEN9grpc_core13RefCountedPtrI21grpc_call_credentialsEEb, 
                       __ZN31grpc_composite_call_credentials20get_request_metadataEP19grpc_polling_entity26grpc_auth_metadata_contextPNSt3__16vectorINS3_4pairIN9grpc_core5SliceES7_EENS3_9allocatorIS8_EEEEP12grpc_closurePP10grpc_error, 
                       __ZN31grpc_composite_call_credentials27cancel_get_request_metadataEPNSt3__16vectorINS0_4pairIN9grpc_core5SliceES4_EENS0_9allocatorIS5_EEEEP10grpc_error, 
                       __ZN31grpc_composite_call_credentialsC1EN9grpc_core13RefCountedPtrI21grpc_call_credentialsEES3_, 
                       __ZN31grpc_composite_call_credentialsC2EN9grpc_core13RefCountedPtrI21grpc_call_credentialsEES3_, 
                       __ZN32grpc_tls_certificate_distributor12HasRootCertsERKNSt3__112basic_stringIcNS0_11char_traitsIcEENS0_9allocatorIcEEEE, 
                       __ZN32grpc_tls_certificate_distributor15HasKeyCertPairsERKNSt3__112basic_stringIcNS0_11char_traitsIcEENS0_9allocatorIcEEEE, 
                       __ZN32grpc_tls_certificate_distributor15SetErrorForCertERKNSt3__112basic_stringIcNS0_11char_traitsIcEENS0_9allocatorIcEEEEN4absl12lts_202111028optionalIP10grpc_errorEESE_, 
                       __ZN32grpc_tls_certificate_distributor15SetKeyMaterialsERKNSt3__112basic_stringIcNS0_11char_traitsIcEENS0_9allocatorIcEEEEN4absl12lts_202111028optionalIS6_EENSB_INSA_13InlinedVectorIN9grpc_core14PemKeyCertPairELm1ENS4_ISF_EEEEEE, 
                       __ZN32grpc_tls_certificate_distributor20WatchTlsCertificatesENSt3__110unique_ptrINS_31TlsCertificatesWatcherInterfaceENS0_14default_deleteIS2_EEEEN4absl12lts_202111028optionalINS0_12basic_stringIcNS0_11char_traitsIcEENS0_9allocatorIcEEEEEESF_, 
                       __ZN32grpc_tls_certificate_distributor26CancelTlsCertificatesWatchEPNS_31TlsCertificatesWatcherInterfaceE, 
                       __ZN32grpc_tls_certificate_distributor8SetErrorEP10grpc_error, 
                       __ZN34grpc_composite_channel_credentials25create_security_connectorEN9grpc_core13RefCountedPtrI21grpc_call_credentialsEEPKcPK17grpc_channel_argsPPS6_, 
                       __ZN37grpc_google_refresh_token_credentials12debug_stringEv, 
                       __ZN37grpc_google_refresh_token_credentials12fetch_oauth2EP33grpc_credentials_metadata_requestP19grpc_polling_entityPFvPvP10grpc_errorEx, 
                       __ZN37grpc_google_refresh_token_credentialsC1E23grpc_auth_refresh_token, 
                       __ZN37grpc_google_refresh_token_credentialsC2E23grpc_auth_refresh_token, 
                       __ZN37grpc_google_refresh_token_credentialsD0Ev, __ZN37grpc_google_refresh_token_credentialsD1Ev, 
                       __ZN37grpc_google_refresh_token_credentialsD2Ev, __ZN37grpc_oauth2_token_fetcher_credentials12debug_stringEv, 
                       __ZN37grpc_oauth2_token_fetcher_credentials16on_http_responseEP33grpc_credentials_metadata_requestP10grpc_error, 
                       __ZN37grpc_oauth2_token_fetcher_credentials20get_request_metadataEP19grpc_polling_entity26grpc_auth_metadata_contextPNSt3__16vectorINS3_4pairIN9grpc_core5SliceES7_EENS3_9allocatorIS8_EEEEP12grpc_closurePP10grpc_error, 
                       __ZN37grpc_oauth2_token_fetcher_credentials27cancel_get_request_metadataEPNSt3__16vectorINS0_4pairIN9grpc_core5SliceES4_EENS0_9allocatorIS5_EEEEP10grpc_error, 
                       __ZN37grpc_oauth2_token_fetcher_credentialsC2Ev, __ZN37grpc_oauth2_token_fetcher_credentialsD0Ev, 
                       __ZN37grpc_oauth2_token_fetcher_credentialsD1Ev, __ZN37grpc_oauth2_token_fetcher_credentialsD2Ev, 
                       __ZN39grpc_google_default_channel_credentials16update_argumentsEP17grpc_channel_args, 
                       __ZN39grpc_google_default_channel_credentials25create_security_connectorEN9grpc_core13RefCountedPtrI21grpc_call_credentialsEEPKcPK17grpc_channel_argsPPS6_, 
                       __ZN3re210PCREWalker9PostVisitEPNS_6RegexpEbbPbi, __ZN3re210chartoruneEPiPKc, 
                       __ZN3re210runetocharEPcPKi, __ZN3re211FilteredRE214PrintPrefilterEi, 
                       __ZN3re211FilteredRE219RegexpsGivenStringsERKNSt3__16vectorIiNS1_9allocatorIiEEEEPS5_, 
                       __ZN3re211FilteredRE23AddERKNS_11StringPieceERKNS_3RE27OptionsEPi, 
                       __ZN3re211FilteredRE27CompileEPNSt3__16vectorINS1_12basic_stringIcNS1_11char_traitsIcEENS1_9allocatorIcEEEENS6_IS8_EEEE, 
                       __ZN3re211FilteredRE2C1EOS0_, __ZN3re211FilteredRE2C1Ei, __ZN3re211FilteredRE2C1Ev, 
                       __ZN3re211FilteredRE2C2EOS0_, __ZN3re211FilteredRE2C2Ei, __ZN3re211FilteredRE2C2Ev, 
                       __ZN3re211FilteredRE2D1Ev, __ZN3re211FilteredRE2D2Ev, __ZN3re211FilteredRE2aSEOS0_, 
                       __ZN3re211StringPiece4nposE, __ZN3re211perl_groupsE, __ZN3re212RegexpStatus4CopyERKS0_, 
                       __ZN3re212RegexpStatus8CodeTextENS_16RegexpStatusCodeE, __ZN3re212StringPrintfEPKcz, 
                       __ZN3re212posix_groupsE, __ZN3re212re2_internal5ParseINS_11StringPieceEEEbPKcmPT_, 
                       __ZN3re212re2_internal5ParseINSt3__112basic_stringIcNS2_11char_traitsIcEENS2_9allocatorIcEEEEEEbPKcmPT_, 
                       __ZN3re212re2_internal5ParseIaEEbPKcmPT_, __ZN3re212re2_internal5ParseIcEEbPKcmPT_, 
                       __ZN3re212re2_internal5ParseIdEEbPKcmPT_, __ZN3re212re2_internal5ParseIfEEbPKcmPT_, 
                       __ZN3re212re2_internal5ParseIhEEbPKcmPT_, __ZN3re212re2_internal5ParseIiEEbPKcmPT_i, 
                       __ZN3re212re2_internal5ParseIjEEbPKcmPT_i, __ZN3re212re2_internal5ParseIlEEbPKcmPT_i, 
                       __ZN3re212re2_internal5ParseImEEbPKcmPT_i, __ZN3re212re2_internal5ParseIsEEbPKcmPT_i, 
                       __ZN3re212re2_internal5ParseItEEbPKcmPT_i, __ZN3re212re2_internal5ParseIvEEbPKcmPT_, 
                       __ZN3re212re2_internal5ParseIxEEbPKcmPT_i, __ZN3re212re2_internal5ParseIyEEbPKcmPT_i, 
                       __ZN3re213CycleFoldRuneEi, __ZN3re213PrefilterTree13CanonicalNodeEPNSt3__13mapINS1_12basic_stringIcNS1_11char_traitsIcEENS1_9allocatorIcEEEEPNS_9PrefilterENS1_4lessIS8_EENS6_INS1_4pairIKS8_SA_EEEEEESA_, 
                       __ZN3re213PrefilterTree14PrintDebugInfoEPNSt3__13mapINS1_12basic_stringIcNS1_11char_traitsIcEENS1_9allocatorIcEEEEPNS_9PrefilterENS1_4lessIS8_EENS6_INS1_4pairIKS8_SA_EEEEEE, 
                       __ZN3re213PrefilterTree14PrintPrefilterEi, __ZN3re213PrefilterTree15AssignUniqueIdsEPNSt3__13mapINS1_12basic_stringIcNS1_11char_traitsIcEENS1_9allocatorIcEEEEPNS_9PrefilterENS1_4lessIS8_EENS6_INS1_4pairIKS8_SA_EEEEEEPNS1_6vectorIS8_NS6_IS8_EEEE, 
                       __ZN3re213PrefilterTree3AddEPNS_9PrefilterE, __ZN3re213PrefilterTree7CompileEPNSt3__16vectorINS1_12basic_stringIcNS1_11char_traitsIcEENS1_9allocatorIcEEEENS6_IS8_EEEE, 
                       __ZN3re213PrefilterTreeC1Ei, __ZN3re213PrefilterTreeC1Ev, 
                       __ZN3re213PrefilterTreeC2Ei, __ZN3re213PrefilterTreeC2Ev, 
                       __ZN3re213PrefilterTreeD1Ev, __ZN3re213PrefilterTreeD2Ev, 
                       __ZN3re214ByteMapBuilder4MarkEii, __ZN3re214ByteMapBuilder5BuildEPhPi, 
                       __ZN3re214ByteMapBuilder5MergeEv, __ZN3re214ByteMapBuilder7RecolorEi, 
                       __ZN3re214CoalesceWalker10DoCoalesceEPPNS_6RegexpES3_, __ZN3re214CoalesceWalker10ShortVisitEPNS_6RegexpES2_, 
                       __ZN3re214CoalesceWalker11CanCoalesceEPNS_6RegexpES2_, __ZN3re214CoalesceWalker4CopyEPNS_6RegexpE, 
                       __ZN3re214CoalesceWalker9PostVisitEPNS_6RegexpES2_S2_PS2_i, 
                       __ZN3re214LookupCaseFoldEPKNS_8CaseFoldEii, __ZN3re214OnePass_ChecksEv, 
                       __ZN3re214SimplifyWalker10ShortVisitEPNS_6RegexpES2_, __ZN3re214SimplifyWalker14SimplifyRepeatEPNS_6RegexpEiiNS1_10ParseFlagsE, 
                       __ZN3re214SimplifyWalker17SimplifyCharClassEPNS_6RegexpE, 
                       __ZN3re214SimplifyWalker4CopyEPNS_6RegexpE, __ZN3re214SimplifyWalker7Concat2EPNS_6RegexpES2_NS1_10ParseFlagsE, 
                       __ZN3re214SimplifyWalker8PreVisitEPNS_6RegexpES2_Pb, __ZN3re214SimplifyWalker9PostVisitEPNS_6RegexpES2_S2_PS2_i, 
                       __ZN3re214ToStringWalker8PreVisitEPNS_6RegexpEiPb, __ZN3re214ToStringWalker9PostVisitEPNS_6RegexpEiiPii, 
                       __ZN3re214unicode_groupsE, __ZN3re215PrefixSuccessorEPNSt3__112basic_stringIcNS0_11char_traitsIcEENS0_9allocatorIcEEEE, 
                       __ZN3re215num_perl_groupsE, __ZN3re215unicode_tolowerE, __ZN3re216CharClassBuilder10FoldsASCIIEv, 
                       __ZN3re216CharClassBuilder11RemoveAboveEi, __ZN3re216CharClassBuilder12AddCharClassEPS0_, 
                       __ZN3re216CharClassBuilder12GetCharClassEv, __ZN3re216CharClassBuilder13AddRangeFlagsEiiNS_6Regexp10ParseFlagsE, 
                       __ZN3re216CharClassBuilder4CopyEv, __ZN3re216CharClassBuilder6NegateEv, 
                       __ZN3re216CharClassBuilder8AddRangeEii, __ZN3re216CharClassBuilder8ContainsEi, 
                       __ZN3re216CharClassBuilderC1Ev, __ZN3re216CharClassBuilderC2Ev, 
                       __ZN3re216RepetitionWalker10ShortVisitEPNS_6RegexpEi, __ZN3re216RepetitionWalker8PreVisitEPNS_6RegexpEiPb, 
                       __ZN3re216RepetitionWalker9PostVisitEPNS_6RegexpEiiPii, __ZN3re216num_posix_groupsE, 
                       __ZN3re216unicode_casefoldE, __ZN3re217EmptyStringWalker9PostVisitEPNS_6RegexpEbbPbi, 
                       __ZN3re217ParseUnicodeGroupEPNS_11StringPieceENS_6Regexp10ParseFlagsEPNS_16CharClassBuilderEPNS_12RegexpStatusE, 
                       __ZN3re218num_unicode_groupsE, __ZN3re219ConvertLatin1ToUTF8ERKNS_11StringPieceEPNSt3__112basic_stringIcNS3_11char_traitsIcEENS3_9allocatorIcEEEE, 
                       __ZN3re219ConvertRunesToBytesEbPiiPNSt3__112basic_stringIcNS1_11char_traitsIcEENS1_9allocatorIcEEEE, 
                       __ZN3re219num_unicode_tolowerE, __ZN3re220num_unicode_casefoldE, 
                       __ZN3re221FactorAlternationImpl6Round1EPPNS_6RegexpEiNS1_10ParseFlagsEPNSt3__16vectorINS_6SpliceENS5_9allocatorIS7_EEEE, 
                       __ZN3re221FactorAlternationImpl6Round2EPPNS_6RegexpEiNS1_10ParseFlagsEPNSt3__16vectorINS_6SpliceENS5_9allocatorIS7_EEEE, 
                       __ZN3re221FactorAlternationImpl6Round3EPPNS_6RegexpEiNS1_10ParseFlagsEPNSt3__16vectorINS_6SpliceENS5_9allocatorIS7_EEEE, 
                       __ZN3re222MaybeParsePerlCCEscapeEPNS_11StringPieceENS_6Regexp10ParseFlagsE, 
                       __ZN3re224FLAGS_regexp_match_limitE, __ZN3re224FLAGS_regexp_stack_limitE, 
                       __ZN3re23DFA10AddToQueueEPNS0_5WorkqEij, __ZN3re23DFA10ClearCacheEv, 
                       __ZN3re23DFA10ResetCacheEPNS0_8RWLockerE, __ZN3re23DFA10StateSaver7RestoreEv, 
                       __ZN3re23DFA10StateSaverC1EPS0_PNS0_5StateE, __ZN3re23DFA10StateSaverC2EPS0_PNS0_5StateE, 
                       __ZN3re23DFA10StateSaverD1Ev, __ZN3re23DFA10StateSaverD2Ev, 
                       __ZN3re23DFA11CachedStateEPiij, __ZN3re23DFA12StateToWorkqEPNS0_5StateEPNS0_5WorkqE, 
                       __ZN3re23DFA13AnalyzeSearchEPNS0_12SearchParamsE, __ZN3re23DFA14BuildAllStatesERKNSt3__18functionIFvPKibEEE, 
                       __ZN3re23DFA14FastSearchLoopEPNS0_12SearchParamsE, __ZN3re23DFA14RunStateOnByteEPNS0_5StateEi, 
                       __ZN3re23DFA14RunWorkqOnByteEPNS0_5WorkqES2_ijPb, __ZN3re23DFA18PossibleMatchRangeEPNSt3__112basic_stringIcNS1_11char_traitsIcEENS1_9allocatorIcEEEES8_i, 
                       __ZN3re23DFA18WorkqToCachedStateEPNS0_5WorkqES2_j, __ZN3re23DFA19AnalyzeSearchHelperEPNS0_12SearchParamsEPNS0_9StartInfoEj, 
                       __ZN3re23DFA21RunWorkqOnEmptyStringEPNS0_5WorkqES2_j, __ZN3re23DFA22RunStateOnByteUnlockedEPNS0_5StateEi, 
                       __ZN3re23DFA6SearchERKNS_11StringPieceES3_bbbPbPPKcPNS_10SparseSetTIvEE, 
                       __ZN3re23DFA8RWLocker14LockForWritingEv, __ZN3re23DFA8RWLockerC1EPNS_5MutexE, 
                       __ZN3re23DFA8RWLockerC2EPNS_5MutexE, __ZN3re23DFA8RWLockerD1Ev, 
                       __ZN3re23DFA8RWLockerD2Ev, __ZN3re23DFA9DumpStateEPNS0_5StateE, 
                       __ZN3re23DFA9DumpWorkqEPNS0_5WorkqE, __ZN3re23DFA9SearchFFFEPNS0_12SearchParamsE, 
                       __ZN3re23DFA9SearchFFTEPNS0_12SearchParamsE, __ZN3re23DFA9SearchFTFEPNS0_12SearchParamsE, 
                       __ZN3re23DFA9SearchFTTEPNS0_12SearchParamsE, __ZN3re23DFA9SearchTFFEPNS0_12SearchParamsE, 
                       __ZN3re23DFA9SearchTFTEPNS0_12SearchParamsE, __ZN3re23DFA9SearchTTFEPNS0_12SearchParamsE, 
                       __ZN3re23DFA9SearchTTTEPNS0_12SearchParamsE, __ZN3re23DFAC1EPNS_4ProgENS1_9MatchKindEx, 
                       __ZN3re23DFAC2EPNS_4ProgENS1_9MatchKindEx, __ZN3re23DFAD1Ev, 
                       __ZN3re23DFAD2Ev, __ZN3re23NFA12AddToThreadqEPNS_11SparseArrayIPNS0_6ThreadEEEiiRKNS_11StringPieceEPKcS3_, 
                       __ZN3re23NFA13FormatCaptureEPPKc, __ZN3re23NFA4StepEPNS_11SparseArrayIPNS0_6ThreadEEES5_iRKNS_11StringPieceEPKc, 
                       __ZN3re23NFA6SearchERKNS_11StringPieceES3_bbPS1_i, __ZN3re23NFAC1EPNS_4ProgE, 
                       __ZN3re23NFAC2EPNS_4ProgE, __ZN3re23NFAD1Ev, __ZN3re23NFAD2Ev, 
                       __ZN3re23RE210FullMatchNERKNS_11StringPieceERKS0_PKPKNS0_3ArgEi, 
                       __ZN3re23RE211MaxSubmatchERKNS_11StringPieceE, __ZN3re23RE213GlobalReplaceEPNSt3__112basic_stringIcNS1_11char_traitsIcEENS1_9allocatorIcEEEERKS0_RKNS_11StringPieceE, 
                       __ZN3re23RE213PartialMatchNERKNS_11StringPieceERKS0_PKPKNS0_3ArgEi, 
                       __ZN3re23RE215FindAndConsumeNEPNS_11StringPieceERKS0_PKPKNS0_3ArgEi, 
                       __ZN3re23RE23Set3AddERKNS_11StringPieceEPNSt3__112basic_stringIcNS5_11char_traitsIcEENS5_9allocatorIcEEEE, 
                       __ZN3re23RE23Set7CompileEv, __ZN3re23RE23SetC1EOS1_, __ZN3re23RE23SetC1ERKNS0_7OptionsENS0_6AnchorE, 
                       __ZN3re23RE23SetC2EOS1_, __ZN3re23RE23SetC2ERKNS0_7OptionsENS0_6AnchorE, 
                       __ZN3re23RE23SetD1Ev, __ZN3re23RE23SetD2Ev, __ZN3re23RE23SetaSEOS1_, 
                       __ZN3re23RE24InitERKNS_11StringPieceERKNS0_7OptionsE, __ZN3re23RE27ExtractERKNS_11StringPieceERKS0_S3_PNSt3__112basic_stringIcNS6_11char_traitsIcEENS6_9allocatorIcEEEE, 
                       __ZN3re23RE27Options14kDefaultMaxMemE, __ZN3re23RE27OptionsC1ENS0_13CannedOptionsE, 
                       __ZN3re23RE27OptionsC2ENS0_13CannedOptionsE, __ZN3re23RE27ReplaceEPNSt3__112basic_stringIcNS1_11char_traitsIcEENS1_9allocatorIcEEEERKS0_RKNS_11StringPieceE, 
                       __ZN3re23RE28ConsumeNEPNS_11StringPieceERKS0_PKPKNS0_3ArgEi, 
                       __ZN3re23RE29QuoteMetaERKNS_11StringPieceE, __ZN3re23RE2C1EPKc, 
                       __ZN3re23RE2C1ERKNS_11StringPieceE, __ZN3re23RE2C1ERKNS_11StringPieceERKNS0_7OptionsE, 
                       __ZN3re23RE2C1ERKNSt3__112basic_stringIcNS1_11char_traitsIcEENS1_9allocatorIcEEEE, 
                       __ZN3re23RE2C2EPKc, __ZN3re23RE2C2ERKNS_11StringPieceE, __ZN3re23RE2C2ERKNS_11StringPieceERKNS0_7OptionsE, 
                       __ZN3re23RE2C2ERKNSt3__112basic_stringIcNS1_11char_traitsIcEENS1_9allocatorIcEEEE, 
                       __ZN3re23RE2D1Ev, __ZN3re23RE2D2Ev, __ZN3re24PCRE12PartialMatchE, 
                       __ZN3re24PCRE12no_more_argsE, __ZN3re24PCRE13ClearHitLimitEv, 
                       __ZN3re24PCRE13GlobalReplaceEPNSt3__112basic_stringIcNS1_11char_traitsIcEENS1_9allocatorIcEEEERKS0_RKNS_11StringPieceE, 
                       __ZN3re24PCRE14FindAndConsumeE, __ZN3re24PCRE3Arg10parse_charEPKcmPv, 
                       __ZN3re24PCRE3Arg10parse_longEPKcmPv, __ZN3re24PCRE3Arg10parse_nullEPKcmPv, 
                       __ZN3re24PCRE3Arg10parse_uintEPKcmPv, __ZN3re24PCRE3Arg11parse_floatEPKcmPv, 
                       __ZN3re24PCRE3Arg11parse_scharEPKcmPv, __ZN3re24PCRE3Arg11parse_shortEPKcmPv, 
                       __ZN3re24PCRE3Arg11parse_ucharEPKcmPv, __ZN3re24PCRE3Arg11parse_ulongEPKcmPv, 
                       __ZN3re24PCRE3Arg12parse_doubleEPKcmPv, __ZN3re24PCRE3Arg12parse_stringEPKcmPv, 
                       __ZN3re24PCRE3Arg12parse_ushortEPKcmPv, __ZN3re24PCRE3Arg13parse_int_hexEPKcmPv, 
                       __ZN3re24PCRE3Arg14parse_long_hexEPKcmPv, __ZN3re24PCRE3Arg14parse_longlongEPKcmPv, 
                       __ZN3re24PCRE3Arg14parse_uint_hexEPKcmPv, __ZN3re24PCRE3Arg15parse_int_octalEPKcmPv, 
                       __ZN3re24PCRE3Arg15parse_int_radixEPKcmPvi, __ZN3re24PCRE3Arg15parse_short_hexEPKcmPv, 
                       __ZN3re24PCRE3Arg15parse_ulong_hexEPKcmPv, __ZN3re24PCRE3Arg15parse_ulonglongEPKcmPv, 
                       __ZN3re24PCRE3Arg16parse_int_cradixEPKcmPv, __ZN3re24PCRE3Arg16parse_long_octalEPKcmPv, 
                       __ZN3re24PCRE3Arg16parse_long_radixEPKcmPvi, __ZN3re24PCRE3Arg16parse_uint_octalEPKcmPv, 
                       __ZN3re24PCRE3Arg16parse_uint_radixEPKcmPvi, __ZN3re24PCRE3Arg16parse_ushort_hexEPKcmPv, 
                       __ZN3re24PCRE3Arg17parse_long_cradixEPKcmPv, __ZN3re24PCRE3Arg17parse_short_octalEPKcmPv, 
                       __ZN3re24PCRE3Arg17parse_short_radixEPKcmPvi, __ZN3re24PCRE3Arg17parse_stringpieceEPKcmPv, 
                       __ZN3re24PCRE3Arg17parse_uint_cradixEPKcmPv, __ZN3re24PCRE3Arg17parse_ulong_octalEPKcmPv, 
                       __ZN3re24PCRE3Arg17parse_ulong_radixEPKcmPvi, __ZN3re24PCRE3Arg18parse_longlong_hexEPKcmPv, 
                       __ZN3re24PCRE3Arg18parse_short_cradixEPKcmPv, __ZN3re24PCRE3Arg18parse_ulong_cradixEPKcmPv, 
                       __ZN3re24PCRE3Arg18parse_ushort_octalEPKcmPv, __ZN3re24PCRE3Arg18parse_ushort_radixEPKcmPvi, 
                       __ZN3re24PCRE3Arg19parse_ulonglong_hexEPKcmPv, __ZN3re24PCRE3Arg19parse_ushort_cradixEPKcmPv, 
                       __ZN3re24PCRE3Arg20parse_longlong_octalEPKcmPv, __ZN3re24PCRE3Arg20parse_longlong_radixEPKcmPvi, 
                       __ZN3re24PCRE3Arg21parse_longlong_cradixEPKcmPv, __ZN3re24PCRE3Arg21parse_ulonglong_octalEPKcmPv, 
                       __ZN3re24PCRE3Arg21parse_ulonglong_radixEPKcmPvi, __ZN3re24PCRE3Arg22parse_ulonglong_cradixEPKcmPv, 
                       __ZN3re24PCRE3Arg9parse_intEPKcmPv, __ZN3re24PCRE4InitEPKcNS0_6OptionEiib, 
                       __ZN3re24PCRE7CompileENS0_6AnchorE, __ZN3re24PCRE7ConsumeE, 
                       __ZN3re24PCRE7ExtractERKNS_11StringPieceERKS0_S3_PNSt3__112basic_stringIcNS6_11char_traitsIcEENS6_9allocatorIcEEEE, 
                       __ZN3re24PCRE7ReplaceEPNSt3__112basic_stringIcNS1_11char_traitsIcEENS1_9allocatorIcEEEERKS0_RKNS_11StringPieceE, 
                       __ZN3re24PCRE8HitLimitEv, __ZN3re24PCRE9FullMatchE, __ZN3re24PCRE9QuoteMetaERKNS_11StringPieceE, 
                       __ZN3re24PCREC1EPKc, __ZN3re24PCREC1EPKcNS0_6OptionE, __ZN3re24PCREC1EPKcRKNS_12PCRE_OptionsE, 
                       __ZN3re24PCREC1ERKNSt3__112basic_stringIcNS1_11char_traitsIcEENS1_9allocatorIcEEEE, 
                       __ZN3re24PCREC1ERKNSt3__112basic_stringIcNS1_11char_traitsIcEENS1_9allocatorIcEEEENS0_6OptionE, 
                       __ZN3re24PCREC1ERKNSt3__112basic_stringIcNS1_11char_traitsIcEENS1_9allocatorIcEEEERKNS_12PCRE_OptionsE, 
                       __ZN3re24PCREC2EPKc, __ZN3re24PCREC2EPKcNS0_6OptionE, __ZN3re24PCREC2EPKcRKNS_12PCRE_OptionsE, 
                       __ZN3re24PCREC2ERKNSt3__112basic_stringIcNS1_11char_traitsIcEENS1_9allocatorIcEEEE, 
                       __ZN3re24PCREC2ERKNSt3__112basic_stringIcNS1_11char_traitsIcEENS1_9allocatorIcEEEENS0_6OptionE, 
                       __ZN3re24PCREC2ERKNSt3__112basic_stringIcNS1_11char_traitsIcEENS1_9allocatorIcEEEERKNS_12PCRE_OptionsE, 
                       __ZN3re24PCRED1Ev, __ZN3re24PCRED2Ev, __ZN3re24Prog10CompileSetEPNS_6RegexpENS_3RE26AnchorEx, 
                       __ZN3re24Prog10EmptyFlagsERKNS_11StringPieceEPKc, __ZN3re24Prog11DumpByteMapEv, 
                       __ZN3re24Prog12ComputeHintsEPNSt3__16vectorINS0_4InstENS1_9allocatorIS3_EEEEii, 
                       __ZN3re24Prog13MarkDominatorEiPNS_11SparseArrayIiEES3_PNSt3__16vectorINS5_IiNS4_9allocatorIiEEEENS6_IS8_EEEEPNS_10SparseSetTIvEEPS8_, 
                       __ZN3re24Prog13SearchOnePassERKNS_11StringPieceES3_NS0_6AnchorENS0_9MatchKindEPS1_i, 
                       __ZN3re24Prog14BuildEntireDFAENS0_9MatchKindERKNSt3__18functionIFvPKibEEE, 
                       __ZN3re24Prog14ComputeByteMapEv, __ZN3re24Prog14DumpUnanchoredEv, 
                       __ZN3re24Prog14MarkSuccessorsEPNS_11SparseArrayIiEES3_PNSt3__16vectorINS5_IiNS4_9allocatorIiEEEENS6_IS8_EEEEPNS_10SparseSetTIvEEPS8_, 
                       __ZN3re24Prog14SearchBitStateERKNS_11StringPieceES3_NS0_6AnchorENS0_9MatchKindEPS1_i, 
                       __ZN3re24Prog18PossibleMatchRangeEPNSt3__112basic_stringIcNS1_11char_traitsIcEENS1_9allocatorIcEEEES8_i, 
                       __ZN3re24Prog20ConfigurePrefixAccelERKNSt3__112basic_stringIcNS1_11char_traitsIcEENS1_9allocatorIcEEEEb, 
                       __ZN3re24Prog20PrefixAccel_ShiftDFAEPKvm, __ZN3re24Prog24PrefixAccel_FrontAndBackEPKvm, 
                       __ZN3re24Prog42TESTING_ONLY_set_dfa_should_bail_when_slowEb, 
                       __ZN3re24Prog4DumpEv, __ZN3re24Prog4Inst11InitCaptureEij, 
                       __ZN3re24Prog4Inst13InitByteRangeEiiij, __ZN3re24Prog4Inst14InitEmptyWidthENS_7EmptyOpEj, 
                       __ZN3re24Prog4Inst4DumpEv, __ZN3re24Prog4Inst7InitAltEjj, 
                       __ZN3re24Prog4Inst7InitNopEj, __ZN3re24Prog4Inst8InitFailEv, 
                       __ZN3re24Prog4Inst9InitMatchEi, __ZN3re24Prog6FanoutEPNS_11SparseArrayIiEE, 
                       __ZN3re24Prog6GetDFAENS0_9MatchKindE, __ZN3re24Prog7FlattenEv, 
                       __ZN3re24Prog8EmitListEiPNS_11SparseArrayIiEEPNSt3__16vectorINS0_4InstENS4_9allocatorIS6_EEEEPNS_10SparseSetTIvEEPNS5_IiNS7_IiEEEE, 
                       __ZN3re24Prog8OptimizeEv, __ZN3re24Prog9DeleteDFAEPNS_3DFAE, 
                       __ZN3re24Prog9IsOnePassEv, __ZN3re24Prog9SearchDFAERKNS_11StringPieceES3_NS0_6AnchorENS0_9MatchKindEPS1_PbPNS_10SparseSetTIvEE, 
                       __ZN3re24Prog9SearchNFAERKNS_11StringPieceES3_NS0_6AnchorENS0_9MatchKindEPS1_i, 
                       __ZN3re24ProgC1Ev, __ZN3re24ProgC2Ev, __ZN3re24ProgD1Ev, __ZN3re24ProgD2Ev, 
                       __ZN3re25hooks23GetDFASearchFailureHookEv, __ZN3re25hooks23SetDFASearchFailureHookEPFvRKNS0_16DFASearchFailureEE, 
                       __ZN3re25hooks25GetDFAStateCacheResetHookEv, __ZN3re25hooks25SetDFAStateCacheResetHookEPFvRKNS0_18DFAStateCacheResetEE, 
                       __ZN3re26Regexp10MimicsPCREEv, __ZN3re26Regexp10NewLiteralEiNS0_10ParseFlagsE, 
                       __ZN3re26Regexp10ParseState10DoCollapseENS_8RegexpOpE, __ZN3re26Regexp10ParseState10PushDollarEv, 
                       __ZN3re26Regexp10ParseState10PushRegexpEPS0_, __ZN3re26Regexp10ParseState11DoLeftParenERKNS_11StringPieceE, 
                       __ZN3re26Regexp10ParseState11PushLiteralEi, __ZN3re26Regexp10ParseState12DoRightParenEv, 
                       __ZN3re26Regexp10ParseState12FinishRegexpEPS0_, __ZN3re26Regexp10ParseState12ParseCCRangeEPNS_11StringPieceEPNS_9RuneRangeERKS2_PNS_12RegexpStatusE, 
                       __ZN3re26Regexp10ParseState12PushRepeatOpENS_8RegexpOpERKNS_11StringPieceEb, 
                       __ZN3re26Regexp10ParseState12PushSimpleOpENS_8RegexpOpE, __ZN3re26Regexp10ParseState13DoAlternationEv, 
                       __ZN3re26Regexp10ParseState13DoVerticalBarEv, __ZN3re26Regexp10ParseState14ParseCharClassEPNS_11StringPieceEPPS0_PNS_12RegexpStatusE, 
                       __ZN3re26Regexp10ParseState14ParsePerlFlagsEPNS_11StringPieceE, 
                       __ZN3re26Regexp10ParseState14PushRepetitionEiiRKNS_11StringPieceEb, 
                       __ZN3re26Regexp10ParseState15DoConcatenationEv, __ZN3re26Regexp10ParseState16ParseCCCharacterEPNS_11StringPieceEPiRKS2_PNS_12RegexpStatusE, 
                       __ZN3re26Regexp10ParseState16PushWordBoundaryEb, __ZN3re26Regexp10ParseState17MaybeConcatStringEiNS0_10ParseFlagsE, 
                       __ZN3re26Regexp10ParseState20DoLeftParenNoCaptureEv, __ZN3re26Regexp10ParseState7PushDotEv, 
                       __ZN3re26Regexp10ParseState8DoFinishEv, __ZN3re26Regexp10ParseState8IsMarkerENS_8RegexpOpE, 
                       __ZN3re26Regexp10ParseState9PushCaretEv, __ZN3re26Regexp10ParseStateC1ENS0_10ParseFlagsERKNS_11StringPieceEPNS_12RegexpStatusE, 
                       __ZN3re26Regexp10ParseStateC2ENS0_10ParseFlagsERKNS_11StringPieceEPNS_12RegexpStatusE, 
                       __ZN3re26Regexp10ParseStateD1Ev, __ZN3re26Regexp10ParseStateD2Ev, 
                       __ZN3re26Regexp11NumCapturesEv, __ZN3re26Regexp12CaptureNamesEv, 
                       __ZN3re26Regexp12NewCharClassEPNS_9CharClassENS0_10ParseFlagsE, 
                       __ZN3re26Regexp12QuickDestroyEv, __ZN3re26Regexp13CompileToProgEx, 
                       __ZN3re26Regexp13ComputeSimpleEv, __ZN3re26Regexp13LeadingRegexpEPS0_, 
                       __ZN3re26Regexp13LeadingStringEPS0_PiPNS0_10ParseFlagsE, __ZN3re26Regexp13LiteralStringEPiiNS0_10ParseFlagsE, 
                       __ZN3re26Regexp13NamedCapturesEv, __ZN3re26Regexp14RequiredPrefixEPNSt3__112basic_stringIcNS1_11char_traitsIcEENS1_9allocatorIcEEEEPbPPS0_, 
                       __ZN3re26Regexp14SimplifyRegexpERKNS_11StringPieceENS0_10ParseFlagsEPNSt3__112basic_stringIcNS5_11char_traitsIcEENS5_9allocatorIcEEEEPNS_12RegexpStatusE, 
                       __ZN3re26Regexp15AddRuneToStringEi, __ZN3re26Regexp15StarPlusOrQuestENS_8RegexpOpEPS0_NS0_10ParseFlagsE, 
                       __ZN3re26Regexp17AlternateNoFactorEPPS0_iNS0_10ParseFlagsE, 
                       __ZN3re26Regexp17ConcatOrAlternateENS_8RegexpOpEPPS0_iNS0_10ParseFlagsEb, 
                       __ZN3re26Regexp17FactorAlternationEPPS0_iNS0_10ParseFlagsE, 
                       __ZN3re26Regexp19RemoveLeadingRegexpEPS0_, __ZN3re26Regexp19RemoveLeadingStringEPS0_i, 
                       __ZN3re26Regexp20CompileToReverseProgEx, __ZN3re26Regexp22RequiredPrefixForAccelEPNSt3__112basic_stringIcNS1_11char_traitsIcEENS1_9allocatorIcEEEEPb, 
                       __ZN3re26Regexp37FUZZING_ONLY_set_maximum_repeat_countEi, 
                       __ZN3re26Regexp3RefEv, __ZN3re26Regexp4PlusEPS0_NS0_10ParseFlagsE, 
                       __ZN3re26Regexp4StarEPS0_NS0_10ParseFlagsE, __ZN3re26Regexp4SwapEPS0_, 
                       __ZN3re26Regexp5EqualEPS0_S1_, __ZN3re26Regexp5ParseERKNS_11StringPieceENS0_10ParseFlagsEPNS_12RegexpStatusE, 
                       __ZN3re26Regexp5QuestEPS0_NS0_10ParseFlagsE, __ZN3re26Regexp6ConcatEPPS0_iNS0_10ParseFlagsE, 
                       __ZN3re26Regexp6DecrefEv, __ZN3re26Regexp6IncrefEv, __ZN3re26Regexp6RepeatEPS0_NS0_10ParseFlagsEii, 
                       __ZN3re26Regexp7CaptureEPS0_NS0_10ParseFlagsEi, __ZN3re26Regexp7DestroyEv, 
                       __ZN3re26Regexp8SimplifyEv, __ZN3re26Regexp8ToStringEv, __ZN3re26Regexp9AlternateEPPS0_iNS0_10ParseFlagsE, 
                       __ZN3re26Regexp9HaveMatchEiNS0_10ParseFlagsE, __ZN3re26RegexpC1ENS_8RegexpOpENS0_10ParseFlagsE, 
                       __ZN3re26RegexpC2ENS_8RegexpOpENS0_10ParseFlagsE, __ZN3re26RegexpD1Ev, 
                       __ZN3re26RegexpD2Ev, __ZN3re26utflenEPKc, __ZN3re27CEscapeERKNS_11StringPieceE, 
                       __ZN3re27runelenEi, __ZN3re27utfruneEPKci, __ZN3re28BitState4PushEiPKc, 
                       __ZN3re28BitState6SearchERKNS_11StringPieceES3_bbPS1_i, __ZN3re28BitState9GrowStackEv, 
                       __ZN3re28BitState9TrySearchEiPKc, __ZN3re28BitStateC1EPNS_4ProgE, 
                       __ZN3re28BitStateC2EPNS_4ProgE, __ZN3re28Compiler10BeginRangeEv, 
                       __ZN3re28Compiler10CompileSetEPNS_6RegexpENS_3RE26AnchorEx, 
                       __ZN3re28Compiler10EmptyWidthENS_7EmptyOpE, __ZN3re28Compiler10ShortVisitEPNS_6RegexpENS_4FragE, 
                       __ZN3re28Compiler12AddRuneRangeEiib, __ZN3re28Compiler13Add_80_10ffffEv, 
                       __ZN3re28Compiler13FindByteRangeEii, __ZN3re28Compiler14ByteRangeEqualEii, 
                       __ZN3re28Compiler16AddRuneRangeUTF8Eiib, __ZN3re28Compiler18AddRuneRangeLatin1Eiib, 
                       __ZN3re28Compiler18AddSuffixRecursiveEii, __ZN3re28Compiler20CachedRuneByteSuffixEhhbi, 
                       __ZN3re28Compiler22IsCachedRuneByteSuffixEi, __ZN3re28Compiler22UncachedRuneByteSuffixEhhbi, 
                       __ZN3re28Compiler3AltENS_4FragES1_, __ZN3re28Compiler3CatENS_4FragES1_, 
                       __ZN3re28Compiler3NopEv, __ZN3re28Compiler4CopyENS_4FragE, 
                       __ZN3re28Compiler4PlusENS_4FragEb, __ZN3re28Compiler4StarENS_4FragEb, 
                       __ZN3re28Compiler5MatchEi, __ZN3re28Compiler5QuestENS_4FragEb, 
                       __ZN3re28Compiler5SetupENS_6Regexp10ParseFlagsExNS_3RE26AnchorE, 
                       __ZN3re28Compiler6FinishEPNS_6RegexpE, __ZN3re28Compiler7CaptureENS_4FragEi, 
                       __ZN3re28Compiler7CompileEPNS_6RegexpEbx, __ZN3re28Compiler7DotStarEv, 
                       __ZN3re28Compiler7LiteralEib, __ZN3re28Compiler7NoMatchEv, 
                       __ZN3re28Compiler8EndRangeEv, __ZN3re28Compiler8PreVisitEPNS_6RegexpENS_4FragEPb, 
                       __ZN3re28Compiler9AddSuffixEi, __ZN3re28Compiler9AllocInstEi, 
                       __ZN3re28Compiler9ByteRangeEiib, __ZN3re28Compiler9PostVisitEPNS_6RegexpENS_4FragES3_PS3_i, 
                       __ZN3re28CompilerC1Ev, __ZN3re28CompilerC2Ev, __ZN3re28CompilerD0Ev, 
                       __ZN3re28CompilerD1Ev, __ZN3re28CompilerD2Ev, __ZN3re28fullruneEPKci, 
                       __ZN3re29ApplyFoldEPKNS_8CaseFoldEi, __ZN3re29CharClass3NewEm, 
                       __ZN3re29CharClass6DeleteEv, __ZN3re29CharClass6NegateEv, 
                       __ZN3re29Prefilter10FromRegexpEPNS_6RegexpE, __ZN3re29Prefilter10FromStringERKNSt3__112basic_stringIcNS1_11char_traitsIcEENS1_9allocatorIcEEEE, 
                       __ZN3re29Prefilter2OrEPS0_S1_, __ZN3re29Prefilter3AndEPS0_S1_, 
                       __ZN3re29Prefilter4Info11EmptyStringEv, __ZN3re29Prefilter4Info13LiteralLatin1Ei, 
                       __ZN3re29Prefilter4Info16AnyCharOrAnyByteEv, __ZN3re29Prefilter4Info3AltEPS1_S2_, 
                       __ZN3re29Prefilter4Info3AndEPS1_S2_, __ZN3re29Prefilter4Info4PlusEPS1_, 
                       __ZN3re29Prefilter4Info4StarEPS1_, __ZN3re29Prefilter4Info5QuestEPS1_, 
                       __ZN3re29Prefilter4Info6CClassEPNS_9CharClassEb, __ZN3re29Prefilter4Info6ConcatEPS1_S2_, 
                       __ZN3re29Prefilter4Info6Walker10ShortVisitEPNS_6RegexpEPS1_, 
                       __ZN3re29Prefilter4Info6Walker9PostVisitEPNS_6RegexpEPS1_S5_PS5_i, 
                       __ZN3re29Prefilter4Info7LiteralEi, __ZN3re29Prefilter4Info7NoMatchEv, 
                       __ZN3re29Prefilter4Info8AnyMatchEv, __ZN3re29Prefilter4Info8ToStringEv, 
                       __ZN3re29Prefilter4Info9TakeMatchEv, __ZN3re29Prefilter4InfoC1Ev, 
                       __ZN3re29Prefilter4InfoC2Ev, __ZN3re29Prefilter4InfoD1Ev, 
                       __ZN3re29Prefilter4InfoD2Ev, __ZN3re29Prefilter5AndOrENS0_2OpEPS0_S2_, 
                       __ZN3re29Prefilter7FromRE2EPKNS_3RE2E, __ZN3re29Prefilter8SimplifyEv, 
                       __ZN3re29Prefilter9BuildInfoEPNS_6RegexpE, __ZN3re29Prefilter9OrStringsEPNSt3__13setINS1_12basic_stringIcNS1_11char_traitsIcEENS1_9allocatorIcEEEENS1_4lessIS8_EENS6_IS8_EEEE, 
                       __ZN3re29PrefilterC1ENS0_2OpE, __ZN3re29PrefilterC2ENS0_2OpE, 
                       __ZN3re29PrefilterD1Ev, __ZN3re29PrefilterD2Ev, __ZN3re2lsERNSt3__113basic_ostreamIcNS0_11char_traitsIcEEEERKNS_11StringPieceE, 
                       __ZN3tsi16SslCachedSession6CreateENSt3__110unique_ptrI14ssl_session_stNS_17SslSessionDeleterEEE, 
                       __ZN3tsi18SslSessionLRUCache10FindLockedERKNSt3__112basic_stringIcNS1_11char_traitsIcEENS1_9allocatorIcEEEE, 
                       __ZN3tsi18SslSessionLRUCache16AssertInvariantsEv, __ZN3tsi18SslSessionLRUCache3GetEPKc, 
                       __ZN3tsi18SslSessionLRUCache3PutEPKcNSt3__110unique_ptrI14ssl_session_stNS_17SslSessionDeleterEEE, 
                       __ZN3tsi18SslSessionLRUCache4SizeEv, __ZN3tsi18SslSessionLRUCache6RemoveEPNS0_4NodeE, 
                       __ZN3tsi18SslSessionLRUCache9PushFrontEPNS0_4NodeE, __ZN3tsi18SslSessionLRUCacheC1Em, 
                       __ZN3tsi18SslSessionLRUCacheC2Em, __ZN3tsi18SslSessionLRUCacheD0Ev, 
                       __ZN3tsi18SslSessionLRUCacheD1Ev, __ZN3tsi18SslSessionLRUCacheD2Ev, 
                       __ZN43grpc_service_account_jwt_access_credentials20get_request_metadataEP19grpc_polling_entity26grpc_auth_metadata_contextPNSt3__16vectorINS3_4pairIN9grpc_core5SliceES7_EENS3_9allocatorIS8_EEEEP12grpc_closurePP10grpc_error, 
                       __ZN43grpc_service_account_jwt_access_credentials27cancel_get_request_metadataEPNSt3__16vectorINS0_4pairIN9grpc_core5SliceES4_EENS0_9allocatorIS5_EEEEP10grpc_error, 
                       __ZN43grpc_service_account_jwt_access_credentialsC1E18grpc_auth_json_key12gpr_timespec, 
                       __ZN43grpc_service_account_jwt_access_credentialsC2E18grpc_auth_json_key12gpr_timespec, 
                       __ZN43grpc_service_account_jwt_access_credentialsD0Ev, __ZN43grpc_service_account_jwt_access_credentialsD1Ev, 
                       __ZN43grpc_service_account_jwt_access_credentialsD2Ev, __ZN9grpc_core10HPackTable11SetMaxBytesEj, 
                       __ZN9grpc_core10HPackTable14StaticMementosC1Ev, __ZN9grpc_core10HPackTable14StaticMementosC2Ev, 
                       __ZN9grpc_core10HPackTable17GetStaticMementosEv, __ZN9grpc_core10HPackTable19SetCurrentTableSizeEj, 
                       __ZN9grpc_core10HPackTable3AddENS_14ParsedMetadataI19grpc_metadata_batchEE, 
                       __ZN9grpc_core10HPackTable7RebuildEj, __ZN9grpc_core10HPackTable8EvictOneEv, 
                       __ZN9grpc_core10HPackTableC1Ev, __ZN9grpc_core10HPackTableC2Ev, 
                       __ZN9grpc_core10HPackTableD1Ev, __ZN9grpc_core10HPackTableD2Ev, 
                       __ZN9grpc_core10RbacFilter13kFilterVtableE, __ZN9grpc_core10RbacFilter4InitEP20grpc_channel_elementP25grpc_channel_element_args, 
                       __ZN9grpc_core10RbacFilter7DestroyEP20grpc_channel_element, 
                       __ZN9grpc_core10RbacFilter8CallData24RecvInitialMetadataReadyEPvP10grpc_error, 
                       __ZN9grpc_core10RbacFilter8CallData27StartTransportStreamOpBatchEP17grpc_call_elementP30grpc_transport_stream_op_batch, 
                       __ZN9grpc_core10RbacFilter8CallData4InitEP17grpc_call_elementPK22grpc_call_element_args, 
                       __ZN9grpc_core10RbacFilter8CallData7DestroyEP17grpc_call_elementPK20grpc_call_final_infoP12grpc_closure, 
                       __ZN9grpc_core10RbacFilter8CallDataC1EP17grpc_call_elementRK22grpc_call_element_args, 
                       __ZN9grpc_core10RbacFilter8CallDataC2EP17grpc_call_elementRK22grpc_call_element_args, 
                       __ZN9grpc_core10RbacFilterC1EmNS_12EvaluateArgs14PerChannelArgsE, 
                       __ZN9grpc_core10RbacFilterC2EmNS_12EvaluateArgs14PerChannelArgsE, 
                       __ZN9grpc_core10Subchannel12OnRetryAlarmEPvP10grpc_error, 
                       __ZN9grpc_core10Subchannel12ResetBackoffEv, __ZN9grpc_core10Subchannel13channelz_nodeEv, 
                       __ZN9grpc_core10Subchannel16AttemptToConnectEv, __ZN9grpc_core10Subchannel16HealthWatcherMap12NotifyLockedE23grpc_connectivity_stateRKN4absl12lts_202111026StatusE, 
                       __ZN9grpc_core10Subchannel16HealthWatcherMap14ShutdownLockedEv, 
                       __ZN9grpc_core10Subchannel16HealthWatcherMap16AddWatcherLockedENS_17WeakRefCountedPtrIS0_EE23grpc_connectivity_stateRKNSt3__112basic_stringIcNS5_11char_traitsIcEENS5_9allocatorIcEEEENS_13RefCountedPtrINS0_33ConnectivityStateWatcherInterfaceEEE, 
                       __ZN9grpc_core10Subchannel16HealthWatcherMap19RemoveWatcherLockedERKNSt3__112basic_stringIcNS2_11char_traitsIcEENS2_9allocatorIcEEEEPNS0_33ConnectivityStateWatcherInterfaceE, 
                       __ZN9grpc_core10Subchannel16HealthWatcherMap28CheckConnectivityStateLockedEPS0_RKNSt3__112basic_stringIcNS3_11char_traitsIcEENS3_9allocatorIcEEEE, 
                       __ZN9grpc_core10Subchannel20OnConnectingFinishedEPvP10grpc_error, 
                       __ZN9grpc_core10Subchannel21ThrottleKeepaliveTimeEi, __ZN9grpc_core10Subchannel22CheckConnectivityStateERKN4absl12lts_202111028optionalINSt3__112basic_stringIcNS4_11char_traitsIcEENS4_9allocatorIcEEEEEE, 
                       __ZN9grpc_core10Subchannel22PublishTransportLockedEv, __ZN9grpc_core10Subchannel22WatchConnectivityStateE23grpc_connectivity_stateRKN4absl12lts_202111028optionalINSt3__112basic_stringIcNS5_11char_traitsIcEENS5_9allocatorIcEEEEEENS_13RefCountedPtrINS0_33ConnectivityStateWatcherInterfaceEEE, 
                       __ZN9grpc_core10Subchannel24ContinueConnectingLockedEv, __ZN9grpc_core10Subchannel26MaybeStartConnectingLockedEv, 
                       __ZN9grpc_core10Subchannel26SetConnectivityStateLockedE23grpc_connectivity_stateRKN4absl12lts_202111026StatusE, 
                       __ZN9grpc_core10Subchannel28CancelConnectivityStateWatchERKN4absl12lts_202111028optionalINSt3__112basic_stringIcNS4_11char_traitsIcEENS4_9allocatorIcEEEEEEPNS0_33ConnectivityStateWatcherInterfaceE, 
                       __ZN9grpc_core10Subchannel28ConnectivityStateWatcherList12NotifyLockedE23grpc_connectivity_stateRKN4absl12lts_202111026StatusE, 
                       __ZN9grpc_core10Subchannel28ConnectivityStateWatcherList16AddWatcherLockedENS_13RefCountedPtrINS0_33ConnectivityStateWatcherInterfaceEEE, 
                       __ZN9grpc_core10Subchannel28ConnectivityStateWatcherList19RemoveWatcherLockedEPNS0_33ConnectivityStateWatcherInterfaceE, 
                       __ZN9grpc_core10Subchannel33ConnectivityStateWatcherInterface26PopConnectivityStateChangeEv, 
                       __ZN9grpc_core10Subchannel33ConnectivityStateWatcherInterface27PushConnectivityStateChangeENS1_23ConnectivityStateChangeE, 
                       __ZN9grpc_core10Subchannel6CreateENSt3__110unique_ptrINS_19SubchannelConnectorENS_16OrphanableDeleteEEERK21grpc_resolved_addressPK17grpc_channel_args, 
                       __ZN9grpc_core10Subchannel6OrphanEv, __ZN9grpc_core10SubchannelC1ENS_13SubchannelKeyENSt3__110unique_ptrINS_19SubchannelConnectorENS_16OrphanableDeleteEEEPK17grpc_channel_args, 
                       __ZN9grpc_core10SubchannelC2ENS_13SubchannelKeyENSt3__110unique_ptrINS_19SubchannelConnectorENS_16OrphanableDeleteEEEPK17grpc_channel_args, 
                       __ZN9grpc_core10SubchannelD0Ev, __ZN9grpc_core10SubchannelD1Ev, 
                       __ZN9grpc_core10SubchannelD2Ev, __ZN9grpc_core10ThreadPool16DefaultStackSizeEv, 
                       __ZN9grpc_core10ThreadPool24AssertHasNotBeenShutDownEv, __ZN9grpc_core10ThreadPool27SharedThreadPoolConstructorEv, 
                       __ZN9grpc_core10ThreadPool3AddEP29grpc_completion_queue_functor, 
                       __ZN9grpc_core10ThreadPoolC1Ei, __ZN9grpc_core10ThreadPoolC1EiPKc, 
                       __ZN9grpc_core10ThreadPoolC1EiPKcRKNS_6Thread7OptionsE, __ZN9grpc_core10ThreadPoolC2Ei, 
                       __ZN9grpc_core10ThreadPoolC2EiPKc, __ZN9grpc_core10ThreadPoolC2EiPKcRKNS_6Thread7OptionsE, 
                       __ZN9grpc_core10ThreadPoolD0Ev, __ZN9grpc_core10ThreadPoolD1Ev, 
                       __ZN9grpc_core10ThreadPoolD2Ev, __ZN9grpc_core10ToAbslTimeE12gpr_timespec, 
                       __ZN9grpc_core10XdsRouting14GetHeaderValueEP19grpc_metadata_batchN4absl12lts_2021110211string_viewEPNSt3__112basic_stringIcNS6_11char_traitsIcEENS6_9allocatorIcEEEE, 
                       __ZN9grpc_core10XdsRouting18GetRouteForRequestERKNS0_17RouteListIteratorEN4absl12lts_2021110211string_viewEP19grpc_metadata_batch, 
                       __ZN9grpc_core10XdsRouting20IsValidDomainPatternEN4absl12lts_2021110211string_viewE, 
                       __ZN9grpc_core10XdsRouting24FindVirtualHostForDomainERKNS0_23VirtualHostListIteratorEN4absl12lts_2021110211string_viewE, 
                       __ZN9grpc_core10XdsRouting28GeneratePerHTTPFilterConfigsERKNSt3__16vectorINS_19XdsListenerResource21HttpConnectionManager10HttpFilterENS1_9allocatorIS5_EEEERKNS_22XdsRouteConfigResource11VirtualHostERKNSB_5RouteEPKNSF_11RouteAction13ClusterWeightEP17grpc_channel_args, 
                       __ZN9grpc_core11ChannelInit7Builder13RegisterStageE23grpc_channel_stack_typeiNSt3__18functionIFbP26grpc_channel_stack_builderEEE, 
                       __ZN9grpc_core11ChannelInit7Builder5BuildEv, __ZN9grpc_core11ContextList6AppendEPPS0_P18grpc_chttp2_stream, 
                       __ZN9grpc_core11ContextList7ExecuteEPvPNS_10TimestampsEP10grpc_error, 
                       __ZN9grpc_core11HPackParser10BeginFrameEP19grpc_metadata_batchjNS0_8BoundaryENS0_8PriorityENS0_7LogInfoE, 
                       __ZN9grpc_core11HPackParser10ParseInputENS0_5InputEb, __ZN9grpc_core11HPackParser11FinishFrameEv, 
                       __ZN9grpc_core11HPackParser15ParseInputInnerEPNS0_5InputE, 
                       __ZN9grpc_core11HPackParser5ParseERK10grpc_sliceb, __ZN9grpc_core11HPackParser6String4TakeENS1_6ExternE, 
                       __ZN9grpc_core11HPackParser6String4TakeENS1_6InternE, __ZN9grpc_core11HPackParserC1Ev, 
                       __ZN9grpc_core11HPackParserC2Ev, __ZN9grpc_core11HPackParserD1Ev, 
                       __ZN9grpc_core11HPackParserD2Ev, __ZN9grpc_core11MemoryOwner6RebindEPNS_11MemoryQuotaE, 
                       __ZN9grpc_core11MemoryQuota17CreateMemoryOwnerEN4absl12lts_2021110211string_viewE, 
                       __ZN9grpc_core11MemoryQuota21CreateMemoryAllocatorEN4absl12lts_2021110211string_viewE, 
                       __ZN9grpc_core11ThreadQuota6SetMaxEm, __ZN9grpc_core11ThreadQuota7ReleaseEm, 
                       __ZN9grpc_core11ThreadQuota7ReserveEm, __ZN9grpc_core11ThreadQuotaC1Ev, 
                       __ZN9grpc_core11ThreadQuotaC2Ev, __ZN9grpc_core11ThreadQuotaD0Ev, 
                       __ZN9grpc_core11ThreadQuotaD1Ev, __ZN9grpc_core11ThreadQuotaD2Ev, 
                       __ZN9grpc_core11g_hash_seedE, __ZN9grpc_core12BdpEstimator12CompletePingEv, 
                       __ZN9grpc_core12BdpEstimatorC1EPKc, __ZN9grpc_core12BdpEstimatorC2EPKc, 
                       __ZN9grpc_core12CallCombiner15ScheduleClosureEP12grpc_closureP10grpc_error, 
                       __ZN9grpc_core12CallCombiner17SetNotifyOnCancelEP12grpc_closure, 
                       __ZN9grpc_core12CallCombiner4StopEPKciS2_, __ZN9grpc_core12CallCombiner5StartEP12grpc_closureP10grpc_errorPKciS6_, 
                       __ZN9grpc_core12CallCombiner6CancelEP10grpc_error, __ZN9grpc_core12CallCombinerC1Ev, 
                       __ZN9grpc_core12CallCombinerC2Ev, __ZN9grpc_core12CallCombinerD1Ev, 
                       __ZN9grpc_core12CallCombinerD2Ev, __ZN9grpc_core12EvaluateArgs14PerChannelArgsC1EP17grpc_auth_contextP13grpc_endpoint, 
                       __ZN9grpc_core12EvaluateArgs14PerChannelArgsC2EP17grpc_auth_contextP13grpc_endpoint, 
                       __ZN9grpc_core12FakeResolver11StartLockedEv, __ZN9grpc_core12FakeResolver14ShutdownLockedEv, 
                       __ZN9grpc_core12FakeResolver21MaybeSendResultLockedEv, __ZN9grpc_core12FakeResolver24ReturnReresolutionResultEv, 
                       __ZN9grpc_core12FakeResolver25RequestReresolutionLockedEv, 
                       __ZN9grpc_core12FakeResolverC1ENS_12ResolverArgsE, __ZN9grpc_core12FakeResolverC2ENS_12ResolverArgsE, 
                       __ZN9grpc_core12FakeResolverD0Ev, __ZN9grpc_core12FakeResolverD1Ev, 
                       __ZN9grpc_core12FakeResolverD2Ev, __ZN9grpc_core12JoinHostPortEN4absl12lts_2021110211string_viewEi, 
                       __ZN9grpc_core12ParseTimeoutERKNS_5SliceE, __ZN9grpc_core12StatusCreateEN4absl12lts_2021110210StatusCodeENS1_11string_viewERKNS_13DebugLocationENSt3__16vectorINS1_6StatusENS7_9allocatorIS9_EEEE, 
                       __ZN9grpc_core12StatusGetIntERKN4absl12lts_202111026StatusENS_17StatusIntPropertyE, 
                       __ZN9grpc_core12StatusGetStrERKN4absl12lts_202111026StatusENS_17StatusStrPropertyE, 
                       __ZN9grpc_core12StatusSetIntEPN4absl12lts_202111026StatusENS_17StatusIntPropertyEl, 
                       __ZN9grpc_core12StatusSetStrEPN4absl12lts_202111026StatusENS_17StatusStrPropertyENS1_11string_viewE, 
                       __ZN9grpc_core12VarintLengthEj, __ZN9grpc_core12XdsBootstrap13ParseLocalityEPNS_4JsonE, 
                       __ZN9grpc_core12XdsBootstrap14ParseAuthorityEPNS_4JsonERKNSt3__112basic_stringIcNS3_11char_traitsIcEENS3_9allocatorIcEEEE, 
                       __ZN9grpc_core12XdsBootstrap16ParseAuthoritiesEPNS_4JsonE, 
                       __ZN9grpc_core12XdsBootstrap18ParseXdsServerListEPNS_4JsonEPN4absl12lts_2021110213InlinedVectorINS0_9XdsServerELm1ENSt3__19allocatorIS6_EEEE, 
                       __ZN9grpc_core12XdsBootstrap24ParseCertificateProviderERKNSt3__112basic_stringIcNS1_11char_traitsIcEENS1_9allocatorIcEEEEPNS_4JsonE, 
                       __ZN9grpc_core12XdsBootstrap25ParseCertificateProvidersEPNS_4JsonE, 
                       __ZN9grpc_core12XdsBootstrap6CreateEN4absl12lts_2021110211string_viewEPP10grpc_error, 
                       __ZN9grpc_core12XdsBootstrap9ParseNodeEPNS_4JsonE, __ZN9grpc_core12XdsBootstrap9XdsServer5ParseERKNS_4JsonEPP10grpc_error, 
                       __ZN9grpc_core12XdsBootstrapC1ENS_4JsonEPP10grpc_error, __ZN9grpc_core12XdsBootstrapC2ENS_4JsonEPP10grpc_error, 
                       __ZN9grpc_core13ClientChannel12DoPingLockedEP17grpc_transport_op, 
                       __ZN9grpc_core13ClientChannel13kFilterVtableE, __ZN9grpc_core13ClientChannel14GetChannelInfoEP20grpc_channel_elementPK17grpc_channel_info, 
                       __ZN9grpc_core13ClientChannel14GetFromChannelEP12grpc_channel, 
                       __ZN9grpc_core13ClientChannel15AddLbQueuedCallEPNS0_12LbQueuedCallEP19grpc_polling_entity, 
                       __ZN9grpc_core13ClientChannel16LoadBalancedCall13AsyncPickDoneEP10grpc_error, 
                       __ZN9grpc_core13ClientChannel16LoadBalancedCall13GetBatchIndexEP30grpc_transport_stream_op_batch, 
                       __ZN9grpc_core13ClientChannel16LoadBalancedCall14PickSubchannelEPvP10grpc_error, 
                       __ZN9grpc_core13ClientChannel16LoadBalancedCall16RecvMessageReadyEPvP10grpc_error, 
                       __ZN9grpc_core13ClientChannel16LoadBalancedCall17PendingBatchesAddEP30grpc_transport_stream_op_batch, 
                       __ZN9grpc_core13ClientChannel16LoadBalancedCall18PendingBatchesFailEP10grpc_errorPFbRKNS_23CallCombinerClosureListEE, 
                       __ZN9grpc_core13ClientChannel16LoadBalancedCall20CreateSubchannelCallEv, 
                       __ZN9grpc_core13ClientChannel16LoadBalancedCall20PendingBatchesResumeEv, 
                       __ZN9grpc_core13ClientChannel16LoadBalancedCall20PickSubchannelLockedEPP10grpc_error, 
                       __ZN9grpc_core13ClientChannel16LoadBalancedCall24RecvInitialMetadataReadyEPvP10grpc_error, 
                       __ZN9grpc_core13ClientChannel16LoadBalancedCall25RecvTrailingMetadataReadyEPvP10grpc_error, 
                       __ZN9grpc_core13ClientChannel16LoadBalancedCall27StartTransportStreamOpBatchEP30grpc_transport_stream_op_batch, 
                       __ZN9grpc_core13ClientChannel16LoadBalancedCall29SendInitialMetadataOnCompleteEPvP10grpc_error, 
                       __ZN9grpc_core13ClientChannel16LoadBalancedCall30FailPendingBatchInCallCombinerEPvP10grpc_error, 
                       __ZN9grpc_core13ClientChannel16LoadBalancedCall32ResumePendingBatchInCallCombinerEPvP10grpc_error, 
                       __ZN9grpc_core13ClientChannel16LoadBalancedCall33MaybeAddCallToLbQueuedCallsLockedEv, 
                       __ZN9grpc_core13ClientChannel16LoadBalancedCall38MaybeRemoveCallFromLbQueuedCallsLockedEv, 
                       __ZN9grpc_core13ClientChannel16LoadBalancedCall6OrphanEv, 
                       __ZN9grpc_core13ClientChannel16LoadBalancedCall8PickDoneEPvP10grpc_error, 
                       __ZN9grpc_core13ClientChannel16LoadBalancedCallC1EPS0_RK22grpc_call_element_argsP19grpc_polling_entityP12grpc_closurePNS_14ConfigSelector22CallDispatchControllerEb, 
                       __ZN9grpc_core13ClientChannel16LoadBalancedCallC2EPS0_RK22grpc_call_element_argsP19grpc_polling_entityP12grpc_closurePNS_14ConfigSelector22CallDispatchControllerEb, 
                       __ZN9grpc_core13ClientChannel16LoadBalancedCallD0Ev, __ZN9grpc_core13ClientChannel16LoadBalancedCallD1Ev, 
                       __ZN9grpc_core13ClientChannel16LoadBalancedCallD2Ev, __ZN9grpc_core13ClientChannel16StartTransportOpEP20grpc_channel_elementP17grpc_transport_op, 
                       __ZN9grpc_core13ClientChannel18RemoveLbQueuedCallEPNS0_12LbQueuedCallEP19grpc_polling_entity, 
                       __ZN9grpc_core13ClientChannel18TryToConnectLockedEv, __ZN9grpc_core13ClientChannel20CreateLbPolicyLockedERK17grpc_channel_args, 
                       __ZN9grpc_core13ClientChannel20CreateResolverLockedEv, __ZN9grpc_core13ClientChannel21AddResolverQueuedCallEPNS0_18ResolverQueuedCallEP19grpc_polling_entity, 
                       __ZN9grpc_core13ClientChannel21OnResolverErrorLockedEN4absl12lts_202111026StatusE, 
                       __ZN9grpc_core13ClientChannel22AddConnectivityWatcherE23grpc_connectivity_stateNSt3__110unique_ptrINS_38AsyncConnectivityStateWatcherInterfaceENS_16OrphanableDeleteEEE, 
                       __ZN9grpc_core13ClientChannel22CheckConnectivityStateEb, __ZN9grpc_core13ClientChannel22CreateLoadBalancedCallERK22grpc_call_element_argsP19grpc_polling_entityP12grpc_closurePNS_14ConfigSelector22CallDispatchControllerEb, 
                       __ZN9grpc_core13ClientChannel22StartTransportOpLockedEP17grpc_transport_op, 
                       __ZN9grpc_core13ClientChannel24RemoveResolverQueuedCallEPNS0_18ResolverQueuedCallEP19grpc_polling_entity, 
                       __ZN9grpc_core13ClientChannel25RemoveConnectivityWatcherEPNS_38AsyncConnectivityStateWatcherInterfaceE, 
                       __ZN9grpc_core13ClientChannel26UpdateStateAndPickerLockedE23grpc_connectivity_stateRKN4absl12lts_202111026StatusEPKcNSt3__110unique_ptrINS_19LoadBalancingPolicy16SubchannelPickerENS9_14default_deleteISC_EEEE, 
                       __ZN9grpc_core13ClientChannel27ExternalConnectivityWatcher16AddWatcherLockedEv, 
                       __ZN9grpc_core13ClientChannel27ExternalConnectivityWatcher19RemoveWatcherLockedEv, 
                       __ZN9grpc_core13ClientChannel27ExternalConnectivityWatcher36RemoveWatcherFromExternalWatchersMapEPS0_P12grpc_closureb, 
                       __ZN9grpc_core13ClientChannel27ExternalConnectivityWatcher6CancelEv, 
                       __ZN9grpc_core13ClientChannel27ExternalConnectivityWatcher6NotifyE23grpc_connectivity_stateRKN4absl12lts_202111026StatusE, 
                       __ZN9grpc_core13ClientChannel27ExternalConnectivityWatcherC1EPS0_19grpc_polling_entityP23grpc_connectivity_stateP12grpc_closureS7_, 
                       __ZN9grpc_core13ClientChannel27ExternalConnectivityWatcherC2EPS0_19grpc_polling_entityP23grpc_connectivity_stateP12grpc_closureS7_, 
                       __ZN9grpc_core13ClientChannel27ExternalConnectivityWatcherD0Ev, 
                       __ZN9grpc_core13ClientChannel27ExternalConnectivityWatcherD1Ev, 
                       __ZN9grpc_core13ClientChannel27ExternalConnectivityWatcherD2Ev, 
                       __ZN9grpc_core13ClientChannel28CreateOrUpdateLbPolicyLockedENS_13RefCountedPtrINS_19LoadBalancingPolicy6ConfigEEERKN4absl12lts_202111028optionalINSt3__112basic_stringIcNS8_11char_traitsIcEENS8_9allocatorIcEEEEEENS_8Resolver6ResultE, 
                       __ZN9grpc_core13ClientChannel29OnResolverResultChangedLockedENS_8Resolver6ResultE, 
                       __ZN9grpc_core13ClientChannel32DestroyResolverAndLbPolicyLockedEv, 
                       __ZN9grpc_core13ClientChannel36UpdateServiceConfigInDataPlaneLockedEv, 
                       __ZN9grpc_core13ClientChannel39UpdateServiceConfigInControlPlaneLockedENS_13RefCountedPtrINS_13ServiceConfigEEENS1_INS_14ConfigSelectorEEEPKc, 
                       __ZN9grpc_core13ClientChannel4InitEP20grpc_channel_elementP25grpc_channel_element_args, 
                       __ZN9grpc_core13ClientChannel7DestroyEP20grpc_channel_element, 
                       __ZN9grpc_core13ClientChannel8CallData10SetPollentEP17grpc_call_elementP19grpc_polling_entity, 
                       __ZN9grpc_core13ClientChannel8CallData13GetBatchIndexEP30grpc_transport_stream_op_batch, 
                       __ZN9grpc_core13ClientChannel8CallData14ResolutionDoneEPvP10grpc_error, 
                       __ZN9grpc_core13ClientChannel8CallData15CheckResolutionEPvP10grpc_error, 
                       __ZN9grpc_core13ClientChannel8CallData17CreateDynamicCallEP17grpc_call_element, 
                       __ZN9grpc_core13ClientChannel8CallData17PendingBatchesAddEP17grpc_call_elementP30grpc_transport_stream_op_batch, 
                       __ZN9grpc_core13ClientChannel8CallData18PendingBatchesFailEP17grpc_call_elementP10grpc_errorPFbRKNS_23CallCombinerClosureListEE, 
                       __ZN9grpc_core13ClientChannel8CallData19AsyncResolutionDoneEP17grpc_call_elementP10grpc_error, 
                       __ZN9grpc_core13ClientChannel8CallData20PendingBatchesResumeEP17grpc_call_element, 
                       __ZN9grpc_core13ClientChannel8CallData21CheckResolutionLockedEP17grpc_call_elementPP10grpc_error, 
                       __ZN9grpc_core13ClientChannel8CallData27StartTransportStreamOpBatchEP17grpc_call_elementP30grpc_transport_stream_op_batch, 
                       __ZN9grpc_core13ClientChannel8CallData30ApplyServiceConfigToCallLockedEP17grpc_call_elementP19grpc_metadata_batch, 
                       __ZN9grpc_core13ClientChannel8CallData30FailPendingBatchInCallCombinerEPvP10grpc_error, 
                       __ZN9grpc_core13ClientChannel8CallData32ResumePendingBatchInCallCombinerEPvP10grpc_error, 
                       __ZN9grpc_core13ClientChannel8CallData39MaybeAddCallToResolverQueuedCallsLockedEP17grpc_call_element, 
                       __ZN9grpc_core13ClientChannel8CallData44MaybeRemoveCallFromResolverQueuedCallsLockedEP17grpc_call_element, 
                       __ZN9grpc_core13ClientChannel8CallData4InitEP17grpc_call_elementPK22grpc_call_element_args, 
                       __ZN9grpc_core13ClientChannel8CallData56RecvTrailingMetadataReadyForConfigSelectorCommitCallbackEPvP10grpc_error, 
                       __ZN9grpc_core13ClientChannel8CallData62InjectRecvTrailingMetadataReadyForConfigSelectorCommitCallbackEP30grpc_transport_stream_op_batch, 
                       __ZN9grpc_core13ClientChannel8CallData7DestroyEP17grpc_call_elementPK20grpc_call_final_infoP12grpc_closure, 
                       __ZN9grpc_core13ClientChannel8CallDataC1EP17grpc_call_elementRKS0_RK22grpc_call_element_args, 
                       __ZN9grpc_core13ClientChannel8CallDataC2EP17grpc_call_elementRKS0_RK22grpc_call_element_args, 
                       __ZN9grpc_core13ClientChannel8CallDataD1Ev, __ZN9grpc_core13ClientChannel8CallDataD2Ev, 
                       __ZN9grpc_core13ClientChannelC1EP25grpc_channel_element_argsPP10grpc_error, 
                       __ZN9grpc_core13ClientChannelC2EP25grpc_channel_element_argsPP10grpc_error, 
                       __ZN9grpc_core13ClientChannelD1Ev, __ZN9grpc_core13ClientChannelD2Ev, 
                       __ZN9grpc_core13HeaderMatcher6CreateEN4absl12lts_2021110211string_viewENS0_4TypeES3_xxbb, 
                       __ZN9grpc_core13HeaderMatcherC1EN4absl12lts_2021110211string_viewENS0_4TypeENS_13StringMatcherEb, 
                       __ZN9grpc_core13HeaderMatcherC1EN4absl12lts_2021110211string_viewEbb, 
                       __ZN9grpc_core13HeaderMatcherC1EN4absl12lts_2021110211string_viewExxb, 
                       __ZN9grpc_core13HeaderMatcherC1EOS0_, __ZN9grpc_core13HeaderMatcherC1ERKS0_, 
                       __ZN9grpc_core13HeaderMatcherC2EN4absl12lts_2021110211string_viewENS0_4TypeENS_13StringMatcherEb, 
                       __ZN9grpc_core13HeaderMatcherC2EN4absl12lts_2021110211string_viewEbb, 
                       __ZN9grpc_core13HeaderMatcherC2EN4absl12lts_2021110211string_viewExxb, 
                       __ZN9grpc_core13HeaderMatcherC2EOS0_, __ZN9grpc_core13HeaderMatcherC2ERKS0_, 
                       __ZN9grpc_core13HeaderMatcheraSEOS0_, __ZN9grpc_core13HeaderMatcheraSERKS0_, 
                       __ZN9grpc_core13InternedSliceC1EPNS_21InternedSliceRefcountE, 
                       __ZN9grpc_core13InternedSliceC2EPNS_21InternedSliceRefcountE, 
                       __ZN9grpc_core13LockfreeEvent11SetShutdownEP10grpc_error, 
                       __ZN9grpc_core13LockfreeEvent12DestroyEventEv, __ZN9grpc_core13LockfreeEvent8NotifyOnEP12grpc_closure, 
                       __ZN9grpc_core13LockfreeEvent8SetReadyEv, __ZN9grpc_core13LockfreeEvent9InitEventEv, 
                       __ZN9grpc_core13LockfreeEventC1Ev, __ZN9grpc_core13LockfreeEventC2Ev, 
                       __ZN9grpc_core13PidController6UpdateEdd, __ZN9grpc_core13PidControllerC1ERKNS0_4ArgsE, 
                       __ZN9grpc_core13PidControllerC2ERKNS0_4ArgsE, __ZN9grpc_core13ResourceQuota7DefaultEv, 
                       __ZN9grpc_core13ResourceQuotaC1ENSt3__112basic_stringIcNS1_11char_traitsIcEENS1_9allocatorIcEEEE, 
                       __ZN9grpc_core13ResourceQuotaC2ENSt3__112basic_stringIcNS1_11char_traitsIcEENS1_9allocatorIcEEEE, 
                       __ZN9grpc_core13ResourceQuotaD0Ev, __ZN9grpc_core13ResourceQuotaD1Ev, 
                       __ZN9grpc_core13ResourceQuotaD2Ev, __ZN9grpc_core13ServerAddressC1EOS0_, 
                       __ZN9grpc_core13ServerAddressC1EPKvmP17grpc_channel_argsNSt3__13mapIPKcNS5_10unique_ptrINS0_18AttributeInterfaceENS5_14default_deleteISA_EEEENS5_4lessIS8_EENS5_9allocatorINS5_4pairIKS8_SD_EEEEEE, 
                       __ZN9grpc_core13ServerAddressC1ERK21grpc_resolved_addressP17grpc_channel_argsNSt3__13mapIPKcNS6_10unique_ptrINS0_18AttributeInterfaceENS6_14default_deleteISB_EEEENS6_4lessIS9_EENS6_9allocatorINS6_4pairIKS9_SE_EEEEEE, 
                       __ZN9grpc_core13ServerAddressC1ERKS0_, __ZN9grpc_core13ServerAddressC2EOS0_, 
                       __ZN9grpc_core13ServerAddressC2EPKvmP17grpc_channel_argsNSt3__13mapIPKcNS5_10unique_ptrINS0_18AttributeInterfaceENS5_14default_deleteISA_EEEENS5_4lessIS8_EENS5_9allocatorINS5_4pairIKS8_SD_EEEEEE, 
                       __ZN9grpc_core13ServerAddressC2ERK21grpc_resolved_addressP17grpc_channel_argsNSt3__13mapIPKcNS6_10unique_ptrINS0_18AttributeInterfaceENS6_14default_deleteISB_EEEENS6_4lessIS9_EENS6_9allocatorINS6_4pairIKS9_SE_EEEEEE, 
                       __ZN9grpc_core13ServerAddressC2ERKS0_, __ZN9grpc_core13ServerAddressaSEOS0_, 
                       __ZN9grpc_core13ServerAddressaSERKS0_, __ZN9grpc_core13ServiceConfig19ParseJsonMethodNameERKNS_4JsonEPP10grpc_error, 
                       __ZN9grpc_core13ServiceConfig20ParsePerMethodParamsEPK17grpc_channel_args, 
                       __ZN9grpc_core13ServiceConfig21ParseJsonMethodConfigEPK17grpc_channel_argsRKNS_4JsonE, 
                       __ZN9grpc_core13ServiceConfig6CreateEPK17grpc_channel_argsN4absl12lts_2021110211string_viewEPP10grpc_error, 
                       __ZN9grpc_core13ServiceConfigC1EPK17grpc_channel_argsNSt3__112basic_stringIcNS4_11char_traitsIcEENS4_9allocatorIcEEEENS_4JsonEPP10grpc_error, 
                       __ZN9grpc_core13ServiceConfigC2EPK17grpc_channel_argsNSt3__112basic_stringIcNS4_11char_traitsIcEENS4_9allocatorIcEEEENS_4JsonEPP10grpc_error, 
                       __ZN9grpc_core13ServiceConfigD0Ev, __ZN9grpc_core13ServiceConfigD1Ev, 
                       __ZN9grpc_core13ServiceConfigD2Ev, __ZN9grpc_core13SplitHostPortEN4absl12lts_2021110211string_viewEPNSt3__112basic_stringIcNS3_11char_traitsIcEENS3_9allocatorIcEEEESA_, 
                       __ZN9grpc_core13SplitHostPortEN4absl12lts_2021110211string_viewEPS2_S3_, 
                       __ZN9grpc_core13StatusGetTimeERKN4absl12lts_202111026StatusENS_18StatusTimePropertyE, 
                       __ZN9grpc_core13StatusSetTimeEPN4absl12lts_202111026StatusENS_18StatusTimePropertyENS1_4TimeE, 
                       __ZN9grpc_core13StringMatcher6CreateENS0_4TypeEN4absl12lts_2021110211string_viewEb, 
                       __ZN9grpc_core13StringMatcherC1ENS0_4TypeEN4absl12lts_2021110211string_viewEb, 
                       __ZN9grpc_core13StringMatcherC1ENSt3__110unique_ptrIN3re23RE2ENS1_14default_deleteIS4_EEEE, 
                       __ZN9grpc_core13StringMatcherC1EOS0_, __ZN9grpc_core13StringMatcherC1ERKS0_, 
                       __ZN9grpc_core13StringMatcherC2ENS0_4TypeEN4absl12lts_2021110211string_viewEb, 
                       __ZN9grpc_core13StringMatcherC2ENSt3__110unique_ptrIN3re23RE2ENS1_14default_deleteIS4_EEEE, 
                       __ZN9grpc_core13StringMatcherC2EOS0_, __ZN9grpc_core13StringMatcherC2ERKS0_, 
                       __ZN9grpc_core13StringMatcheraSEOS0_, __ZN9grpc_core13StringMatcheraSERKS0_, 
                       __ZN9grpc_core13SubchannelKey4InitERK21grpc_resolved_addressPK17grpc_channel_argsPFPS4_S6_E, 
                       __ZN9grpc_core13SubchannelKeyC1EOS0_, __ZN9grpc_core13SubchannelKeyC1ERK21grpc_resolved_addressPK17grpc_channel_args, 
                       __ZN9grpc_core13SubchannelKeyC1ERKS0_, __ZN9grpc_core13SubchannelKeyC2EOS0_, 
                       __ZN9grpc_core13SubchannelKeyC2ERK21grpc_resolved_addressPK17grpc_channel_args, 
                       __ZN9grpc_core13SubchannelKeyC2ERKS0_, __ZN9grpc_core13SubchannelKeyD1Ev, 
                       __ZN9grpc_core13SubchannelKeyD2Ev, __ZN9grpc_core13SubchannelKeyaSEOS0_, 
                       __ZN9grpc_core13SubchannelKeyaSERKS0_, __ZN9grpc_core13ToGprTimeSpecEN4absl12lts_202111024TimeE, 
                       __ZN9grpc_core13ToGprTimeSpecEN4absl12lts_202111028DurationE, 
                       __ZN9grpc_core13TraceFlagList12root_tracer_E, __ZN9grpc_core13TraceFlagList13LogAllTracersEv, 
                       __ZN9grpc_core13TraceFlagList3AddEPNS_9TraceFlagE, __ZN9grpc_core13TraceFlagList3SetEPKcb, 
                       __ZN9grpc_core13kNoopRefcountE, __ZN9grpc_core14ConfigSelector18GetFromChannelArgsERK17grpc_channel_args, 
                       __ZN9grpc_core14DynamicFilters10CreateCallENS0_4Call4ArgsEPP10grpc_error, 
                       __ZN9grpc_core14DynamicFilters4Call17IncrementRefCountERKNS_13DebugLocationEPKc, 
                       __ZN9grpc_core14DynamicFilters4Call17IncrementRefCountEv, 
                       __ZN9grpc_core14DynamicFilters4Call24SetAfterCallStackDestroyEP12grpc_closure, 
                       __ZN9grpc_core14DynamicFilters4Call27StartTransportStreamOpBatchEP30grpc_transport_stream_op_batch, 
                       __ZN9grpc_core14DynamicFilters4Call3RefERKNS_13DebugLocationEPKc, 
                       __ZN9grpc_core14DynamicFilters4Call3RefEv, __ZN9grpc_core14DynamicFilters4Call5UnrefERKNS_13DebugLocationEPKc, 
                       __ZN9grpc_core14DynamicFilters4Call5UnrefEv, __ZN9grpc_core14DynamicFilters4Call7DestroyEPvP10grpc_error, 
                       __ZN9grpc_core14DynamicFilters4CallC1ENS1_4ArgsEPP10grpc_error, 
                       __ZN9grpc_core14DynamicFilters4CallC2ENS1_4ArgsEPP10grpc_error, 
                       __ZN9grpc_core14DynamicFilters6CreateEPK17grpc_channel_argsNSt3__16vectorIPK19grpc_channel_filterNS4_9allocatorIS8_EEEE, 
                       __ZN9grpc_core14DynamicFiltersD0Ev, __ZN9grpc_core14DynamicFiltersD1Ev, 
                       __ZN9grpc_core14DynamicFiltersD2Ev, __ZN9grpc_core14GetDNSResolverEv, 
                       __ZN9grpc_core14RbacFilterInitEv, __ZN9grpc_core14ReclaimerQueue13kInvalidIndexE, 
                       __ZN9grpc_core14ReclaimerQueue6CancelEmPN17grpc_event_engine12experimental8internal19MemoryAllocatorImplE, 
                       __ZN9grpc_core14ReclaimerQueue6InsertENSt3__110shared_ptrIN17grpc_event_engine12experimental8internal19MemoryAllocatorImplEEENS1_8functionIFvN4absl12lts_202111028optionalINS_16ReclamationSweepEEEEEEPm, 
                       __ZN9grpc_core14ReclaimerQueue8PollNextEv, __ZN9grpc_core14RegisteredCallC1EPKcS2_, 
                       __ZN9grpc_core14RegisteredCallC1ERKS0_, __ZN9grpc_core14RegisteredCallC2EPKcS2_, 
                       __ZN9grpc_core14RegisteredCallC2ERKS0_, __ZN9grpc_core14RegisteredCallD1Ev, 
                       __ZN9grpc_core14RegisteredCallD2Ev, __ZN9grpc_core14SetDNSResolverEPNS_11DNSResolverE, 
                       __ZN9grpc_core14StatusAddChildEPN4absl12lts_202111026StatusES2_, 
                       __ZN9grpc_core14StatusToStringERKN4absl12lts_202111026StatusE, 
                       __ZN9grpc_core14SubchannelCall12GetCallStackEv, __ZN9grpc_core14SubchannelCall17IncrementRefCountERKNS_13DebugLocationEPKc, 
                       __ZN9grpc_core14SubchannelCall17IncrementRefCountEv, __ZN9grpc_core14SubchannelCall24SetAfterCallStackDestroyEP12grpc_closure, 
                       __ZN9grpc_core14SubchannelCall25RecvTrailingMetadataReadyEPvP10grpc_error, 
                       __ZN9grpc_core14SubchannelCall27StartTransportStreamOpBatchEP30grpc_transport_stream_op_batch, 
                       __ZN9grpc_core14SubchannelCall34MaybeInterceptRecvTrailingMetadataEP30grpc_transport_stream_op_batch, 
                       __ZN9grpc_core14SubchannelCall3RefERKNS_13DebugLocationEPKc, 
                       __ZN9grpc_core14SubchannelCall3RefEv, __ZN9grpc_core14SubchannelCall5UnrefERKNS_13DebugLocationEPKc, 
                       __ZN9grpc_core14SubchannelCall5UnrefEv, __ZN9grpc_core14SubchannelCall6CreateENS0_4ArgsEPP10grpc_error, 
                       __ZN9grpc_core14SubchannelCall7DestroyEPvP10grpc_error, __ZN9grpc_core14SubchannelCallC1ENS0_4ArgsEPP10grpc_error, 
                       __ZN9grpc_core14SubchannelCallC2ENS0_4ArgsEPP10grpc_error, 
                       __ZN9grpc_core14ToAbslDurationE12gpr_timespec, __ZN9grpc_core14WorkSerializer10DrainQueueEv, 
                       __ZN9grpc_core14WorkSerializer18WorkSerializerImpl10DrainQueueEv, 
                       __ZN9grpc_core14WorkSerializer18WorkSerializerImpl15DrainQueueOwnedEv, 
                       __ZN9grpc_core14WorkSerializer18WorkSerializerImpl3RunENSt3__18functionIFvvEEERKNS_13DebugLocationE, 
                       __ZN9grpc_core14WorkSerializer18WorkSerializerImpl6OrphanEv, 
                       __ZN9grpc_core14WorkSerializer18WorkSerializerImpl8ScheduleENSt3__18functionIFvvEEERKNS_13DebugLocationE, 
                       __ZN9grpc_core14WorkSerializer3RunENSt3__18functionIFvvEEERKNS_13DebugLocationE, 
                       __ZN9grpc_core14WorkSerializer8ScheduleENSt3__18functionIFvvEEERKNS_13DebugLocationE, 
                       __ZN9grpc_core14WorkSerializerC1Ev, __ZN9grpc_core14WorkSerializerC2Ev, 
                       __ZN9grpc_core14WorkSerializerD1Ev, __ZN9grpc_core14WorkSerializerD2Ev, 
                       __ZN9grpc_core14XdsCredentials25create_security_connectorENS_13RefCountedPtrI21grpc_call_credentialsEEPKcPK17grpc_channel_argsPPS6_, 
                       __ZN9grpc_core14XdsRbacEnabledEv, __ZN9grpc_core14executor_traceE, 
                       __ZN9grpc_core15ByteStreamCache17CachingByteStream4NextEmP12grpc_closure, 
                       __ZN9grpc_core15ByteStreamCache17CachingByteStream4PullEP10grpc_slice, 
                       __ZN9grpc_core15ByteStreamCache17CachingByteStream5ResetEv, 
                       __ZN9grpc_core15ByteStreamCache17CachingByteStream6OrphanEv, 
                       __ZN9grpc_core15ByteStreamCache17CachingByteStream8ShutdownEP10grpc_error, 
                       __ZN9grpc_core15ByteStreamCache17CachingByteStreamC1EPS0_, 
                       __ZN9grpc_core15ByteStreamCache17CachingByteStreamC2EPS0_, 
                       __ZN9grpc_core15ByteStreamCache17CachingByteStreamD0Ev, __ZN9grpc_core15ByteStreamCache17CachingByteStreamD1Ev, 
                       __ZN9grpc_core15ByteStreamCache17CachingByteStreamD2Ev, __ZN9grpc_core15ByteStreamCache7DestroyEv, 
                       __ZN9grpc_core15ByteStreamCacheC1ENSt3__110unique_ptrINS_10ByteStreamENS_16OrphanableDeleteEEE, 
                       __ZN9grpc_core15ByteStreamCacheC2ENSt3__110unique_ptrINS_10ByteStreamENS_16OrphanableDeleteEEE, 
                       __ZN9grpc_core15ByteStreamCacheD1Ev, __ZN9grpc_core15ByteStreamCacheD2Ev, 
                       __ZN9grpc_core15Chttp2Connector11MaybeNotifyEP10grpc_error, 
                       __ZN9grpc_core15Chttp2Connector15OnHandshakeDoneEPvP10grpc_error, 
                       __ZN9grpc_core15Chttp2Connector17OnReceiveSettingsEPvP10grpc_error, 
                       __ZN9grpc_core15Chttp2Connector20StartHandshakeLockedEv, __ZN9grpc_core15Chttp2Connector7ConnectERKNS_19SubchannelConnector4ArgsEPNS1_6ResultEP12grpc_closure, 
                       __ZN9grpc_core15Chttp2Connector8ShutdownEP10grpc_error, __ZN9grpc_core15Chttp2Connector9ConnectedEPvP10grpc_error, 
                       __ZN9grpc_core15Chttp2Connector9OnTimeoutEPvP10grpc_error, 
                       __ZN9grpc_core15Chttp2ConnectorC1Ev, __ZN9grpc_core15Chttp2ConnectorC2Ev, 
                       __ZN9grpc_core15Chttp2ConnectorD0Ev, __ZN9grpc_core15Chttp2ConnectorD1Ev, 
                       __ZN9grpc_core15Chttp2ConnectorD2Ev, __ZN9grpc_core15ExtractJsonBoolERKNS_4JsonEN4absl12lts_2021110211string_viewEPbPNSt3__16vectorIP10grpc_errorNS7_9allocatorISA_EEEE, 
                       __ZN9grpc_core15GlobalConfigEnv5UnsetEv, __ZN9grpc_core15GlobalConfigEnv7GetNameEv, 
                       __ZN9grpc_core15GlobalConfigEnv8GetValueEv, __ZN9grpc_core15GlobalConfigEnv8SetValueEPKc, 
                       __ZN9grpc_core15HPackCompressor10SliceIndex6EmitToEN4absl12lts_2021110211string_viewERKNS_5SliceEPNS0_6FramerE, 
                       __ZN9grpc_core15HPackCompressor15SetMaxTableSizeEj, __ZN9grpc_core15HPackCompressor16SetMaxUsableSizeEj, 
                       __ZN9grpc_core15HPackCompressor6Framer10BeginFrameEv, __ZN9grpc_core15HPackCompressor6Framer11EmitIndexedEj, 
                       __ZN9grpc_core15HPackCompressor6Framer11EnsureSpaceEm, __ZN9grpc_core15HPackCompressor6Framer11FinishFrameEb, 
                       __ZN9grpc_core15HPackCompressor6Framer19EncodeAlwaysIndexedEPjN4absl12lts_2021110211string_viewENS_5SliceEj, 
                       __ZN9grpc_core15HPackCompressor6Framer24AdvertiseTableSizeChangeEv, 
                       __ZN9grpc_core15HPackCompressor6Framer31EncodeIndexedKeyWithBinaryValueEPjN4absl12lts_2021110211string_viewENS_5SliceE, 
                       __ZN9grpc_core15HPackCompressor6Framer35EmitLitHdrWithBinaryStringKeyIncIdxENS_5SliceES2_, 
                       __ZN9grpc_core15HPackCompressor6Framer35EmitLitHdrWithBinaryStringKeyNotIdxENS_5SliceES2_, 
                       __ZN9grpc_core15HPackCompressor6Framer35EmitLitHdrWithBinaryStringKeyNotIdxEjNS_5SliceE, 
                       __ZN9grpc_core15HPackCompressor6Framer38EmitLitHdrWithNonBinaryStringKeyIncIdxENS_5SliceES2_, 
                       __ZN9grpc_core15HPackCompressor6Framer38EmitLitHdrWithNonBinaryStringKeyNotIdxENS_5SliceES2_, 
                       __ZN9grpc_core15HPackCompressor6Framer3AddENS_5SliceE, __ZN9grpc_core15HPackCompressor6Framer6EncodeENS_10TeMetadataENS2_9ValueTypeE, 
                       __ZN9grpc_core15HPackCompressor6Framer6EncodeENS_16HttpPathMetadataERKNS_5SliceE, 
                       __ZN9grpc_core15HPackCompressor6Framer6EncodeENS_17UserAgentMetadataERKNS_5SliceE, 
                       __ZN9grpc_core15HPackCompressor6Framer6EncodeENS_18GrpcStatusMetadataE16grpc_status_code, 
                       __ZN9grpc_core15HPackCompressor6Framer6EncodeENS_18HttpMethodMetadataENS2_9ValueTypeE, 
                       __ZN9grpc_core15HPackCompressor6Framer6EncodeENS_18HttpSchemeMetadataENS2_9ValueTypeE, 
                       __ZN9grpc_core15HPackCompressor6Framer6EncodeENS_18HttpStatusMetadataEj, 
                       __ZN9grpc_core15HPackCompressor6Framer6EncodeENS_19ContentTypeMetadataENS2_9ValueTypeE, 
                       __ZN9grpc_core15HPackCompressor6Framer6EncodeENS_19GrpcTagsBinMetadataERKNS_5SliceE, 
                       __ZN9grpc_core15HPackCompressor6Framer6EncodeENS_19GrpcTimeoutMetadataEx, 
                       __ZN9grpc_core15HPackCompressor6Framer6EncodeENS_20GrpcEncodingMetadataE26grpc_compression_algorithm, 
                       __ZN9grpc_core15HPackCompressor6Framer6EncodeENS_20GrpcTraceBinMetadataERKNS_5SliceE, 
                       __ZN9grpc_core15HPackCompressor6Framer6EncodeENS_21HttpAuthorityMetadataERKNS_5SliceE, 
                       __ZN9grpc_core15HPackCompressor6Framer6EncodeENS_26GrpcAcceptEncodingMetadataENS_23CompressionAlgorithmSetE, 
                       __ZN9grpc_core15HPackCompressor6Framer6EncodeERKNS_5SliceES4_, 
                       __ZN9grpc_core15HPackCompressor6Framer7AddTinyEm, __ZN9grpc_core15HPackCompressor6FramerC1ERKNS0_19EncodeHeaderOptionsEPS0_P17grpc_slice_buffer, 
                       __ZN9grpc_core15HPackCompressor6FramerC2ERKNS0_19EncodeHeaderOptionsEPS0_P17grpc_slice_buffer, 
                       __ZN9grpc_core15IdleFilterState10CheckTimerEv, __ZN9grpc_core15IdleFilterState17DecreaseCallCountEv, 
                       __ZN9grpc_core15IdleFilterState17IncreaseCallCountEv, __ZN9grpc_core15IdleFilterStateC1Eb, 
                       __ZN9grpc_core15IdleFilterStateC2Eb, __ZN9grpc_core15InfLenFIFOQueue10PushWaiterEPNS0_6WaiterE, 
                       __ZN9grpc_core15InfLenFIFOQueue12RemoveWaiterEPNS0_6WaiterE, 
                       __ZN9grpc_core15InfLenFIFOQueue13AllocateNodesEi, __ZN9grpc_core15InfLenFIFOQueue3GetEP12gpr_timespec, 
                       __ZN9grpc_core15InfLenFIFOQueue3PutEPv, __ZN9grpc_core15InfLenFIFOQueue9TopWaiterEv, 
                       __ZN9grpc_core15InfLenFIFOQueueC1Ev, __ZN9grpc_core15InfLenFIFOQueueC2Ev, 
                       __ZN9grpc_core15InfLenFIFOQueueD0Ev, __ZN9grpc_core15InfLenFIFOQueueD1Ev, 
                       __ZN9grpc_core15InfLenFIFOQueueD2Ev, __ZN9grpc_core15RlsLbPluginInitEv, 
                       __ZN9grpc_core15VarintWriteTailEjPhj, __ZN9grpc_core15metadata_detail15MakeDebugStringEN4absl12lts_2021110211string_viewES3_, 
                       __ZN9grpc_core15metadata_detail15SliceFromBufferERKNS0_6BufferE, 
                       __ZN9grpc_core15metadata_detail17DestroySliceValueERKNS0_6BufferE, 
                       __ZN9grpc_core15metadata_detail21DestroyTrivialMementoERKNS0_6BufferE, 
                       __ZN9grpc_core16AwsRequestSigner23GetSignedRequestHeadersEv, 
                       __ZN9grpc_core16AwsRequestSignerC1ENSt3__112basic_stringIcNS1_11char_traitsIcEENS1_9allocatorIcEEEES7_S7_S7_S7_S7_S7_NS1_3mapIS7_S7_NS1_4lessIS7_EENS5_INS1_4pairIKS7_S7_EEEEEEPP10grpc_error, 
                       __ZN9grpc_core16AwsRequestSignerC2ENSt3__112basic_stringIcNS1_11char_traitsIcEENS1_9allocatorIcEEEES7_S7_S7_S7_S7_S7_NS1_3mapIS7_S7_NS1_4lessIS7_EENS5_INS1_4pairIKS7_S7_EEEEEEPP10grpc_error, 
                       __ZN9grpc_core16BasicMemoryQuota17FinishReclamationEy, __ZN9grpc_core16BasicMemoryQuota4StopEv, 
                       __ZN9grpc_core16BasicMemoryQuota4TakeEm, __ZN9grpc_core16BasicMemoryQuota5StartEv, 
                       __ZN9grpc_core16BasicMemoryQuota6ReturnEm, __ZN9grpc_core16BasicMemoryQuota7SetSizeEm, 
                       __ZN9grpc_core16CommonTlsContext5ParseERKNS_18XdsEncodingContextEPK58envoy_extensions_transport_sockets_tls_v3_CommonTlsContextPS0_, 
                       __ZN9grpc_core16ExtractJsonArrayERKNS_4JsonEN4absl12lts_2021110211string_viewEPPKNSt3__16vectorIS0_NS6_9allocatorIS0_EEEEPNS7_IP10grpc_errorNS8_ISF_EEEE, 
                       __ZN9grpc_core16HandshakeManager11DoHandshakeEP13grpc_endpointPK17grpc_channel_argsxP24grpc_tcp_server_acceptorPFvPvP10grpc_errorES8_, 
                       __ZN9grpc_core16HandshakeManager11OnTimeoutFnEPvP10grpc_error, 
                       __ZN9grpc_core16HandshakeManager20CallNextHandshakerFnEPvP10grpc_error, 
                       __ZN9grpc_core16HandshakeManager24CallNextHandshakerLockedEP10grpc_error, 
                       __ZN9grpc_core16HandshakeManager3AddENS_13RefCountedPtrINS_10HandshakerEEE, 
                       __ZN9grpc_core16HandshakeManager8ShutdownEP10grpc_error, __ZN9grpc_core16HandshakeManagerC1Ev, 
                       __ZN9grpc_core16HandshakeManagerC2Ev, __ZN9grpc_core16HandshakeManagerD0Ev, 
                       __ZN9grpc_core16HandshakeManagerD1Ev, __ZN9grpc_core16HandshakeManagerD2Ev, 
                       __ZN9grpc_core16ReclamationSweepD1Ev, __ZN9grpc_core16ReclamationSweepD2Ev, 
                       __ZN9grpc_core16RegisterBuiltinsEPNS_17CoreConfiguration7BuilderE, 
                       __ZN9grpc_core16ResolverRegistry13IsValidTargetEN4absl12lts_2021110211string_viewE, 
                       __ZN9grpc_core16ResolverRegistry14CreateResolverEPKcPK17grpc_channel_argsP16grpc_pollset_setNSt3__110shared_ptrINS_14WorkSerializerEEENS8_10unique_ptrINS_8Resolver13ResultHandlerENS8_14default_deleteISE_EEEE, 
                       __ZN9grpc_core16ResolverRegistry19GetDefaultAuthorityEN4absl12lts_2021110211string_viewE, 
                       __ZN9grpc_core16ResolverRegistry21LookupResolverFactoryEPKc, 
                       __ZN9grpc_core16ResolverRegistry24AddDefaultPrefixIfNeededEPKc, 
                       __ZN9grpc_core16ResolverRegistry7Builder12InitRegistryEv, 
                       __ZN9grpc_core16ResolverRegistry7Builder16SetDefaultPrefixEPKc, 
                       __ZN9grpc_core16ResolverRegistry7Builder16ShutdownRegistryEv, 
                       __ZN9grpc_core16ResolverRegistry7Builder23RegisterResolverFactoryENSt3__110unique_ptrINS_15ResolverFactoryENS2_14default_deleteIS4_EEEE, 
                       __ZN9grpc_core16ThreadPoolWorker3RunEv, __ZN9grpc_core17CoreConfiguration15RegisterBuilderENSt3__18functionIFvPNS0_7BuilderEEEE, 
                       __ZN9grpc_core17CoreConfiguration19BuildNewAndMaybeSetEv, 
                       __ZN9grpc_core17CoreConfiguration5ResetEv, __ZN9grpc_core17CoreConfiguration7Builder5BuildEv, 
                       __ZN9grpc_core17CoreConfiguration7BuilderC1Ev, __ZN9grpc_core17CoreConfiguration7BuilderC2Ev, 
                       __ZN9grpc_core17CoreConfiguration7config_E, __ZN9grpc_core17CoreConfiguration9builders_E, 
                       __ZN9grpc_core17CoreConfigurationC1EPNS0_7BuilderE, __ZN9grpc_core17CoreConfigurationC2EPNS0_7BuilderE, 
                       __ZN9grpc_core17CustomDNSResolver19ResolveNameBlockingEN4absl12lts_2021110211string_viewES3_, 
                       __ZN9grpc_core17CustomDNSResolver3GetEv, __ZN9grpc_core17CustomDNSResolver6CreateEP27grpc_custom_resolver_vtable, 
                       __ZN9grpc_core17CustomDNSResolver7Request15ResolveCallbackEN4absl12lts_202111028StatusOrINSt3__16vectorI21grpc_resolved_addressNS5_9allocatorIS7_EEEEEE, 
                       __ZN9grpc_core17CustomDNSResolver7Request5StartEv, __ZN9grpc_core17ExtractJsonObjectERKNS_4JsonEN4absl12lts_2021110211string_viewEPPKNSt3__13mapINS6_12basic_stringIcNS6_11char_traitsIcEENS6_9allocatorIcEEEES0_NS6_4lessISD_EENSB_INS6_4pairIKSD_S0_EEEEEEPNS6_6vectorIP10grpc_errorNSB_ISQ_EEEE, 
                       __ZN9grpc_core17GrpcLbClientStats14AddCallDroppedEPKc, __ZN9grpc_core17GrpcLbClientStats14AddCallStartedEv, 
                       __ZN9grpc_core17GrpcLbClientStats15AddCallFinishedEbb, __ZN9grpc_core17GrpcLbClientStats3GetEPxS1_S1_S1_PNSt3__110unique_ptrIN4absl12lts_2021110213InlinedVectorINS0_14DropTokenCountELm10ENS2_9allocatorIS7_EEEENS2_14default_deleteISA_EEEE, 
                       __ZN9grpc_core17HPackEncoderTable10SetMaxSizeEj, __ZN9grpc_core17HPackEncoderTable13AllocateIndexEm, 
                       __ZN9grpc_core17HPackEncoderTable7RebuildEj, __ZN9grpc_core17HPackEncoderTable8EvictOneEv, 
                       __ZN9grpc_core17HealthCheckClient12OnRetryTimerEPvP10grpc_error, 
                       __ZN9grpc_core17HealthCheckClient15SetHealthStatusE23grpc_connectivity_statePKc, 
                       __ZN9grpc_core17HealthCheckClient15StartCallLockedEv, __ZN9grpc_core17HealthCheckClient21SetHealthStatusLockedE23grpc_connectivity_statePKc, 
                       __ZN9grpc_core17HealthCheckClient21StartRetryTimerLockedEv, 
                       __ZN9grpc_core17HealthCheckClient6OrphanEv, __ZN9grpc_core17HealthCheckClient9CallState10OnCompleteEPvP10grpc_error, 
                       __ZN9grpc_core17HealthCheckClient9CallState10StartBatchEP30grpc_transport_stream_op_batch, 
                       __ZN9grpc_core17HealthCheckClient9CallState11StartCancelEPvP10grpc_error, 
                       __ZN9grpc_core17HealthCheckClient9CallState15CallEndedLockedEb, 
                       __ZN9grpc_core17HealthCheckClient9CallState16OnByteStreamNextEPvP10grpc_error, 
                       __ZN9grpc_core17HealthCheckClient9CallState16OnCancelCompleteEPvP10grpc_error, 
                       __ZN9grpc_core17HealthCheckClient9CallState16RecvMessageReadyEPvP10grpc_error, 
                       __ZN9grpc_core17HealthCheckClient9CallState22DoneReadingRecvMessageEP10grpc_error, 
                       __ZN9grpc_core17HealthCheckClient9CallState24PullSliceFromRecvMessageEv, 
                       __ZN9grpc_core17HealthCheckClient9CallState24RecvInitialMetadataReadyEPvP10grpc_error, 
                       __ZN9grpc_core17HealthCheckClient9CallState24StartBatchInCallCombinerEPvP10grpc_error, 
                       __ZN9grpc_core17HealthCheckClient9CallState25AfterCallStackDestructionEPvP10grpc_error, 
                       __ZN9grpc_core17HealthCheckClient9CallState25RecvTrailingMetadataReadyEPvP10grpc_error, 
                       __ZN9grpc_core17HealthCheckClient9CallState26ContinueReadingRecvMessageEv, 
                       __ZN9grpc_core17HealthCheckClient9CallState6CancelEv, __ZN9grpc_core17HealthCheckClient9CallState6OrphanEv, 
                       __ZN9grpc_core17HealthCheckClient9CallState9StartCallEv, __ZN9grpc_core17HealthCheckClient9CallStateC1ENS_13RefCountedPtrIS0_EEP16grpc_pollset_set, 
                       __ZN9grpc_core17HealthCheckClient9CallStateC2ENS_13RefCountedPtrIS0_EEP16grpc_pollset_set, 
                       __ZN9grpc_core17HealthCheckClient9CallStateD0Ev, __ZN9grpc_core17HealthCheckClient9CallStateD1Ev, 
                       __ZN9grpc_core17HealthCheckClient9CallStateD2Ev, __ZN9grpc_core17HealthCheckClient9StartCallEv, 
                       __ZN9grpc_core17HealthCheckClientC1ENSt3__112basic_stringIcNS1_11char_traitsIcEENS1_9allocatorIcEEEENS_13RefCountedPtrINS_19ConnectedSubchannelEEEP16grpc_pollset_setNS8_INS_8channelz14SubchannelNodeEEENS8_INS_33ConnectivityStateWatcherInterfaceEEE, 
                       __ZN9grpc_core17HealthCheckClientC2ENSt3__112basic_stringIcNS1_11char_traitsIcEENS1_9allocatorIcEEEENS_13RefCountedPtrINS_19ConnectedSubchannelEEEP16grpc_pollset_setNS8_INS_8channelz14SubchannelNodeEEENS8_INS_33ConnectivityStateWatcherInterfaceEEE, 
                       __ZN9grpc_core17HealthCheckClientD0Ev, __ZN9grpc_core17HealthCheckClientD1Ev, 
                       __ZN9grpc_core17HealthCheckClientD2Ev, __ZN9grpc_core17MessageSizeParser11ParserIndexEv, 
                       __ZN9grpc_core17MessageSizeParser20ParsePerMethodParamsEPK17grpc_channel_argsRKNS_4JsonEPP10grpc_error, 
                       __ZN9grpc_core17MessageSizeParser8RegisterEv, __ZN9grpc_core17NativeDNSResolver11GetOrCreateEv, 
                       __ZN9grpc_core17NativeDNSResolver11ResolveNameEN4absl12lts_2021110211string_viewES3_P16grpc_pollset_setNSt3__18functionIFvNS2_8StatusOrINS6_6vectorI21grpc_resolved_addressNS6_9allocatorISA_EEEEEEEEE, 
                       __ZN9grpc_core17NativeDNSResolver19ResolveNameBlockingEN4absl12lts_2021110211string_viewES3_, 
                       __ZN9grpc_core17StatusGetChildrenEN4absl12lts_202111026StatusE, 
                       __ZN9grpc_core17grpc_cds_lb_traceE, __ZN9grpc_core17grpc_lb_glb_traceE, 
                       __ZN9grpc_core17grpc_lb_rls_traceE, __ZN9grpc_core18ChildPolicyHandler12UpdateLockedENS_19LoadBalancingPolicy10UpdateArgsE, 
                       __ZN9grpc_core18ChildPolicyHandler14ExitIdleLockedEv, __ZN9grpc_core18ChildPolicyHandler14ShutdownLockedEv, 
                       __ZN9grpc_core18ChildPolicyHandler17CreateChildPolicyEPKcRK17grpc_channel_args, 
                       __ZN9grpc_core18ChildPolicyHandler18ResetBackoffLockedEv, 
                       __ZN9grpc_core18HandshakerRegistry7Builder25RegisterHandshakerFactoryEbNS_14HandshakerTypeENSt3__110unique_ptrINS_17HandshakerFactoryENS3_14default_deleteIS5_EEEE, 
                       __ZN9grpc_core18HandshakerRegistry7Builder5BuildEv, __ZN9grpc_core18ManagedMemorySliceC1EPK10grpc_slice, 
                       __ZN9grpc_core18ManagedMemorySliceC1EPKc, __ZN9grpc_core18ManagedMemorySliceC1EPKcm, 
                       __ZN9grpc_core18ManagedMemorySliceC2EPK10grpc_slice, __ZN9grpc_core18ManagedMemorySliceC2EPKc, 
                       __ZN9grpc_core18ManagedMemorySliceC2EPKcm, __ZN9grpc_core18PercentEncodeSliceENS_5SliceENS_19PercentEncodingTypeE, 
                       __ZN9grpc_core18RbacFilterShutdownEv, __ZN9grpc_core18grpc_errqueue_initEv, 
                       __ZN9grpc_core18kDefaultSecurePortE, __ZN9grpc_core18kRetryFilterVtableE, 
                       __ZN9grpc_core19Chttp2ServerAddPortEPNS_6ServerEPKcP17grpc_channel_argsNSt3__18functionIFS5_S5_PP10grpc_errorEEEPi, 
                       __ZN9grpc_core19ConnectedSubchannel10StartWatchEP16grpc_pollset_setNSt3__110unique_ptrINS_33ConnectivityStateWatcherInterfaceENS_16OrphanableDeleteEEE, 
                       __ZN9grpc_core19ConnectedSubchannel4PingEP12grpc_closureS2_, 
                       __ZN9grpc_core19ConnectedSubchannelC1EP18grpc_channel_stackPK17grpc_channel_argsNS_13RefCountedPtrINS_8channelz14SubchannelNodeEEE, 
                       __ZN9grpc_core19ConnectedSubchannelC2EP18grpc_channel_stackPK17grpc_channel_argsNS_13RefCountedPtrINS_8channelz14SubchannelNodeEEE, 
                       __ZN9grpc_core19ConnectedSubchannelD0Ev, __ZN9grpc_core19ConnectedSubchannelD1Ev, 
                       __ZN9grpc_core19ConnectedSubchannelD2Ev, __ZN9grpc_core19DefaultSslRootStore12GetRootStoreEv, 
                       __ZN9grpc_core19DefaultSslRootStore13InitRootStoreEv, __ZN9grpc_core19DefaultSslRootStore15GetPemRootCertsEv, 
                       __ZN9grpc_core19DefaultSslRootStore17InitRootStoreOnceEv, 
                       __ZN9grpc_core19DefaultSslRootStore19ComputePemRootCertsEv, 
                       __ZN9grpc_core19DefaultSslRootStore19default_root_store_E, 
                       __ZN9grpc_core19DefaultSslRootStore23default_pem_root_certs_E, 
                       __ZN9grpc_core19GlobalConfigEnvBool3GetEv, __ZN9grpc_core19GlobalConfigEnvBool3SetEb, 
                       __ZN9grpc_core19GrpcLbRequestCreateEPKcP9upb_arena, __ZN9grpc_core19GrpcLbResponseParseERK10grpc_sliceP9upb_arenaPNS_14GrpcLbResponseE, 
                       __ZN9grpc_core19LoadBalancingPolicy10UpdateArgsC1EOS1_, __ZN9grpc_core19LoadBalancingPolicy10UpdateArgsC1ERKS1_, 
                       __ZN9grpc_core19LoadBalancingPolicy10UpdateArgsC2EOS1_, __ZN9grpc_core19LoadBalancingPolicy10UpdateArgsC2ERKS1_, 
                       __ZN9grpc_core19LoadBalancingPolicy10UpdateArgsaSEOS1_, __ZN9grpc_core19LoadBalancingPolicy10UpdateArgsaSERKS1_, 
                       __ZN9grpc_core19LoadBalancingPolicy11QueuePicker4PickENS0_8PickArgsE, 
                       __ZN9grpc_core19LoadBalancingPolicy6OrphanEv, __ZN9grpc_core19LoadBalancingPolicyC2ENS0_4ArgsEl, 
                       __ZN9grpc_core19LoadBalancingPolicyD0Ev, __ZN9grpc_core19LoadBalancingPolicyD1Ev, 
                       __ZN9grpc_core19LoadBalancingPolicyD2Ev, __ZN9grpc_core19LoadSystemRootCertsEv, 
                       __ZN9grpc_core19LocalSubchannelPool14FindSubchannelERKNS_13SubchannelKeyE, 
                       __ZN9grpc_core19LocalSubchannelPool18RegisterSubchannelERKNS_13SubchannelKeyENS_13RefCountedPtrINS_10SubchannelEEE, 
                       __ZN9grpc_core19LocalSubchannelPool20UnregisterSubchannelERKNS_13SubchannelKeyEPNS_10SubchannelE, 
                       __ZN9grpc_core19ProxyMapperRegistry10MapAddressERK21grpc_resolved_addressPK17grpc_channel_argsPPS1_PPS4_, 
                       __ZN9grpc_core19ProxyMapperRegistry4InitEv, __ZN9grpc_core19ProxyMapperRegistry7MapNameEPKcPK17grpc_channel_argsPPcPPS3_, 
                       __ZN9grpc_core19ProxyMapperRegistry8RegisterEbNSt3__110unique_ptrINS_20ProxyMapperInterfaceENS1_14default_deleteIS3_EEEE, 
                       __ZN9grpc_core19ProxyMapperRegistry8ShutdownEv, __ZN9grpc_core19RegisterHttpFiltersEPNS_17CoreConfiguration7BuilderE, 
                       __ZN9grpc_core19RlsLbPluginShutdownEv, __ZN9grpc_core19ServiceConfigParser14RegisterParserENSt3__110unique_ptrINS0_6ParserENS1_14default_deleteIS3_EEEE, 
                       __ZN9grpc_core19ServiceConfigParser21ParseGlobalParametersEPK17grpc_channel_argsRKNS_4JsonEPP10grpc_error, 
                       __ZN9grpc_core19ServiceConfigParser24ParsePerMethodParametersEPK17grpc_channel_argsRKNS_4JsonEPP10grpc_error, 
                       __ZN9grpc_core19XdsClientGlobalInitEv, __ZN9grpc_core19XdsClusterDropStats14AddCallDroppedERKNSt3__112basic_stringIcNS1_11char_traitsIcEENS1_9allocatorIcEEEE, 
                       __ZN9grpc_core19XdsClusterDropStats19GetSnapshotAndResetEv, 
                       __ZN9grpc_core19XdsClusterDropStats21AddUncategorizedDropsEv, 
                       __ZN9grpc_core19XdsClusterDropStatsC1ENS_13RefCountedPtrINS_9XdsClientEEEN4absl12lts_2021110211string_viewES6_S6_, 
                       __ZN9grpc_core19XdsClusterDropStatsC2ENS_13RefCountedPtrINS_9XdsClientEEEN4absl12lts_2021110211string_viewES6_S6_, 
                       __ZN9grpc_core19XdsClusterDropStatsD0Ev, __ZN9grpc_core19XdsClusterDropStatsD1Ev, 
                       __ZN9grpc_core19XdsClusterDropStatsD2Ev, __ZN9grpc_core19kCredentialsTypeXdsE, 
                       __ZN9grpc_core20AuthorizationMatcher6CreateENS_4Rbac10PermissionE, 
                       __ZN9grpc_core20AuthorizationMatcher6CreateENS_4Rbac9PrincipalE, 
                       __ZN9grpc_core20ClientChannelFactory16CreateChannelArgEPS0_, 
                       __ZN9grpc_core20ClientChannelFactory18GetFromChannelArgsEPK17grpc_channel_args, 
                       __ZN9grpc_core20GetAuthPropertyArrayEP17grpc_auth_contextPKc, 
                       __ZN9grpc_core20GetAuthPropertyValueEP17grpc_auth_contextPKc, 
                       __ZN9grpc_core20GetCurrentStackTraceEv, __ZN9grpc_core20GlobalConfigEnvInt323GetEv, 
                       __ZN9grpc_core20GlobalConfigEnvInt323SetEi, __ZN9grpc_core20GlobalSubchannelPool14FindSubchannelERKNS_13SubchannelKeyE, 
                       __ZN9grpc_core20GlobalSubchannelPool18RegisterSubchannelERKNS_13SubchannelKeyENS_13RefCountedPtrINS_10SubchannelEEE, 
                       __ZN9grpc_core20GlobalSubchannelPool20UnregisterSubchannelERKNS_13SubchannelKeyEPNS_10SubchannelE, 
                       __ZN9grpc_core20GlobalSubchannelPool4InitEv, __ZN9grpc_core20GlobalSubchannelPool8ShutdownEv, 
                       __ZN9grpc_core20GlobalSubchannelPool8instanceEv, __ZN9grpc_core20GlobalSubchannelPool9instance_E, 
                       __ZN9grpc_core20RegisterMaxAgeFilterEPNS_17CoreConfiguration7BuilderE, 
                       __ZN9grpc_core20SdkServerAuthzFilter13kFilterVtableE, __ZN9grpc_core20SdkServerAuthzFilter4InitEP20grpc_channel_elementP25grpc_channel_element_args, 
                       __ZN9grpc_core20SdkServerAuthzFilter7DestroyEP20grpc_channel_element, 
                       __ZN9grpc_core20SdkServerAuthzFilter8CallData12IsAuthorizedEPS0_, 
                       __ZN9grpc_core20SdkServerAuthzFilter8CallData24RecvInitialMetadataReadyEPvP10grpc_error, 
                       __ZN9grpc_core20SdkServerAuthzFilter8CallData27StartTransportStreamOpBatchEP17grpc_call_elementP30grpc_transport_stream_op_batch, 
                       __ZN9grpc_core20SdkServerAuthzFilter8CallData4InitEP17grpc_call_elementPK22grpc_call_element_args, 
                       __ZN9grpc_core20SdkServerAuthzFilter8CallData7DestroyEP17grpc_call_elementPK20grpc_call_final_infoP12grpc_closure, 
                       __ZN9grpc_core20SdkServerAuthzFilter8CallDataC1EP17grpc_call_element, 
                       __ZN9grpc_core20SdkServerAuthzFilter8CallDataC2EP17grpc_call_element, 
                       __ZN9grpc_core20SdkServerAuthzFilterC1ENS_13RefCountedPtrI17grpc_auth_contextEEP13grpc_endpointNS1_I34grpc_authorization_policy_providerEE, 
                       __ZN9grpc_core20SdkServerAuthzFilterC2ENS_13RefCountedPtrI17grpc_auth_contextEEP13grpc_endpointNS1_I34grpc_authorization_policy_providerEE, 
                       __ZN9grpc_core20UnixSockaddrPopulateEN4absl12lts_2021110211string_viewEP21grpc_resolved_address, 
                       __ZN9grpc_core20UnmanagedMemorySlice8HeapInitEm, __ZN9grpc_core20UnmanagedMemorySliceC1EPKc, 
                       __ZN9grpc_core20UnmanagedMemorySliceC1EPKcm, __ZN9grpc_core20UnmanagedMemorySliceC1Em, 
                       __ZN9grpc_core20UnmanagedMemorySliceC2EPKc, __ZN9grpc_core20UnmanagedMemorySliceC2EPKcm, 
                       __ZN9grpc_core20UnmanagedMemorySliceC2Em, __ZN9grpc_core20XdsServerCredentials25create_security_connectorEPK17grpc_channel_args, 
                       __ZN9grpc_core20grpc_sdk_authz_traceE, __ZN9grpc_core20kXdsClusterAttributeE, 
                       __ZN9grpc_core21ConnectivityStateNameE23grpc_connectivity_state, 
                       __ZN9grpc_core21GlobalConfigEnvString3GetEv, __ZN9grpc_core21GlobalConfigEnvString3SetEPKc, 
                       __ZN9grpc_core21InternedSliceRefcountD1Ev, __ZN9grpc_core21InternedSliceRefcountD2Ev, 
                       __ZN9grpc_core21ParseDurationFromJsonERKNS_4JsonEPx, __ZN9grpc_core21ParseRingHashLbConfigERKNS_4JsonEPmS3_PNSt3__16vectorIP10grpc_errorNS4_9allocatorIS7_EEEE, 
                       __ZN9grpc_core21RegisterResourceQuotaEPNS_17CoreConfiguration7BuilderE, 
                       __ZN9grpc_core21SliceBufferByteStream4NextEmP12grpc_closure, 
                       __ZN9grpc_core21SliceBufferByteStream4PullEP10grpc_slice, 
                       __ZN9grpc_core21SliceBufferByteStream6OrphanEv, __ZN9grpc_core21SliceBufferByteStream8ShutdownEP10grpc_error, 
                       __ZN9grpc_core21SliceBufferByteStreamC1EP17grpc_slice_bufferj, 
                       __ZN9grpc_core21SliceBufferByteStreamC2EP17grpc_slice_bufferj, 
                       __ZN9grpc_core21SliceBufferByteStreamD0Ev, __ZN9grpc_core21SliceBufferByteStreamD1Ev, 
                       __ZN9grpc_core21SliceBufferByteStreamD2Ev, __ZN9grpc_core21TcpZerocopySendRecord12PopulateIovsEPmS1_S1_P5iovec, 
                       __ZN9grpc_core21TcpZerocopySendRecord24UpdateOffsetForBytesSentEmm, 
                       __ZN9grpc_core21XdsHttpFilterRegistry14PopulateSymtabEP10upb_symtab, 
                       __ZN9grpc_core21XdsHttpFilterRegistry14RegisterFilterENSt3__110unique_ptrINS_17XdsHttpFilterImplENS1_14default_deleteIS3_EEEERKNS1_3setIN4absl12lts_2021110211string_viewENS1_4lessISA_EENS1_9allocatorISA_EEEE, 
                       __ZN9grpc_core21XdsHttpFilterRegistry16GetFilterForTypeEN4absl12lts_2021110211string_viewE, 
                       __ZN9grpc_core21XdsHttpFilterRegistry4InitEv, __ZN9grpc_core21XdsHttpFilterRegistry8ShutdownEv, 
                       __ZN9grpc_core21grpc_handshaker_traceE, __ZN9grpc_core21grpc_trace_subchannelE, 
                       __ZN9grpc_core21grpc_xds_client_traceE, __ZN9grpc_core22BuildCoreConfigurationEPNS_17CoreConfiguration7BuilderE, 
                       __ZN9grpc_core22IpAuthorizationMatcherC1ENS0_4TypeENS_4Rbac9CidrRangeE, 
                       __ZN9grpc_core22IpAuthorizationMatcherC2ENS0_4TypeENS_4Rbac9CidrRangeE, 
                       __ZN9grpc_core22MakeLameClientErrorArgEPP10grpc_error, __ZN9grpc_core22ParseBackendMetricDataERKNS_5SliceEPNS_5ArenaE, 
                       __ZN9grpc_core22RegisterDeadlineFilterEPNS_17CoreConfiguration7BuilderE, 
                       __ZN9grpc_core22RemoveGrpcInternalArgsEPK17grpc_channel_args, 
                       __ZN9grpc_core22XdsCertificateProvider14GetSanMatchersERKNSt3__112basic_stringIcNS1_11char_traitsIcEENS1_9allocatorIcEEEE, 
                       __ZN9grpc_core22XdsCertificateProvider17ProvidesRootCertsERKNSt3__112basic_stringIcNS1_11char_traitsIcEENS1_9allocatorIcEEEE, 
                       __ZN9grpc_core22XdsCertificateProvider18GetFromChannelArgsEPK17grpc_channel_args, 
                       __ZN9grpc_core22XdsCertificateProvider19WatchStatusCallbackENSt3__112basic_stringIcNS1_11char_traitsIcEENS1_9allocatorIcEEEEbb, 
                       __ZN9grpc_core22XdsCertificateProvider21ProvidesIdentityCertsERKNSt3__112basic_stringIcNS1_11char_traitsIcEENS1_9allocatorIcEEEE, 
                       __ZN9grpc_core22XdsCertificateProvider23ClusterCertificateState19WatchStatusCallbackERKNSt3__112basic_stringIcNS2_11char_traitsIcEENS2_9allocatorIcEEEEbb, 
                       __ZN9grpc_core22XdsCertificateProvider23ClusterCertificateState21UpdateRootCertWatcherERKNSt3__112basic_stringIcNS2_11char_traitsIcEENS2_9allocatorIcEEEEP32grpc_tls_certificate_distributor, 
                       __ZN9grpc_core22XdsCertificateProvider23ClusterCertificateState25UpdateIdentityCertWatcherERKNSt3__112basic_stringIcNS2_11char_traitsIcEENS2_9allocatorIcEEEEP32grpc_tls_certificate_distributor, 
                       __ZN9grpc_core22XdsCertificateProvider23ClusterCertificateState32UpdateRootCertNameAndDistributorERKNSt3__112basic_stringIcNS2_11char_traitsIcEENS2_9allocatorIcEEEEN4absl12lts_2021110211string_viewENS_13RefCountedPtrI32grpc_tls_certificate_distributorEE, 
                       __ZN9grpc_core22XdsCertificateProvider23ClusterCertificateState36UpdateIdentityCertNameAndDistributorERKNSt3__112basic_stringIcNS2_11char_traitsIcEENS2_9allocatorIcEEEEN4absl12lts_2021110211string_viewENS_13RefCountedPtrI32grpc_tls_certificate_distributorEE, 
                       __ZN9grpc_core22XdsCertificateProvider23ClusterCertificateStateD1Ev, 
                       __ZN9grpc_core22XdsCertificateProvider23ClusterCertificateStateD2Ev, 
                       __ZN9grpc_core22XdsCertificateProvider27GetRequireClientCertificateERKNSt3__112basic_stringIcNS1_11char_traitsIcEENS1_9allocatorIcEEEE, 
                       __ZN9grpc_core22XdsCertificateProvider30UpdateRequireClientCertificateERKNSt3__112basic_stringIcNS1_11char_traitsIcEENS1_9allocatorIcEEEEb, 
                       __ZN9grpc_core22XdsCertificateProvider32UpdateRootCertNameAndDistributorERKNSt3__112basic_stringIcNS1_11char_traitsIcEENS1_9allocatorIcEEEEN4absl12lts_2021110211string_viewENS_13RefCountedPtrI32grpc_tls_certificate_distributorEE, 
                       __ZN9grpc_core22XdsCertificateProvider36UpdateIdentityCertNameAndDistributorERKNSt3__112basic_stringIcNS1_11char_traitsIcEENS1_9allocatorIcEEEEN4absl12lts_2021110211string_viewENS_13RefCountedPtrI32grpc_tls_certificate_distributorEE, 
                       __ZN9grpc_core22XdsCertificateProvider36UpdateSubjectAlternativeNameMatchersERKNSt3__112basic_stringIcNS1_11char_traitsIcEENS1_9allocatorIcEEEENS1_6vectorINS_13StringMatcherENS5_ISB_EEEE, 
                       __ZN9grpc_core22XdsCertificateProviderC1Ev, __ZN9grpc_core22XdsCertificateProviderC2Ev, 
                       __ZN9grpc_core22XdsCertificateProviderD0Ev, __ZN9grpc_core22XdsCertificateProviderD1Ev, 
                       __ZN9grpc_core22XdsCertificateProviderD2Ev, __ZN9grpc_core22XdsRouteConfigResource5ParseERKNS_18XdsEncodingContextEPK40envoy_config_route_v3_RouteConfigurationPS0_, 
                       __ZN9grpc_core22XdsRouteConfigResource5Route11RouteAction10HashPolicyC1EOS3_, 
                       __ZN9grpc_core22XdsRouteConfigResource5Route11RouteAction10HashPolicyC1ERKS3_, 
                       __ZN9grpc_core22XdsRouteConfigResource5Route11RouteAction10HashPolicyC2EOS3_, 
                       __ZN9grpc_core22XdsRouteConfigResource5Route11RouteAction10HashPolicyC2ERKS3_, 
                       __ZN9grpc_core22XdsRouteConfigResource5Route11RouteAction10HashPolicyaSEOS3_, 
                       __ZN9grpc_core22XdsRouteConfigResource5Route11RouteAction10HashPolicyaSERKS3_, 
                       __ZN9grpc_core22grpc_lb_priority_traceE, __ZN9grpc_core22grpc_thread_pool_traceE, 
                       __ZN9grpc_core23CompressionAlgorithmSet10FromStringEN4absl12lts_2021110211string_viewE, 
                       __ZN9grpc_core23CompressionAlgorithmSet10FromUint32Ej, __ZN9grpc_core23CompressionAlgorithmSet15FromChannelArgsEPK17grpc_channel_args, 
                       __ZN9grpc_core23CompressionAlgorithmSet3SetE26grpc_compression_algorithm, 
                       __ZN9grpc_core23CompressionAlgorithmSetC1ESt16initializer_listI26grpc_compression_algorithmE, 
                       __ZN9grpc_core23CompressionAlgorithmSetC1Ev, __ZN9grpc_core23CompressionAlgorithmSetC2ESt16initializer_listI26grpc_compression_algorithmE, 
                       __ZN9grpc_core23CompressionAlgorithmSetC2Ev, __ZN9grpc_core23GetFileModificationTimeEPKcPl, 
                       __ZN9grpc_core23GrpcAuthorizationEngineC1ENS_4RbacE, __ZN9grpc_core23GrpcAuthorizationEngineC1EOS0_, 
                       __ZN9grpc_core23GrpcAuthorizationEngineC2ENS_4RbacE, __ZN9grpc_core23GrpcAuthorizationEngineC2EOS0_, 
                       __ZN9grpc_core23GrpcAuthorizationEngineaSEOS0_, __ZN9grpc_core23GrpcMemoryAllocatorImpl10TryReserveEN17grpc_event_engine12experimental13MemoryRequestE, 
                       __ZN9grpc_core23GrpcMemoryAllocatorImpl13PostReclaimerENS_15ReclamationPassENSt3__18functionIFvN4absl12lts_202111028optionalINS_16ReclamationSweepEEEEEE, 
                       __ZN9grpc_core23GrpcMemoryAllocatorImpl22MaybeRegisterReclaimerEv, 
                       __ZN9grpc_core23GrpcMemoryAllocatorImpl28MaybeRegisterReclaimerLockedEv, 
                       __ZN9grpc_core23GrpcMemoryAllocatorImpl6RebindENSt3__110shared_ptrINS_16BasicMemoryQuotaEEE, 
                       __ZN9grpc_core23GrpcMemoryAllocatorImpl7ReserveEN17grpc_event_engine12experimental13MemoryRequestE, 
                       __ZN9grpc_core23GrpcMemoryAllocatorImpl8ShutdownEv, __ZN9grpc_core23GrpcMemoryAllocatorImpl9ReplenishEv, 
                       __ZN9grpc_core23GrpcMemoryAllocatorImplC1ENSt3__110shared_ptrINS_16BasicMemoryQuotaEEENS1_12basic_stringIcNS1_11char_traitsIcEENS1_9allocatorIcEEEE, 
                       __ZN9grpc_core23GrpcMemoryAllocatorImplC2ENSt3__110shared_ptrINS_16BasicMemoryQuotaEEENS1_12basic_stringIcNS1_11char_traitsIcEENS1_9allocatorIcEEEE, 
                       __ZN9grpc_core23GrpcMemoryAllocatorImplD0Ev, __ZN9grpc_core23GrpcMemoryAllocatorImplD1Ev, 
                       __ZN9grpc_core23GrpcMemoryAllocatorImplD2Ev, __ZN9grpc_core23MessageDecompressFilterE, 
                       __ZN9grpc_core23MessageSizeParsedConfig18GetFromCallContextEPK25grpc_call_context_element, 
                       __ZN9grpc_core23RbacServiceConfigParser11ParserIndexEv, __ZN9grpc_core23RbacServiceConfigParser20ParsePerMethodParamsEPK17grpc_channel_argsRKNS_4JsonEPP10grpc_error, 
                       __ZN9grpc_core23RbacServiceConfigParser8RegisterEv, __ZN9grpc_core23RegisterHttpProxyMapperEv, 
                       __ZN9grpc_core23RegisterSecurityFiltersEPNS_17CoreConfiguration7BuilderE, 
                       __ZN9grpc_core23ServiceConfigParserInitEv, __ZN9grpc_core23SubchannelPoolInterface16CreateChannelArgEPS0_, 
                       __ZN9grpc_core23SubchannelPoolInterface32GetSubchannelPoolFromChannelArgsEPK17grpc_channel_args, 
                       __ZN9grpc_core23XdsChannelCredsRegistry11IsSupportedERKNSt3__112basic_stringIcNS1_11char_traitsIcEENS1_9allocatorIcEEEE, 
                       __ZN9grpc_core23XdsChannelCredsRegistry13IsValidConfigERKNSt3__112basic_stringIcNS1_11char_traitsIcEENS1_9allocatorIcEEEERKNS_4JsonE, 
                       __ZN9grpc_core23XdsChannelCredsRegistry21CreateXdsChannelCredsERKNSt3__112basic_stringIcNS1_11char_traitsIcEENS1_9allocatorIcEEEERKNS_4JsonE, 
                       __ZN9grpc_core23XdsChannelCredsRegistry23RegisterXdsChannelCredsENSt3__110unique_ptrINS_19XdsChannelCredsImplENS1_14default_deleteIS3_EEEE, 
                       __ZN9grpc_core23XdsChannelCredsRegistry4InitEv, __ZN9grpc_core23XdsChannelCredsRegistry8ShutdownEv, 
                       __ZN9grpc_core23XdsChannelStackModifier18GetFromChannelArgsERK17grpc_channel_args, 
                       __ZN9grpc_core23XdsChannelStackModifier18ModifyChannelStackEP26grpc_channel_stack_builder, 
                       __ZN9grpc_core23XdsClientGlobalShutdownEv, __ZN9grpc_core23XdsClusterLocalityStats14AddCallStartedEv, 
                       __ZN9grpc_core23XdsClusterLocalityStats15AddCallFinishedEb, 
                       __ZN9grpc_core23XdsClusterLocalityStats19GetSnapshotAndResetEv, 
                       __ZN9grpc_core23XdsClusterLocalityStatsC1ENS_13RefCountedPtrINS_9XdsClientEEEN4absl12lts_2021110211string_viewES6_S6_NS1_INS_15XdsLocalityNameEEE, 
                       __ZN9grpc_core23XdsClusterLocalityStatsC2ENS_13RefCountedPtrINS_9XdsClientEEEN4absl12lts_2021110211string_viewES6_S6_NS1_INS_15XdsLocalityNameEEE, 
                       __ZN9grpc_core23XdsClusterLocalityStatsD0Ev, __ZN9grpc_core23XdsClusterLocalityStatsD1Ev, 
                       __ZN9grpc_core23XdsClusterLocalityStatsD2Ev, __ZN9grpc_core23grpc_lb_ring_hash_traceE, 
                       __ZN9grpc_core23grpc_xds_resolver_traceE, __ZN9grpc_core24CertificateProviderStore26ReleaseCertificateProviderEN4absl12lts_2021110211string_viewEPNS0_26CertificateProviderWrapperE, 
                       __ZN9grpc_core24CertificateProviderStore30CreateOrGetCertificateProviderEN4absl12lts_2021110211string_viewE, 
                       __ZN9grpc_core24CertificateProviderStore31CreateCertificateProviderLockedEN4absl12lts_2021110211string_viewE, 
                       __ZN9grpc_core24Chttp2IncomingByteStream10NextLockedEPvP10grpc_error, 
                       __ZN9grpc_core24Chttp2IncomingByteStream12OrphanLockedEPvP10grpc_error, 
                       __ZN9grpc_core24Chttp2IncomingByteStream12PublishErrorEP10grpc_error, 
                       __ZN9grpc_core24Chttp2IncomingByteStream4NextEmP12grpc_closure, 
                       __ZN9grpc_core24Chttp2IncomingByteStream4PullEP10grpc_slice, 
                       __ZN9grpc_core24Chttp2IncomingByteStream4PushERK10grpc_slicePS1_, 
                       __ZN9grpc_core24Chttp2IncomingByteStream6OrphanEv, __ZN9grpc_core24Chttp2IncomingByteStream8FinishedEP10grpc_errorb, 
                       __ZN9grpc_core24Chttp2IncomingByteStream8ShutdownEP10grpc_error, 
                       __ZN9grpc_core24Chttp2IncomingByteStreamC1EP21grpc_chttp2_transportP18grpc_chttp2_streamjj, 
                       __ZN9grpc_core24Chttp2IncomingByteStreamC2EP21grpc_chttp2_transportP18grpc_chttp2_streamjj, 
                       __ZN9grpc_core24ConnectivityStateTracker10AddWatcherE23grpc_connectivity_stateNSt3__110unique_ptrINS_33ConnectivityStateWatcherInterfaceENS_16OrphanableDeleteEEE, 
                       __ZN9grpc_core24ConnectivityStateTracker13RemoveWatcherEPNS_33ConnectivityStateWatcherInterfaceE, 
                       __ZN9grpc_core24ConnectivityStateTracker8SetStateE23grpc_connectivity_stateRKN4absl12lts_202111026StatusEPKc, 
                       __ZN9grpc_core24ConnectivityStateTrackerD1Ev, __ZN9grpc_core24ConnectivityStateTrackerD2Ev, 
                       __ZN9grpc_core24FaultInjectionFilterInitEv, __ZN9grpc_core24GrpcLbPolicyRingHashInitEv, 
                       __ZN9grpc_core24RegisterClientIdleFilterEPNS_17CoreConfiguration7BuilderE, 
                       __ZN9grpc_core24SecurityHandshakerCreateEP14tsi_handshakerP23grpc_security_connectorPK17grpc_channel_args, 
                       __ZN9grpc_core24grpc_call_combiner_traceE, __ZN9grpc_core24grpc_lb_pick_first_traceE, 
                       __ZN9grpc_core24kernel_supports_errqueueEv, __ZN9grpc_core25ExtractHttpFilterTypeNameERKNS_18XdsEncodingContextEPK19google_protobuf_AnyPN4absl12lts_2021110211string_viewE, 
                       __ZN9grpc_core25ParseCompressionAlgorithmEN4absl12lts_2021110211string_viewE, 
                       __ZN9grpc_core25RegisterMessageSizeFilterEPNS_17CoreConfiguration7BuilderE, 
                       __ZN9grpc_core25grpc_executor_global_initEv, __ZN9grpc_core25grpc_lb_round_robin_traceE, 
                       __ZN9grpc_core25grpc_server_channel_traceE, __ZN9grpc_core25kRequestRingHashAttributeE, 
                       __ZN9grpc_core26ChannelArgsPreconditioning7Builder13RegisterStageENSt3__18functionIFPK17grpc_channel_argsS6_EEE, 
                       __ZN9grpc_core26ChannelArgsPreconditioning7Builder5BuildEv, 
                       __ZN9grpc_core26ExternalAccountCredentials12debug_stringEv, 
                       __ZN9grpc_core26ExternalAccountCredentials12fetch_oauth2EP33grpc_credentials_metadata_requestP19grpc_polling_entityPFvPvP10grpc_errorEx, 
                       __ZN9grpc_core26ExternalAccountCredentials13ExchangeTokenEN4absl12lts_2021110211string_viewE, 
                       __ZN9grpc_core26ExternalAccountCredentials15OnExchangeTokenEPvP10grpc_error, 
                       __ZN9grpc_core26ExternalAccountCredentials16FinishTokenFetchEP10grpc_error, 
                       __ZN9grpc_core26ExternalAccountCredentials23OnExchangeTokenInternalEP10grpc_error, 
                       __ZN9grpc_core26ExternalAccountCredentials25ImpersenateServiceAccountEv, 
                       __ZN9grpc_core26ExternalAccountCredentials27OnImpersenateServiceAccountEPvP10grpc_error, 
                       __ZN9grpc_core26ExternalAccountCredentials30OnRetrieveSubjectTokenInternalEN4absl12lts_2021110211string_viewEP10grpc_error, 
                       __ZN9grpc_core26ExternalAccountCredentials35OnImpersenateServiceAccountInternalEP10grpc_error, 
                       __ZN9grpc_core26ExternalAccountCredentials6CreateERKNS_4JsonENSt3__16vectorINS4_12basic_stringIcNS4_11char_traitsIcEENS4_9allocatorIcEEEENS9_ISB_EEEEPP10grpc_error, 
                       __ZN9grpc_core26ExternalAccountCredentialsC2ENS0_7OptionsENSt3__16vectorINS2_12basic_stringIcNS2_11char_traitsIcEENS2_9allocatorIcEEEENS7_IS9_EEEE, 
                       __ZN9grpc_core26ExternalAccountCredentialsD0Ev, __ZN9grpc_core26ExternalAccountCredentialsD1Ev, 
                       __ZN9grpc_core26ExternalAccountCredentialsD2Ev, __ZN9grpc_core26FakeResolverResponseSetter16SetFailureLockedEv, 
                       __ZN9grpc_core26FakeResolverResponseSetter17SetResponseLockedEv, 
                       __ZN9grpc_core26FakeResolverResponseSetter29SetReresolutionResponseLockedEv, 
                       __ZN9grpc_core26FaultInjectionFilterVtableE, __ZN9grpc_core26MakeHierarchicalAddressMapERKN4absl12lts_202111028StatusOrINS1_13InlinedVectorINS_13ServerAddressELm1ENSt3__19allocatorIS4_EEEEEE, 
                       __ZN9grpc_core26TlsServerSecurityConnector10check_peerE8tsi_peerP13grpc_endpointPNS_13RefCountedPtrI17grpc_auth_contextEEP12grpc_closure, 
                       __ZN9grpc_core26TlsServerSecurityConnector15add_handshakersEPK17grpc_channel_argsP16grpc_pollset_setPNS_16HandshakeManagerE, 
                       __ZN9grpc_core26TlsServerSecurityConnector17cancel_check_peerEP12grpc_closureP10grpc_error, 
                       __ZN9grpc_core26TlsServerSecurityConnector27TlsServerCertificateWatcher21OnCertificatesChangedEN4absl12lts_202111028optionalINS3_11string_viewEEENS4_INS3_13InlinedVectorINS_14PemKeyCertPairELm1ENSt3__19allocatorIS8_EEEEEE, 
                       __ZN9grpc_core26TlsServerSecurityConnector27TlsServerCertificateWatcher7OnErrorEP10grpc_errorS3_, 
                       __ZN9grpc_core26TlsServerSecurityConnector28ServerPendingVerifierRequest12OnVerifyDoneEbN4absl12lts_202111026StatusE, 
                       __ZN9grpc_core26TlsServerSecurityConnector28ServerPendingVerifierRequest5StartEv, 
                       __ZN9grpc_core26TlsServerSecurityConnector28ServerPendingVerifierRequestC1ENS_13RefCountedPtrIS0_EEP12grpc_closure8tsi_peer, 
                       __ZN9grpc_core26TlsServerSecurityConnector28ServerPendingVerifierRequestC2ENS_13RefCountedPtrIS0_EEP12grpc_closure8tsi_peer, 
                       __ZN9grpc_core26TlsServerSecurityConnector28ServerPendingVerifierRequestD1Ev, 
                       __ZN9grpc_core26TlsServerSecurityConnector28ServerPendingVerifierRequestD2Ev, 
                       __ZN9grpc_core26TlsServerSecurityConnector29UpdateHandshakerFactoryLockedEv, 
                       __ZN9grpc_core26TlsServerSecurityConnector32CreateTlsServerSecurityConnectorENS_13RefCountedPtrI23grpc_server_credentialsEENS1_I28grpc_tls_credentials_optionsEE, 
                       __ZN9grpc_core26TlsServerSecurityConnectorC1ENS_13RefCountedPtrI23grpc_server_credentialsEENS1_I28grpc_tls_credentials_optionsEE, 
                       __ZN9grpc_core26TlsServerSecurityConnectorC2ENS_13RefCountedPtrI23grpc_server_credentialsEENS1_I28grpc_tls_credentials_optionsEE, 
                       __ZN9grpc_core26TlsServerSecurityConnectorD0Ev, __ZN9grpc_core26TlsServerSecurityConnectorD1Ev, 
                       __ZN9grpc_core26TlsServerSecurityConnectorD2Ev, __ZN9grpc_core26grpc_subchannel_pool_traceE, 
                       __ZN9grpc_core26grpc_work_serializer_traceE, __ZN9grpc_core27CertificateProviderRegistry12InitRegistryEv, 
                       __ZN9grpc_core27CertificateProviderRegistry16ShutdownRegistryEv, 
                       __ZN9grpc_core27CertificateProviderRegistry32LookupCertificateProviderFactoryEN4absl12lts_2021110211string_viewE, 
                       __ZN9grpc_core27CertificateProviderRegistry34RegisterCertificateProviderFactoryENSt3__110unique_ptrINS_26CertificateProviderFactoryENS1_14default_deleteIS3_EEEE, 
                       __ZN9grpc_core27CreateGrpclbBalancerChannelEPKcRK17grpc_channel_args, 
                       __ZN9grpc_core27ExternalCertificateVerifier12OnVerifyDoneEP42grpc_tls_custom_verification_check_requestPv16grpc_status_codePKc, 
                       __ZN9grpc_core27ExternalCertificateVerifier6VerifyEP42grpc_tls_custom_verification_check_requestNSt3__18functionIFvN4absl12lts_202111026StatusEEEEPS7_, 
                       __ZN9grpc_core27HostNameCertificateVerifier6VerifyEP42grpc_tls_custom_verification_check_requestNSt3__18functionIFvN4absl12lts_202111026StatusEEEEPS7_, 
                       __ZN9grpc_core27LoadBalancingPolicyRegistry24ParseLoadBalancingConfigERKNS_4JsonEPP10grpc_error, 
                       __ZN9grpc_core27LoadBalancingPolicyRegistry25CreateLoadBalancingPolicyEPKcNS_19LoadBalancingPolicy4ArgsE, 
                       __ZN9grpc_core27LoadBalancingPolicyRegistry25LoadBalancingPolicyExistsEPKcPb, 
                       __ZN9grpc_core27LoadBalancingPolicyRegistry7Builder12InitRegistryEv, 
                       __ZN9grpc_core27LoadBalancingPolicyRegistry7Builder16ShutdownRegistryEv, 
                       __ZN9grpc_core27LoadBalancingPolicyRegistry7Builder34RegisterLoadBalancingPolicyFactoryENSt3__110unique_ptrINS_26LoadBalancingPolicyFactoryENS2_14default_deleteIS4_EEEE, 
                       __ZN9grpc_core27RemoveServiceNameFromJwtUriEN4absl12lts_2021110211string_viewE, 
                       __ZN9grpc_core27ServiceConfigParserShutdownEv, __ZN9grpc_core27TlsChannelSecurityConnector10check_peerE8tsi_peerP13grpc_endpointPNS_13RefCountedPtrI17grpc_auth_contextEEP12grpc_closure, 
                       __ZN9grpc_core27TlsChannelSecurityConnector15add_handshakersEPK17grpc_channel_argsP16grpc_pollset_setPNS_16HandshakeManagerE, 
                       __ZN9grpc_core27TlsChannelSecurityConnector15check_call_hostEN4absl12lts_2021110211string_viewEP17grpc_auth_contextP12grpc_closurePP10grpc_error, 
                       __ZN9grpc_core27TlsChannelSecurityConnector17cancel_check_peerEP12grpc_closureP10grpc_error, 
                       __ZN9grpc_core27TlsChannelSecurityConnector22cancel_check_call_hostEP12grpc_closureP10grpc_error, 
                       __ZN9grpc_core27TlsChannelSecurityConnector28TlsChannelCertificateWatcher21OnCertificatesChangedEN4absl12lts_202111028optionalINS3_11string_viewEEENS4_INS3_13InlinedVectorINS_14PemKeyCertPairELm1ENSt3__19allocatorIS8_EEEEEE, 
                       __ZN9grpc_core27TlsChannelSecurityConnector28TlsChannelCertificateWatcher7OnErrorEP10grpc_errorS3_, 
                       __ZN9grpc_core27TlsChannelSecurityConnector29ChannelPendingVerifierRequest12OnVerifyDoneEbN4absl12lts_202111026StatusE, 
                       __ZN9grpc_core27TlsChannelSecurityConnector29ChannelPendingVerifierRequest5StartEv, 
                       __ZN9grpc_core27TlsChannelSecurityConnector29ChannelPendingVerifierRequestC1ENS_13RefCountedPtrIS0_EEP12grpc_closure8tsi_peerPKc, 
                       __ZN9grpc_core27TlsChannelSecurityConnector29ChannelPendingVerifierRequestC2ENS_13RefCountedPtrIS0_EEP12grpc_closure8tsi_peerPKc, 
                       __ZN9grpc_core27TlsChannelSecurityConnector29ChannelPendingVerifierRequestD1Ev, 
                       __ZN9grpc_core27TlsChannelSecurityConnector29ChannelPendingVerifierRequestD2Ev, 
                       __ZN9grpc_core27TlsChannelSecurityConnector29UpdateHandshakerFactoryLockedEv, 
                       __ZN9grpc_core27TlsChannelSecurityConnector33CreateTlsChannelSecurityConnectorENS_13RefCountedPtrI24grpc_channel_credentialsEENS1_I28grpc_tls_credentials_optionsEENS1_I21grpc_call_credentialsEEPKcS9_P21tsi_ssl_session_cache, 
                       __ZN9grpc_core27TlsChannelSecurityConnectorC1ENS_13RefCountedPtrI24grpc_channel_credentialsEENS1_I28grpc_tls_credentials_optionsEENS1_I21grpc_call_credentialsEEPKcS9_P21tsi_ssl_session_cache, 
                       __ZN9grpc_core27TlsChannelSecurityConnectorC2ENS_13RefCountedPtrI24grpc_channel_credentialsEENS1_I28grpc_tls_credentials_optionsEENS1_I21grpc_call_credentialsEEPKcS9_P21tsi_ssl_session_cache, 
                       __ZN9grpc_core27TlsChannelSecurityConnectorD0Ev, __ZN9grpc_core27TlsChannelSecurityConnectorD1Ev, 
                       __ZN9grpc_core27TlsChannelSecurityConnectorD2Ev, __ZN9grpc_core27kServerConfigSelectorFilterE, 
                       __ZN9grpc_core28CompressionAlgorithmAsStringE26grpc_compression_algorithm, 
                       __ZN9grpc_core28FaultInjectionFilterShutdownEv, __ZN9grpc_core28GetCurrentStackTraceProviderEv, 
                       __ZN9grpc_core28GoogleCloud2ProdResolverInitEv, __ZN9grpc_core28GrpcLbPolicyRingHashShutdownEv, 
                       __ZN9grpc_core28PermissivePercentDecodeSliceENS_5SliceE, __ZN9grpc_core28ResourceQuotaFromChannelArgsEPK17grpc_channel_args, 
                       __ZN9grpc_core28ServerAddressWeightAttribute32kServerAddressWeightAttributeKeyE, 
                       __ZN9grpc_core28ServerConfigSelectorProvider18GetFromChannelArgsERK17grpc_channel_args, 
                       __ZN9grpc_core28SetCurrentStackTraceProviderEPFNSt3__112basic_stringIcNS0_11char_traitsIcEENS0_9allocatorIcEEEEvE, 
                       __ZN9grpc_core28UnixAbstractSockaddrPopulateEN4absl12lts_2021110211string_viewEP21grpc_resolved_address, 
                       __ZN9grpc_core28VerifySubjectAlternativeNameEN4absl12lts_2021110211string_viewERKNSt3__112basic_stringIcNS3_11char_traitsIcEENS3_9allocatorIcEEEE, 
                       __ZN9grpc_core28kXdsHttpRbacFilterConfigNameE, __ZN9grpc_core28kXdsLocalityNameAttributeKeyE, 
                       __ZN9grpc_core29AwsExternalAccountCredentials14RetrieveRegionEv, 
                       __ZN9grpc_core29AwsExternalAccountCredentials16OnRetrieveRegionEPvP10grpc_error, 
                       __ZN9grpc_core29AwsExternalAccountCredentials16RetrieveRoleNameEv, 
                       __ZN9grpc_core29AwsExternalAccountCredentials17BuildSubjectTokenEv, 
                       __ZN9grpc_core29AwsExternalAccountCredentials18OnRetrieveRoleNameEPvP10grpc_error, 
                       __ZN9grpc_core29AwsExternalAccountCredentials19RetrieveSigningKeysEv, 
                       __ZN9grpc_core29AwsExternalAccountCredentials20RetrieveSubjectTokenEPNS_26ExternalAccountCredentials18HTTPRequestContextERKNS1_7OptionsENSt3__18functionIFvNS7_12basic_stringIcNS7_11char_traitsIcEENS7_9allocatorIcEEEEP10grpc_errorEEE, 
                       __ZN9grpc_core29AwsExternalAccountCredentials21OnRetrieveSigningKeysEPvP10grpc_error, 
                       __ZN9grpc_core29AwsExternalAccountCredentials24OnRetrieveRegionInternalEP10grpc_error, 
                       __ZN9grpc_core29AwsExternalAccountCredentials26FinishRetrieveSubjectTokenENSt3__112basic_stringIcNS1_11char_traitsIcEENS1_9allocatorIcEEEEP10grpc_error, 
                       __ZN9grpc_core29AwsExternalAccountCredentials26OnRetrieveRoleNameInternalEP10grpc_error, 
                       __ZN9grpc_core29AwsExternalAccountCredentials29OnRetrieveSigningKeysInternalEP10grpc_error, 
                       __ZN9grpc_core29AwsExternalAccountCredentials6CreateENS_26ExternalAccountCredentials7OptionsENSt3__16vectorINS3_12basic_stringIcNS3_11char_traitsIcEENS3_9allocatorIcEEEENS8_ISA_EEEEPP10grpc_error, 
                       __ZN9grpc_core29AwsExternalAccountCredentialsC1ENS_26ExternalAccountCredentials7OptionsENSt3__16vectorINS3_12basic_stringIcNS3_11char_traitsIcEENS3_9allocatorIcEEEENS8_ISA_EEEEPP10grpc_error, 
                       __ZN9grpc_core29AwsExternalAccountCredentialsC2ENS_26ExternalAccountCredentials7OptionsENSt3__16vectorINS3_12basic_stringIcNS3_11char_traitsIcEENS3_9allocatorIcEEEENS8_ISA_EEEEPP10grpc_error, 
                       __ZN9grpc_core29FakeResolverResponseGenerator10SetFailureEv, 
                       __ZN9grpc_core29FakeResolverResponseGenerator11GetFromArgsEPK17grpc_channel_args, 
                       __ZN9grpc_core29FakeResolverResponseGenerator11SetResponseENS_8Resolver6ResultE, 
                       __ZN9grpc_core29FakeResolverResponseGenerator14MakeChannelArgEPS0_, 
                       __ZN9grpc_core29FakeResolverResponseGenerator15SetFakeResolverENS_13RefCountedPtrINS_12FakeResolverEEE, 
                       __ZN9grpc_core29FakeResolverResponseGenerator23SetReresolutionResponseENS_8Resolver6ResultE, 
                       __ZN9grpc_core29FakeResolverResponseGenerator24SetFailureOnReresolutionEv, 
                       __ZN9grpc_core29FakeResolverResponseGenerator24kChannelArgPointerVtableE, 
                       __ZN9grpc_core29FakeResolverResponseGenerator25UnsetReresolutionResponseEv, 
                       __ZN9grpc_core29FakeResolverResponseGeneratorC1Ev, __ZN9grpc_core29FakeResolverResponseGeneratorC2Ev, 
                       __ZN9grpc_core29FakeResolverResponseGeneratorD0Ev, __ZN9grpc_core29FakeResolverResponseGeneratorD1Ev, 
                       __ZN9grpc_core29FakeResolverResponseGeneratorD2Ev, __ZN9grpc_core29GetMaxRecvSizeFromChannelArgsEPK17grpc_channel_args, 
                       __ZN9grpc_core29GetMaxSendSizeFromChannelArgsEPK17grpc_channel_args, 
                       __ZN9grpc_core29GrpcLbLoadReportRequestCreateExxxxPKN4absl12lts_2021110213InlinedVectorINS_17GrpcLbClientStats14DropTokenCountELm10ENSt3__19allocatorIS4_EEEEP9upb_arena, 
                       __ZN9grpc_core29MakeHierarchicalPathAttributeENSt3__16vectorINS0_12basic_stringIcNS0_11char_traitsIcEENS0_9allocatorIcEEEENS5_IS7_EEEE, 
                       __ZN9grpc_core29PrivateKeyAndCertificateMatchEN4absl12lts_2021110211string_viewES2_, 
                       __ZN9grpc_core29RegisterClientAuthorityFilterEPNS_17CoreConfiguration7BuilderE, 
                       __ZN9grpc_core29RegisterHttpConnectHandshakerEPNS_17CoreConfiguration7BuilderE, 
                       __ZN9grpc_core29StaticDataCertificateProviderC1ENSt3__112basic_stringIcNS1_11char_traitsIcEENS1_9allocatorIcEEEEN4absl12lts_2021110213InlinedVectorINS_14PemKeyCertPairELm1ENS5_ISB_EEEE, 
                       __ZN9grpc_core29StaticDataCertificateProviderC2ENSt3__112basic_stringIcNS1_11char_traitsIcEENS1_9allocatorIcEEEEN4absl12lts_2021110213InlinedVectorINS_14PemKeyCertPairELm1ENS5_ISB_EEEE, 
                       __ZN9grpc_core29StaticDataCertificateProviderD0Ev, __ZN9grpc_core29StaticDataCertificateProviderD1Ev, 
                       __ZN9grpc_core29StaticDataCertificateProviderD2Ev, __ZN9grpc_core29UrlExternalAccountCredentials20RetrieveSubjectTokenEPNS_26ExternalAccountCredentials18HTTPRequestContextERKNS1_7OptionsENSt3__18functionIFvNS7_12basic_stringIcNS7_11char_traitsIcEENS7_9allocatorIcEEEEP10grpc_errorEEE, 
                       __ZN9grpc_core29UrlExternalAccountCredentials22OnRetrieveSubjectTokenEPvP10grpc_error, 
                       __ZN9grpc_core29UrlExternalAccountCredentials26FinishRetrieveSubjectTokenENSt3__112basic_stringIcNS1_11char_traitsIcEENS1_9allocatorIcEEEEP10grpc_error, 
                       __ZN9grpc_core29UrlExternalAccountCredentials30OnRetrieveSubjectTokenInternalEP10grpc_error, 
                       __ZN9grpc_core29UrlExternalAccountCredentials6CreateENS_26ExternalAccountCredentials7OptionsENSt3__16vectorINS3_12basic_stringIcNS3_11char_traitsIcEENS3_9allocatorIcEEEENS8_ISA_EEEEPP10grpc_error, 
                       __ZN9grpc_core29UrlExternalAccountCredentialsC1ENS_26ExternalAccountCredentials7OptionsENSt3__16vectorINS3_12basic_stringIcNS3_11char_traitsIcEENS3_9allocatorIcEEEENS8_ISA_EEEEPP10grpc_error, 
                       __ZN9grpc_core29UrlExternalAccountCredentialsC2ENS_26ExternalAccountCredentials7OptionsENSt3__16vectorINS3_12basic_stringIcNS3_11char_traitsIcEENS3_9allocatorIcEEEENS8_ISA_EEEEPP10grpc_error, 
                       __ZN9grpc_core29ValidateStsCredentialsOptionsEPK28grpc_sts_credentials_options, 
                       __ZN9grpc_core29grpc_connectivity_state_traceE, __ZN9grpc_core29grpc_lb_weighted_target_traceE, 
                       __ZN9grpc_core29grpc_trace_client_idle_filterE, __ZN9grpc_core29grpc_trace_lb_policy_refcountE, 
                       __ZN9grpc_core29kHierarchicalPathAttributeKeyE, __ZN9grpc_core29kXdsHttpFaultFilterConfigNameE, 
                       __ZN9grpc_core30FileExternalAccountCredentials20RetrieveSubjectTokenEPNS_26ExternalAccountCredentials18HTTPRequestContextERKNS1_7OptionsENSt3__18functionIFvNS7_12basic_stringIcNS7_11char_traitsIcEENS7_9allocatorIcEEEEP10grpc_errorEEE, 
                       __ZN9grpc_core30FileExternalAccountCredentials6CreateENS_26ExternalAccountCredentials7OptionsENSt3__16vectorINS3_12basic_stringIcNS3_11char_traitsIcEENS3_9allocatorIcEEEENS8_ISA_EEEEPP10grpc_error, 
                       __ZN9grpc_core30FileExternalAccountCredentialsC1ENS_26ExternalAccountCredentials7OptionsENSt3__16vectorINS3_12basic_stringIcNS3_11char_traitsIcEENS3_9allocatorIcEEEENS8_ISA_EEEEPP10grpc_error, 
                       __ZN9grpc_core30FileExternalAccountCredentialsC2ENS_26ExternalAccountCredentials7OptionsENSt3__16vectorINS3_12basic_stringIcNS3_11char_traitsIcEENS3_9allocatorIcEEEENS8_ISA_EEEEPP10grpc_error, 
                       __ZN9grpc_core30FileWatcherCertificateProvider11ForceUpdateEv, 
                       __ZN9grpc_core30FileWatcherCertificateProvider28ReadRootCertificatesFromFileERKNSt3__112basic_stringIcNS1_11char_traitsIcEENS1_9allocatorIcEEEE, 
                       __ZN9grpc_core30FileWatcherCertificateProvider32ReadIdentityKeyCertPairFromFilesERKNSt3__112basic_stringIcNS1_11char_traitsIcEENS1_9allocatorIcEEEES9_, 
                       __ZN9grpc_core30FileWatcherCertificateProviderC1ENSt3__112basic_stringIcNS1_11char_traitsIcEENS1_9allocatorIcEEEES7_S7_j, 
                       __ZN9grpc_core30FileWatcherCertificateProviderC2ENSt3__112basic_stringIcNS1_11char_traitsIcEENS1_9allocatorIcEEEES7_S7_j, 
                       __ZN9grpc_core30FileWatcherCertificateProviderD0Ev, __ZN9grpc_core30FileWatcherCertificateProviderD1Ev, 
                       __ZN9grpc_core30FileWatcherCertificateProviderD2Ev, __ZN9grpc_core30ParseJsonObjectFieldAsDurationERKNSt3__13mapINS0_12basic_stringIcNS0_11char_traitsIcEENS0_9allocatorIcEEEENS_4JsonENS0_4lessIS7_EENS5_INS0_4pairIKS7_S8_EEEEEEN4absl12lts_2021110211string_viewEPxPNS0_6vectorIP10grpc_errorNS5_ISO_EEEEb, 
                       __ZN9grpc_core30g_current_stack_trace_providerE, __ZN9grpc_core30grpc_client_channel_call_traceE, 
                       __ZN9grpc_core30grpc_health_check_client_traceE, __ZN9grpc_core30grpc_trace_chttp2_hpack_parserE, 
                       __ZN9grpc_core30grpc_trace_subchannel_refcountE, __ZN9grpc_core30grpc_xds_client_refcount_traceE, 
                       __ZN9grpc_core30grpc_xds_cluster_impl_lb_traceE, __ZN9grpc_core30kInsecureTransportSecurityTypeE, 
                       __ZN9grpc_core30kXdsHttpRouterFilterConfigNameE, __ZN9grpc_core31BuildClientChannelConfigurationEPNS_17CoreConfiguration7BuilderE, 
                       __ZN9grpc_core31InsecureServerSecurityConnector10check_peerE8tsi_peerP13grpc_endpointPNS_13RefCountedPtrI17grpc_auth_contextEEP12grpc_closure, 
                       __ZN9grpc_core31InsecureServerSecurityConnector15add_handshakersEPK17grpc_channel_argsP16grpc_pollset_setPNS_16HandshakeManagerE, 
                       __ZN9grpc_core31ModifyGrpclbBalancerChannelArgsEP17grpc_channel_args, 
                       __ZN9grpc_core31RegisterXdsChannelStackModifierEPNS_17CoreConfiguration7BuilderE, 
                       __ZN9grpc_core31SetGlobalConfigEnvErrorFunctionEPFvPKcE, __ZN9grpc_core31TestOnlyMakeInsecureAuthContextEv, 
                       __ZN9grpc_core32CreateGrpclbBalancerAddressesArgEPKN4absl12lts_2021110213InlinedVectorINS_13ServerAddressELm1ENSt3__19allocatorIS3_EEEE, 
                       __ZN9grpc_core32GoogleCloud2ProdResolverShutdownEv, __ZN9grpc_core32InsecureChannelSecurityConnector10check_peerE8tsi_peerP13grpc_endpointPNS_13RefCountedPtrI17grpc_auth_contextEEP12grpc_closure, 
                       __ZN9grpc_core32InsecureChannelSecurityConnector15add_handshakersEPK17grpc_channel_argsP16grpc_pollset_setPNS_16HandshakeManagerE, 
                       __ZN9grpc_core32InsecureChannelSecurityConnector15check_call_hostEN4absl12lts_2021110211string_viewEP17grpc_auth_contextP12grpc_closurePP10grpc_error, 
                       __ZN9grpc_core32InsecureChannelSecurityConnector22cancel_check_call_hostEP12grpc_closureP10grpc_error, 
                       __ZN9grpc_core32MultiProducerSingleConsumerQueue14PopAndCheckEndEPb, 
                       __ZN9grpc_core32MultiProducerSingleConsumerQueue3PopEv, __ZN9grpc_core32MultiProducerSingleConsumerQueue4PushEPNS0_4NodeE, 
                       __ZN9grpc_core33FaultInjectionServiceConfigParser11ParserIndexEv, 
                       __ZN9grpc_core33FaultInjectionServiceConfigParser20ParsePerMethodParamsEPK17grpc_channel_argsRKNS_4JsonEPP10grpc_error, 
                       __ZN9grpc_core33FaultInjectionServiceConfigParser8RegisterEv, 
                       __ZN9grpc_core33RegisterGrpcLbLoadReportingFilterEPNS_17CoreConfiguration7BuilderE, 
                       __ZN9grpc_core33grpc_client_channel_routing_traceE, __ZN9grpc_core33grpc_fault_injection_filter_traceE, 
                       __ZN9grpc_core33grpc_xds_cluster_manager_lb_traceE, __ZN9grpc_core34FileWatcherCertificateProviderInitEv, 
                       __ZN9grpc_core34grpc_lb_xds_cluster_resolver_traceE, __ZN9grpc_core35SecurityRegisterHandshakerFactoriesEPNS_17CoreConfiguration7BuilderE, 
                       __ZN9grpc_core36grpc_http2_set_fn_get_copied_contextEPFPvS0_E, 
                       __ZN9grpc_core36kXdsHttpRbacFilterConfigOverrideNameE, __ZN9grpc_core37FileWatcherCertificateProviderFactory25CreateCertificateProviderENS_13RefCountedPtrINS_26CertificateProviderFactory6ConfigEEE, 
                       __ZN9grpc_core37FileWatcherCertificateProviderFactory31CreateCertificateProviderConfigERKNS_4JsonEPP10grpc_error, 
                       __ZN9grpc_core37FileWatcherCertificateProviderFactory6Config5ParseERKNS_4JsonEPP10grpc_error, 
                       __ZN9grpc_core37RegisterServiceConfigChannelArgFilterEPNS_17CoreConfiguration7BuilderE, 
                       __ZN9grpc_core38AsyncConnectivityStateWatcherInterface6NotifyE23grpc_connectivity_stateRKN4absl12lts_202111026StatusE, 
                       __ZN9grpc_core38FileWatcherCertificateProviderShutdownEv, 
                       __ZN9grpc_core38LockedMultiProducerSingleConsumerQueue3PopEv, 
                       __ZN9grpc_core38LockedMultiProducerSingleConsumerQueue4PushEPNS_32MultiProducerSingleConsumerQueue4NodeE, 
                       __ZN9grpc_core38LockedMultiProducerSingleConsumerQueue6TryPopEv, 
                       __ZN9grpc_core38grpc_tcp_set_write_timestamps_callbackEPFvPvPNS_10TimestampsEP10grpc_errorE, 
                       __ZN9grpc_core3URI13PercentDecodeEN4absl12lts_2021110211string_viewE, 
                       __ZN9grpc_core3URI17PercentEncodePathEN4absl12lts_2021110211string_viewE, 
                       __ZN9grpc_core3URI5ParseEN4absl12lts_2021110211string_viewE, 
                       __ZN9grpc_core3URI6CreateENSt3__112basic_stringIcNS1_11char_traitsIcEENS1_9allocatorIcEEEES7_S7_NS1_6vectorINS0_10QueryParamENS5_IS9_EEEES7_, 
                       __ZN9grpc_core3URIC1ENSt3__112basic_stringIcNS1_11char_traitsIcEENS1_9allocatorIcEEEES7_S7_NS1_6vectorINS0_10QueryParamENS5_IS9_EEEES7_, 
                       __ZN9grpc_core3URIC1ERKS0_, __ZN9grpc_core3URIC2ENSt3__112basic_stringIcNS1_11char_traitsIcEENS1_9allocatorIcEEEES7_S7_NS1_6vectorINS0_10QueryParamENS5_IS9_EEEES7_, 
                       __ZN9grpc_core3URIC2ERKS0_, __ZN9grpc_core3URIaSERKS0_, __ZN9grpc_core40FindGrpclbBalancerAddressesInChannelArgsERK17grpc_channel_args, 
                       __ZN9grpc_core40TestOnlyXdsVerifySubjectAlternativeNamesEPKPKcmRKNSt3__16vectorINS_13StringMatcherENS4_9allocatorIS6_EEEE, 
                       __ZN9grpc_core40grpc_http2_set_write_timestamps_callbackEPFvPvPNS_10TimestampsEP10grpc_errorE, 
                       __ZN9grpc_core42DefaultCompressionAlgorithmFromChannelArgsEPK17grpc_channel_args, 
                       __ZN9grpc_core43TestOnlySetGlobalHttp2TransportInitCallbackEPFvvE, 
                       __ZN9grpc_core47TestOnlySetGlobalHttp2TransportDestructCallbackEPFvvE, 
                       __ZN9grpc_core4Fork10GlobalInitEv, __ZN9grpc_core4Fork12AllowExecCtxEv, 
                       __ZN9grpc_core4Fork12AwaitThreadsEv, __ZN9grpc_core4Fork12BlockExecCtxEv, 
                       __ZN9grpc_core4Fork13thread_state_E, __ZN9grpc_core4Fork14DecThreadCountEv, 
                       __ZN9grpc_core4Fork14GlobalShutdownEv, __ZN9grpc_core4Fork14IncThreadCountEv, 
                       __ZN9grpc_core4Fork15exec_ctx_state_E, __ZN9grpc_core4Fork16support_enabled_E, 
                       __ZN9grpc_core4Fork17DoDecExecCtxCountEv, __ZN9grpc_core4Fork17DoIncExecCtxCountEv, 
                       __ZN9grpc_core4Fork17override_enabled_E, __ZN9grpc_core4Fork27reset_child_polling_engine_E, 
                       __ZN9grpc_core4Fork30GetResetChildPollingEngineFuncEv, __ZN9grpc_core4Fork30SetResetChildPollingEngineFuncEPFvvE, 
                       __ZN9grpc_core4Fork6EnableEb, __ZN9grpc_core4Fork7EnabledEv, 
                       __ZN9grpc_core4Json5ParseEN4absl12lts_2021110211string_viewEPP10grpc_error, 
                       __ZN9grpc_core4Rbac10Permission16MakeOrPermissionENSt3__16vectorINS2_10unique_ptrIS1_NS2_14default_deleteIS1_EEEENS2_9allocatorIS7_EEEE, 
                       __ZN9grpc_core4Rbac10Permission17MakeAndPermissionENSt3__16vectorINS2_10unique_ptrIS1_NS2_14default_deleteIS1_EEEENS2_9allocatorIS7_EEEE, 
                       __ZN9grpc_core4Rbac10Permission17MakeAnyPermissionEv, __ZN9grpc_core4Rbac10Permission17MakeNotPermissionES1_, 
                       __ZN9grpc_core4Rbac10Permission18MakePathPermissionENS_13StringMatcherE, 
                       __ZN9grpc_core4Rbac10Permission20MakeDestIpPermissionENS0_9CidrRangeE, 
                       __ZN9grpc_core4Rbac10Permission20MakeHeaderPermissionENS_13HeaderMatcherE, 
                       __ZN9grpc_core4Rbac10Permission22MakeDestPortPermissionEi, 
                       __ZN9grpc_core4Rbac10Permission22MakeMetadataPermissionEb, 
                       __ZN9grpc_core4Rbac10Permission27MakeReqServerNamePermissionENS_13StringMatcherE, 
                       __ZN9grpc_core4Rbac10PermissionC1EOS1_, __ZN9grpc_core4Rbac10PermissionC2EOS1_, 
                       __ZN9grpc_core4Rbac10PermissionaSEOS1_, __ZN9grpc_core4Rbac6PolicyC1ENS0_10PermissionENS0_9PrincipalE, 
                       __ZN9grpc_core4Rbac6PolicyC1EOS1_, __ZN9grpc_core4Rbac6PolicyC2ENS0_10PermissionENS0_9PrincipalE, 
                       __ZN9grpc_core4Rbac6PolicyC2EOS1_, __ZN9grpc_core4Rbac6PolicyaSEOS1_, 
                       __ZN9grpc_core4Rbac9CidrRangeC1ENSt3__112basic_stringIcNS2_11char_traitsIcEENS2_9allocatorIcEEEEj, 
                       __ZN9grpc_core4Rbac9CidrRangeC1EOS1_, __ZN9grpc_core4Rbac9CidrRangeC2ENSt3__112basic_stringIcNS2_11char_traitsIcEENS2_9allocatorIcEEEEj, 
                       __ZN9grpc_core4Rbac9CidrRangeC2EOS1_, __ZN9grpc_core4Rbac9CidrRangeaSEOS1_, 
                       __ZN9grpc_core4Rbac9Principal15MakeOrPrincipalENSt3__16vectorINS2_10unique_ptrIS1_NS2_14default_deleteIS1_EEEENS2_9allocatorIS7_EEEE, 
                       __ZN9grpc_core4Rbac9Principal16MakeAndPrincipalENSt3__16vectorINS2_10unique_ptrIS1_NS2_14default_deleteIS1_EEEENS2_9allocatorIS7_EEEE, 
                       __ZN9grpc_core4Rbac9Principal16MakeAnyPrincipalEv, __ZN9grpc_core4Rbac9Principal16MakeNotPrincipalES1_, 
                       __ZN9grpc_core4Rbac9Principal17MakePathPrincipalENS_13StringMatcherE, 
                       __ZN9grpc_core4Rbac9Principal19MakeHeaderPrincipalENS_13HeaderMatcherE, 
                       __ZN9grpc_core4Rbac9Principal21MakeMetadataPrincipalEb, __ZN9grpc_core4Rbac9Principal21MakeRemoteIpPrincipalENS0_9CidrRangeE, 
                       __ZN9grpc_core4Rbac9Principal21MakeSourceIpPrincipalENS0_9CidrRangeE, 
                       __ZN9grpc_core4Rbac9Principal26MakeAuthenticatedPrincipalENS_13StringMatcherE, 
                       __ZN9grpc_core4Rbac9Principal27MakeDirectRemoteIpPrincipalENS0_9CidrRangeE, 
                       __ZN9grpc_core4Rbac9PrincipalC1EOS1_, __ZN9grpc_core4Rbac9PrincipalC2EOS1_, 
                       __ZN9grpc_core4Rbac9PrincipalaSEOS1_, __ZN9grpc_core4RbacC1ENS0_6ActionENSt3__13mapINS2_12basic_stringIcNS2_11char_traitsIcEENS2_9allocatorIcEEEENS0_6PolicyENS2_4lessIS9_EENS7_INS2_4pairIKS9_SA_EEEEEE, 
                       __ZN9grpc_core4RbacC1EOS0_, __ZN9grpc_core4RbacC2ENS0_6ActionENSt3__13mapINS2_12basic_stringIcNS2_11char_traitsIcEENS2_9allocatorIcEEEENS0_6PolicyENS2_4lessIS9_EENS7_INS2_4pairIKS9_SA_EEEEEE, 
                       __ZN9grpc_core4RbacC2EOS0_, __ZN9grpc_core4RbacaSEOS0_, __ZN9grpc_core5Arena15CreateWithAllocEmmPN17grpc_event_engine12experimental15MemoryAllocatorE, 
                       __ZN9grpc_core5Arena6CreateEmPN17grpc_event_engine12experimental15MemoryAllocatorE, 
                       __ZN9grpc_core5Arena7DestroyEv, __ZN9grpc_core5Arena9AllocZoneEm, 
                       __ZN9grpc_core5ArenaD1Ev, __ZN9grpc_core5ArenaD2Ev, __ZN9grpc_core5Waker11unwakeable_E, 
                       __ZN9grpc_core6Server11AddListenerENSt3__110unique_ptrINS0_17ListenerInterfaceENS_16OrphanableDeleteEEE, 
                       __ZN9grpc_core6Server11ChannelData12AcceptStreamEPvP14grpc_transportPKv, 
                       __ZN9grpc_core6Server11ChannelData13FinishDestroyEPvP10grpc_error, 
                       __ZN9grpc_core6Server11ChannelData13InitTransportENS_13RefCountedPtrIS0_EEP12grpc_channelmP14grpc_transportl, 
                       __ZN9grpc_core6Server11ChannelData18InitChannelElementEP20grpc_channel_elementP25grpc_channel_element_args, 
                       __ZN9grpc_core6Server11ChannelData19GetRegisteredMethodERK10grpc_sliceS4_b, 
                       __ZN9grpc_core6Server11ChannelData21DestroyChannelElementEP20grpc_channel_element, 
                       __ZN9grpc_core6Server11ChannelData7DestroyEv, __ZN9grpc_core6Server11ChannelDataD1Ev, 
                       __ZN9grpc_core6Server11ChannelDataD2Ev, __ZN9grpc_core6Server11RequestCallEPP9grpc_callP17grpc_call_detailsP19grpc_metadata_arrayP21grpc_completion_queueS9_Pv, 
                       __ZN9grpc_core6Server14CancelAllCallsEv, __ZN9grpc_core6Server14RegisterMethodEPKcS2_44grpc_server_register_method_payload_handlingj, 
                       __ZN9grpc_core6Server14SetupTransportEP14grpc_transportP12grpc_pollsetPK17grpc_channel_argsRKNS_13RefCountedPtrINS_8channelz10SocketNodeEEE, 
                       __ZN9grpc_core6Server16DoneRequestEventEPvP18grpc_cq_completion, 
                       __ZN9grpc_core6Server16kServerTopFilterE, __ZN9grpc_core6Server17ShutdownAndNotifyEP21grpc_completion_queuePv, 
                       __ZN9grpc_core6Server18HasOpenConnectionsEv, __ZN9grpc_core6Server18QueueRequestedCallEmPNS0_13RequestedCallE, 
                       __ZN9grpc_core6Server19ListenerDestroyDoneEPvP10grpc_error, 
                       __ZN9grpc_core6Server19MaybeFinishShutdownEv, __ZN9grpc_core6Server21KillPendingWorkLockedEP10grpc_error, 
                       __ZN9grpc_core6Server21RequestRegisteredCallEPNS0_16RegisteredMethodEPP9grpc_callP12gpr_timespecP19grpc_metadata_arrayPP16grpc_byte_bufferP21grpc_completion_queueSE_Pv, 
                       __ZN9grpc_core6Server21ValidateServerRequestEP21grpc_completion_queuePvPP16grpc_byte_bufferPNS0_16RegisteredMethodE, 
                       __ZN9grpc_core6Server23RegisterCompletionQueueEP21grpc_completion_queue, 
                       __ZN9grpc_core6Server23SetBatchMethodAllocatorEP21grpc_completion_queueNSt3__18functionIFNS0_19BatchCallAllocationEvEEE, 
                       __ZN9grpc_core6Server26ValidateServerRequestAndCqEPmP21grpc_completion_queuePvPP16grpc_byte_bufferPNS0_16RegisteredMethodE, 
                       __ZN9grpc_core6Server28SetRegisteredMethodAllocatorEP21grpc_completion_queuePvNSt3__18functionIFNS0_24RegisteredCallAllocationEvEEE, 
                       __ZN9grpc_core6Server5StartEv, __ZN9grpc_core6Server6OrphanEv, 
                       __ZN9grpc_core6Server8CallData10KillZombieEv, __ZN9grpc_core6Server8CallData11StartNewRpcEP17grpc_call_element, 
                       __ZN9grpc_core6Server8CallData13MaybeActivateEv, __ZN9grpc_core6Server8CallData13PublishNewRpcEPvP10grpc_error, 
                       __ZN9grpc_core6Server8CallData15InitCallElementEP17grpc_call_elementPK22grpc_call_element_args, 
                       __ZN9grpc_core6Server8CallData16FailCallCreationEv, __ZN9grpc_core6Server8CallData18DestroyCallElementEP17grpc_call_elementPK20grpc_call_final_infoP12grpc_closure, 
                       __ZN9grpc_core6Server8CallData24RecvInitialMetadataReadyEPvP10grpc_error, 
                       __ZN9grpc_core6Server8CallData25RecvTrailingMetadataReadyEPvP10grpc_error, 
                       __ZN9grpc_core6Server8CallData27StartTransportStreamOpBatchEP17grpc_call_elementP30grpc_transport_stream_op_batch, 
                       __ZN9grpc_core6Server8CallData31StartTransportStreamOpBatchImplEP17grpc_call_elementP30grpc_transport_stream_op_batch, 
                       __ZN9grpc_core6Server8CallData32RecvInitialMetadataBatchCompleteEPvP10grpc_error, 
                       __ZN9grpc_core6Server8CallData5StartEP17grpc_call_element, 
                       __ZN9grpc_core6Server8CallData7PublishEmPNS0_13RequestedCallE, 
                       __ZN9grpc_core6Server8CallData8SetStateENS1_9CallStateE, __ZN9grpc_core6Server8CallDataC1EP17grpc_call_elementRK22grpc_call_element_argsNS_13RefCountedPtrIS0_EE, 
                       __ZN9grpc_core6Server8CallDataC2EP17grpc_call_elementRK22grpc_call_element_argsNS_13RefCountedPtrIS0_EE, 
                       __ZN9grpc_core6Server8CallDataD1Ev, __ZN9grpc_core6Server8CallDataD2Ev, 
                       __ZN9grpc_core6Server8FailCallEmPNS0_13RequestedCallEP10grpc_error, 
                       __ZN9grpc_core6ServerC1EPK17grpc_channel_args, __ZN9grpc_core6ServerC2EPK17grpc_channel_args, 
                       __ZN9grpc_core6ServerD0Ev, __ZN9grpc_core6ServerD1Ev, __ZN9grpc_core6ServerD2Ev, 
                       __ZN9grpc_core6ThreadC1EPKcPFvPvES3_PbRKNS0_7OptionsE, __ZN9grpc_core6ThreadC2EPKcPFvPvES3_PbRKNS0_7OptionsE, 
                       __ZN9grpc_core6XdsApi16CreateAdsRequestERKNS_12XdsBootstrap9XdsServerEN4absl12lts_2021110211string_viewES7_S7_RKNSt3__16vectorINS8_12basic_stringIcNS8_11char_traitsIcEENS8_9allocatorIcEEEENSD_ISF_EEEEP10grpc_errorb, 
                       __ZN9grpc_core6XdsApi16CreateLrsRequestENSt3__13mapINS1_4pairINS1_12basic_stringIcNS1_11char_traitsIcEENS1_9allocatorIcEEEES9_EENS0_17ClusterLoadReportENS1_4lessISA_EENS7_INS3_IKSA_SB_EEEEEE, 
                       __ZN9grpc_core6XdsApi16ParseAdsResponseERKNS_12XdsBootstrap9XdsServerERK10grpc_slicePNS0_26AdsResponseParserInterfaceE, 
                       __ZN9grpc_core6XdsApi16ParseLrsResponseERK10grpc_slicePbPNSt3__13setINS5_12basic_stringIcNS5_11char_traitsIcEENS5_9allocatorIcEEEENS5_4lessISC_EENSA_ISC_EEEEPx, 
                       __ZN9grpc_core6XdsApi20AssembleClientConfigERKNSt3__13mapIN4absl12lts_2021110211string_viewENS2_INS1_12basic_stringIcNS1_11char_traitsIcEENS1_9allocatorIcEEEEPKNS0_16ResourceMetadataENS1_4lessISB_EENS9_INS1_4pairIKSB_SE_EEEEEENSF_IS5_EENS9_INSH_IKS5_SL_EEEEEE, 
                       __ZN9grpc_core6XdsApi23CreateLrsInitialRequestERKNS_12XdsBootstrap9XdsServerE, 
                       __ZN9grpc_core6XdsApiC1EPNS_9XdsClientEPNS_9TraceFlagEPKNS_12XdsBootstrap4NodeEPKNSt3__13mapINS9_12basic_stringIcNS9_11char_traitsIcEENS9_9allocatorIcEEEENS_24CertificateProviderStore16PluginDefinitionENS9_4lessISG_EENSE_INS9_4pairIKSG_SI_EEEEEEPN3upb11SymbolTableE, 
                       __ZN9grpc_core6XdsApiC2EPNS_9XdsClientEPNS_9TraceFlagEPKNS_12XdsBootstrap4NodeEPKNSt3__13mapINS9_12basic_stringIcNS9_11char_traitsIcEENS9_9allocatorIcEEEENS_24CertificateProviderStore16PluginDefinitionENS9_4lessISG_EENSE_INS9_4pairIKSG_SI_EEEEEEPN3upb11SymbolTableE, 
                       __ZN9grpc_core6chttp216FlowControlTrace4InitEPKcPNS0_20TransportFlowControlEPNS0_17StreamFlowControlE, 
                       __ZN9grpc_core6chttp216FlowControlTrace6FinishEv, __ZN9grpc_core6chttp217FlowControlAction13UrgencyStringENS1_7UrgencyE, 
                       __ZN9grpc_core6chttp217StreamFlowControl12UpdateActionENS0_17FlowControlActionE, 
                       __ZN9grpc_core6chttp217StreamFlowControl15MaybeSendUpdateEv, 
                       __ZN9grpc_core6chttp217StreamFlowControl24IncomingByteStreamUpdateEmm, 
                       __ZN9grpc_core6chttp217StreamFlowControl8RecvDataEx, __ZN9grpc_core6chttp217StreamFlowControlC1EPNS0_20TransportFlowControlEPK18grpc_chttp2_stream, 
                       __ZN9grpc_core6chttp217StreamFlowControlC2EPNS0_20TransportFlowControlEPK18grpc_chttp2_stream, 
                       __ZN9grpc_core6chttp220TransportFlowControl12DeltaUrgencyEx22grpc_chttp2_setting_id, 
                       __ZN9grpc_core6chttp220TransportFlowControl12SmoothLogBdpEd, 
                       __ZN9grpc_core6chttp220TransportFlowControl12TargetLogBdpEv, 
                       __ZN9grpc_core6chttp220TransportFlowControl14PeriodicUpdateEv, 
                       __ZN9grpc_core6chttp220TransportFlowControl15MaybeSendUpdateEb, 
                       __ZN9grpc_core6chttp220TransportFlowControl16ValidateRecvDataEx, 
                       __ZN9grpc_core6chttp220TransportFlowControlC1EPK21grpc_chttp2_transportb, 
                       __ZN9grpc_core6chttp220TransportFlowControlC2EPK21grpc_chttp2_transportb, 
                       __ZN9grpc_core6chttp228TransportFlowControlDisabledC1EP21grpc_chttp2_transport, 
                       __ZN9grpc_core6chttp228TransportFlowControlDisabledC2EP21grpc_chttp2_transport, 
                       __ZN9grpc_core6chttp247g_test_only_transport_flow_control_window_checkE, 
                       __ZN9grpc_core6chttp252g_test_only_transport_target_window_estimates_mockerE, 
                       __ZN9grpc_core7BackOff15NextAttemptTimeEv, __ZN9grpc_core7BackOff5ResetEv, 
                       __ZN9grpc_core7BackOffC1ERKNS0_7OptionsE, __ZN9grpc_core7BackOffC2ERKNS0_7OptionsE, 
                       __ZN9grpc_core7ExecCtx10GlobalInitEv, __ZN9grpc_core7ExecCtx18TestOnlyGlobalInitE12gpr_timespec, 
                       __ZN9grpc_core7ExecCtx3NowEv, __ZN9grpc_core7ExecCtx3RunERKNS_13DebugLocationEP12grpc_closureP10grpc_error, 
                       __ZN9grpc_core7ExecCtx5FlushEv, __ZN9grpc_core7ExecCtx7RunListERKNS_13DebugLocationEP17grpc_closure_list, 
                       __ZN9grpc_core7Timeout10FromMillisEx, __ZN9grpc_core7Timeout11FromMinutesEx, 
                       __ZN9grpc_core7Timeout11FromSecondsEx, __ZN9grpc_core7Timeout12FromDurationEx, 
                       __ZN9grpc_core7Timeout9FromHoursEx, __ZN9grpc_core8Activity10DropHandleEv, 
                       __ZN9grpc_core8Activity12RefIfNonzeroEv, __ZN9grpc_core8Activity18MakeNonOwningWakerEv, 
                       __ZN9grpc_core8Activity9RefHandleEv, __ZN9grpc_core8Combiner10FinallyRunEP12grpc_closureP10grpc_error, 
                       __ZN9grpc_core8Combiner3RunEP12grpc_closureP10grpc_error, 
                       __ZN9grpc_core8Executor10IsThreadedENS_12ExecutorTypeE, __ZN9grpc_core8Executor10ThreadMainEPv, 
                       __ZN9grpc_core8Executor11RunClosuresEPKc17grpc_closure_list, 
                       __ZN9grpc_core8Executor11ShutdownAllEv, __ZN9grpc_core8Executor12SetThreadingEb, 
                       __ZN9grpc_core8Executor15SetThreadingAllEb, __ZN9grpc_core8Executor17IsThreadedDefaultEv, 
                       __ZN9grpc_core8Executor19SetThreadingDefaultEb, __ZN9grpc_core8Executor3RunEP12grpc_closureP10grpc_errorNS_12ExecutorTypeENS_15ExecutorJobTypeE, 
                       __ZN9grpc_core8Executor4InitEv, __ZN9grpc_core8Executor7EnqueueEP12grpc_closureP10grpc_errorb, 
                       __ZN9grpc_core8Executor7InitAllEv, __ZN9grpc_core8Executor8ShutdownEv, 
                       __ZN9grpc_core8ExecutorC1EPKc, __ZN9grpc_core8ExecutorC2EPKc, 
                       __ZN9grpc_core8Resolver6ResultC1EOS1_, __ZN9grpc_core8Resolver6ResultC1ERKS1_, 
                       __ZN9grpc_core8Resolver6ResultC2EOS1_, __ZN9grpc_core8Resolver6ResultC2ERKS1_, 
                       __ZN9grpc_core8Resolver6ResultD1Ev, __ZN9grpc_core8Resolver6ResultD2Ev, 
                       __ZN9grpc_core8Resolver6ResultaSEOS1_, __ZN9grpc_core8Resolver6ResultaSERKS1_, 
                       __ZN9grpc_core8ResolverC2Ev, __ZN9grpc_core8channelz10ServerNode10RenderJsonEv, 
                       __ZN9grpc_core8channelz10ServerNode14AddChildSocketENS_13RefCountedPtrINS0_10SocketNodeEEE, 
                       __ZN9grpc_core8channelz10ServerNode17RemoveChildSocketEl, 
                       __ZN9grpc_core8channelz10ServerNode19RenderServerSocketsEll, 
                       __ZN9grpc_core8channelz10ServerNode20AddChildListenSocketENS_13RefCountedPtrINS0_16ListenSocketNodeEEE, 
                       __ZN9grpc_core8channelz10ServerNode23RemoveChildListenSocketEl, 
                       __ZN9grpc_core8channelz10ServerNodeC1Em, __ZN9grpc_core8channelz10ServerNodeC2Em, 
                       __ZN9grpc_core8channelz10ServerNodeD0Ev, __ZN9grpc_core8channelz10ServerNodeD1Ev, 
                       __ZN9grpc_core8channelz10ServerNodeD2Ev, __ZN9grpc_core8channelz10SocketNode10RenderJsonEv, 
                       __ZN9grpc_core8channelz10SocketNode18RecordMessagesSentEj, 
                       __ZN9grpc_core8channelz10SocketNode21RecordMessageReceivedEv, 
                       __ZN9grpc_core8channelz10SocketNode28RecordStreamStartedFromLocalEv, 
                       __ZN9grpc_core8channelz10SocketNode29RecordStreamStartedFromRemoteEv, 
                       __ZN9grpc_core8channelz10SocketNode8Security10RenderJsonEv, 
                       __ZN9grpc_core8channelz10SocketNode8Security18GetFromChannelArgsEPK17grpc_channel_args, 
                       __ZN9grpc_core8channelz10SocketNode8Security3Tls10RenderJsonEv, 
                       __ZN9grpc_core8channelz10SocketNodeC1ENSt3__112basic_stringIcNS2_11char_traitsIcEENS2_9allocatorIcEEEES8_S8_NS_13RefCountedPtrINS1_8SecurityEEE, 
                       __ZN9grpc_core8channelz10SocketNodeC2ENSt3__112basic_stringIcNS2_11char_traitsIcEENS2_9allocatorIcEEEES8_S8_NS_13RefCountedPtrINS1_8SecurityEEE, 
                       __ZN9grpc_core8channelz11ChannelNode10RenderJsonEv, __ZN9grpc_core8channelz11ChannelNode15AddChildChannelEl, 
                       __ZN9grpc_core8channelz11ChannelNode17PopulateChildRefsEPNSt3__13mapINS2_12basic_stringIcNS2_11char_traitsIcEENS2_9allocatorIcEEEENS_4JsonENS2_4lessIS9_EENS7_INS2_4pairIKS9_SA_EEEEEE, 
                       __ZN9grpc_core8channelz11ChannelNode18AddChildSubchannelEl, 
                       __ZN9grpc_core8channelz11ChannelNode18RemoveChildChannelEl, 
                       __ZN9grpc_core8channelz11ChannelNode20SetConnectivityStateE23grpc_connectivity_state, 
                       __ZN9grpc_core8channelz11ChannelNode21RemoveChildSubchannelEl, 
                       __ZN9grpc_core8channelz11ChannelNode39GetChannelConnectivityStateChangeStringE23grpc_connectivity_state, 
                       __ZN9grpc_core8channelz11ChannelNodeC1ENSt3__112basic_stringIcNS2_11char_traitsIcEENS2_9allocatorIcEEEEmb, 
                       __ZN9grpc_core8channelz11ChannelNodeC2ENSt3__112basic_stringIcNS2_11char_traitsIcEENS2_9allocatorIcEEEEmb, 
                       __ZN9grpc_core8channelz12ChannelTrace10TraceEventC1ENS1_8SeverityERK10grpc_slice, 
                       __ZN9grpc_core8channelz12ChannelTrace10TraceEventC1ENS1_8SeverityERK10grpc_sliceNS_13RefCountedPtrINS0_8BaseNodeEEE, 
                       __ZN9grpc_core8channelz12ChannelTrace10TraceEventC2ENS1_8SeverityERK10grpc_slice, 
                       __ZN9grpc_core8channelz12ChannelTrace10TraceEventC2ENS1_8SeverityERK10grpc_sliceNS_13RefCountedPtrINS0_8BaseNodeEEE, 
                       __ZN9grpc_core8channelz12ChannelTrace10TraceEventD1Ev, __ZN9grpc_core8channelz12ChannelTrace10TraceEventD2Ev, 
                       __ZN9grpc_core8channelz12ChannelTrace13AddTraceEventENS1_8SeverityERK10grpc_slice, 
                       __ZN9grpc_core8channelz12ChannelTrace19AddTraceEventHelperEPNS1_10TraceEventE, 
                       __ZN9grpc_core8channelz12ChannelTrace26AddTraceEventWithReferenceENS1_8SeverityERK10grpc_sliceNS_13RefCountedPtrINS0_8BaseNodeEEE, 
                       __ZN9grpc_core8channelz12ChannelTraceC1Em, __ZN9grpc_core8channelz12ChannelTraceC2Em, 
                       __ZN9grpc_core8channelz12ChannelTraceD1Ev, __ZN9grpc_core8channelz12ChannelTraceD2Ev, 
                       __ZN9grpc_core8channelz14SubchannelNode10RenderJsonEv, __ZN9grpc_core8channelz14SubchannelNode14SetChildSocketENS_13RefCountedPtrINS0_10SocketNodeEEE, 
                       __ZN9grpc_core8channelz14SubchannelNode23UpdateConnectivityStateE23grpc_connectivity_state, 
                       __ZN9grpc_core8channelz14SubchannelNodeC1ENSt3__112basic_stringIcNS2_11char_traitsIcEENS2_9allocatorIcEEEEm, 
                       __ZN9grpc_core8channelz14SubchannelNodeC2ENSt3__112basic_stringIcNS2_11char_traitsIcEENS2_9allocatorIcEEEEm, 
                       __ZN9grpc_core8channelz14SubchannelNodeD0Ev, __ZN9grpc_core8channelz14SubchannelNodeD1Ev, 
                       __ZN9grpc_core8channelz14SubchannelNodeD2Ev, __ZN9grpc_core8channelz16ChannelzRegistry11InternalGetEl, 
                       __ZN9grpc_core8channelz16ChannelzRegistry16InternalRegisterEPNS0_8BaseNodeE, 
                       __ZN9grpc_core8channelz16ChannelzRegistry18InternalGetServersEl, 
                       __ZN9grpc_core8channelz16ChannelzRegistry18InternalUnregisterEl, 
                       __ZN9grpc_core8channelz16ChannelzRegistry22InternalGetTopChannelsEl, 
                       __ZN9grpc_core8channelz16ChannelzRegistry22InternalLogAllEntitiesEv, 
                       __ZN9grpc_core8channelz16ChannelzRegistry4InitEv, __ZN9grpc_core8channelz16ChannelzRegistry7DefaultEv, 
                       __ZN9grpc_core8channelz16ChannelzRegistry8ShutdownEv, __ZN9grpc_core8channelz16ListenSocketNode10RenderJsonEv, 
                       __ZN9grpc_core8channelz16ListenSocketNodeC1ENSt3__112basic_stringIcNS2_11char_traitsIcEENS2_9allocatorIcEEEES8_, 
                       __ZN9grpc_core8channelz16ListenSocketNodeC2ENSt3__112basic_stringIcNS2_11char_traitsIcEENS2_9allocatorIcEEEES8_, 
                       __ZN9grpc_core8channelz18CallCountingHelper11CollectDataEPNS1_11CounterDataE, 
                       __ZN9grpc_core8channelz18CallCountingHelper16RecordCallFailedEv, 
                       __ZN9grpc_core8channelz18CallCountingHelper17RecordCallStartedEv, 
                       __ZN9grpc_core8channelz18CallCountingHelper18PopulateCallCountsEPNSt3__13mapINS2_12basic_stringIcNS2_11char_traitsIcEENS2_9allocatorIcEEEENS_4JsonENS2_4lessIS9_EENS7_INS2_4pairIKS9_SA_EEEEEE, 
                       __ZN9grpc_core8channelz18CallCountingHelper19RecordCallSucceededEv, 
                       __ZN9grpc_core8channelz18CallCountingHelperC1Ev, __ZN9grpc_core8channelz18CallCountingHelperC2Ev, 
                       __ZN9grpc_core8channelz8BaseNode16RenderJsonStringEv, __ZN9grpc_core8channelz8BaseNodeC2ENS1_10EntityTypeENSt3__112basic_stringIcNS3_11char_traitsIcEENS3_9allocatorIcEEEE, 
                       __ZN9grpc_core8channelz8BaseNodeD0Ev, __ZN9grpc_core8channelz8BaseNodeD1Ev, 
                       __ZN9grpc_core8channelz8BaseNodeD2Ev, __ZN9grpc_core8internal13StatusToProtoERKN4absl12lts_202111026StatusEP9upb_arena, 
                       __ZN9grpc_core8internal14read_bios_fileEPKc, __ZN9grpc_core8internal15StatusFromProtoEP17google_rpc_Status, 
                       __ZN9grpc_core8internal17StatusFreeHeapPtrEm, __ZN9grpc_core8internal18StatusAllocHeapPtrEN4absl12lts_202111026StatusE, 
                       __ZN9grpc_core8internal20StatusGetFromHeapPtrEm, __ZN9grpc_core8internal21StatusMoveFromHeapPtrEm, 
                       __ZN9grpc_core8internal22ServerRetryThrottleMap16GetDataForServerERKNSt3__112basic_stringIcNS2_11char_traitsIcEENS2_9allocatorIcEEEEll, 
                       __ZN9grpc_core8internal22ServerRetryThrottleMap4InitEv, __ZN9grpc_core8internal22ServerRetryThrottleMap8ShutdownEv, 
                       __ZN9grpc_core8internal23ServerRetryThrottleData13RecordFailureEv, 
                       __ZN9grpc_core8internal23ServerRetryThrottleData13RecordSuccessEv, 
                       __ZN9grpc_core8internal23ServerRetryThrottleData34GetReplacementThrottleDataIfNeededEPPS1_, 
                       __ZN9grpc_core8internal23ServerRetryThrottleDataC1EllPS1_, 
                       __ZN9grpc_core8internal23ServerRetryThrottleDataC2EllPS1_, 
                       __ZN9grpc_core8internal23ServerRetryThrottleDataD0Ev, __ZN9grpc_core8internal23ServerRetryThrottleDataD1Ev, 
                       __ZN9grpc_core8internal23ServerRetryThrottleDataD2Ev, __ZN9grpc_core8internal24RetryServiceConfigParser11ParserIndexEv, 
                       __ZN9grpc_core8internal24RetryServiceConfigParser17ParseGlobalParamsEPK17grpc_channel_argsRKNS_4JsonEPP10grpc_error, 
                       __ZN9grpc_core8internal24RetryServiceConfigParser20ParsePerMethodParamsEPK17grpc_channel_argsRKNS_4JsonEPP10grpc_error, 
                       __ZN9grpc_core8internal24RetryServiceConfigParser8RegisterEv, 
                       __ZN9grpc_core8internal24SetXdsChannelArgsForTestEP17grpc_channel_args, 
                       __ZN9grpc_core8internal27UnsetGlobalXdsClientForTestEv, __ZN9grpc_core8internal29SetXdsFallbackBootstrapConfigEPKc, 
                       __ZN9grpc_core8internal32ClientChannelServiceConfigParser11ParserIndexEv, 
                       __ZN9grpc_core8internal32ClientChannelServiceConfigParser17ParseGlobalParamsEPK17grpc_channel_argsRKNS_4JsonEPP10grpc_error, 
                       __ZN9grpc_core8internal32ClientChannelServiceConfigParser20ParsePerMethodParamsEPK17grpc_channel_argsRKNS_4JsonEPP10grpc_error, 
                       __ZN9grpc_core8internal32ClientChannelServiceConfigParser8RegisterEv, 
                       __ZN9grpc_core8internal35set_gce_tenancy_checker_for_testingEPFbvE, 
                       __ZN9grpc_core8internal36grpc_alts_auth_context_from_tsi_peerEPK8tsi_peer, 
                       __ZN9grpc_core8internal37grpc_gcp_rpc_protocol_version_compareEPK37_grpc_gcp_RpcProtocolVersions_VersionS3_, 
                       __ZN9grpc_core8internal38alts_handshaker_client_ref_for_testingEP22alts_handshaker_client, 
                       __ZN9grpc_core8internal41alts_handshaker_client_set_cb_for_testingEP22alts_handshaker_clientPFv10tsi_resultPvPKhmP21tsi_handshaker_resultE, 
                       __ZN9grpc_core8internal42alts_tsi_handshaker_get_client_for_testingEP19alts_tsi_handshaker, 
                       __ZN9grpc_core8internal44grpc_flush_cached_google_default_credentialsEv, 
                       __ZN9grpc_core8internal45alts_handshaker_client_set_fields_for_testingEP22alts_handshaker_clientP19alts_tsi_handshakerPFv10tsi_resultPvPKhmP21tsi_handshaker_resultES6_P16grpc_byte_buffer16grpc_status_code, 
                       __ZN9grpc_core8internal45alts_handshaker_client_set_vtable_for_testingEP22alts_handshaker_clientP29alts_handshaker_client_vtable, 
                       __ZN9grpc_core8internal45alts_tsi_handshaker_get_is_client_for_testingEP19alts_tsi_handshaker, 
                       __ZN9grpc_core8internal46alts_handshaker_client_get_closure_for_testingEP22alts_handshaker_client, 
                       __ZN9grpc_core8internal47alts_handshaker_client_check_fields_for_testingEP22alts_handshaker_clientPFv10tsi_resultPvPKhmP21tsi_handshaker_resultES4_bP10grpc_slice, 
                       __ZN9grpc_core8internal49alts_handshaker_client_get_handshaker_for_testingEP22alts_handshaker_client, 
                       __ZN9grpc_core8internal49alts_handshaker_client_set_recv_bytes_for_testingEP22alts_handshaker_clientP10grpc_slice, 
                       __ZN9grpc_core8internal49alts_tsi_handshaker_set_client_vtable_for_testingEP19alts_tsi_handshakerP29alts_handshaker_client_vtable, 
                       __ZN9grpc_core8internal50alts_handshaker_client_get_send_buffer_for_testingEP22alts_handshaker_client, 
                       __ZN9grpc_core8internal50alts_handshaker_client_set_grpc_caller_for_testingEP22alts_handshaker_clientPF15grpc_call_errorP9grpc_callPK7grpc_opmP12grpc_closureE, 
                       __ZN9grpc_core8internal53alts_handshaker_client_on_status_received_for_testingEP22alts_handshaker_client16grpc_status_codeP10grpc_error, 
                       __ZN9grpc_core8internal55alts_handshaker_client_get_initial_metadata_for_testingEP22alts_handshaker_client, 
                       __ZN9grpc_core8internal55alts_handshaker_client_get_recv_buffer_addr_for_testingEP22alts_handshaker_client, 
                       __ZN9grpc_core8internal58alts_tsi_handshaker_get_has_sent_start_message_for_testingEP19alts_tsi_handshaker, 
                       __ZN9grpc_core9TraceFlagC1EbPKc, __ZN9grpc_core9TraceFlagC2EbPKc, 
                       __ZN9grpc_core9XdsClient11GetOrCreateEPK17grpc_channel_argsPP10grpc_error, 
                       __ZN9grpc_core9XdsClient12ChannelState11StopLrsCallEv, __ZN9grpc_core9XdsClient12ChannelState12AdsCallState13OnRequestSentEPvP10grpc_error, 
                       __ZN9grpc_core9XdsClient12ChannelState12AdsCallState15SubscribeLockedEPKNS_15XdsResourceTypeERKNS0_15XdsResourceNameE, 
                       __ZN9grpc_core9XdsClient12ChannelState12AdsCallState16OnStatusReceivedEPvP10grpc_error, 
                       __ZN9grpc_core9XdsClient12ChannelState12AdsCallState17AdsResponseParser13ParseResourceERKNS_18XdsEncodingContextEmN4absl12lts_2021110211string_viewES9_, 
                       __ZN9grpc_core9XdsClient12ChannelState12AdsCallState17AdsResponseParser24ProcessAdsResponseFieldsENS_6XdsApi26AdsResponseParserInterface17AdsResponseFieldsE, 
                       __ZN9grpc_core9XdsClient12ChannelState12AdsCallState17SendMessageLockedEPKNS_15XdsResourceTypeE, 
                       __ZN9grpc_core9XdsClient12ChannelState12AdsCallState17UnsubscribeLockedEPKNS_15XdsResourceTypeERKNS0_15XdsResourceNameEb, 
                       __ZN9grpc_core9XdsClient12ChannelState12AdsCallState18OnResponseReceivedEPvP10grpc_error, 
                       __ZN9grpc_core9XdsClient12ChannelState12AdsCallState19OnRequestSentLockedEP10grpc_error, 
                       __ZN9grpc_core9XdsClient12ChannelState12AdsCallState22OnStatusReceivedLockedEP10grpc_error, 
                       __ZN9grpc_core9XdsClient12ChannelState12AdsCallState23ResourceNamesForRequestEPKNS_15XdsResourceTypeE, 
                       __ZN9grpc_core9XdsClient12ChannelState12AdsCallState24OnResponseReceivedLockedEv, 
                       __ZN9grpc_core9XdsClient12ChannelState12AdsCallState6OrphanEv, 
                       __ZN9grpc_core9XdsClient12ChannelState12AdsCallStateC1ENS_13RefCountedPtrINS1_13RetryableCallIS2_EEEE, 
                       __ZN9grpc_core9XdsClient12ChannelState12AdsCallStateC2ENS_13RefCountedPtrINS1_13RetryableCallIS2_EEEE, 
                       __ZN9grpc_core9XdsClient12ChannelState12AdsCallStateD0Ev, 
                       __ZN9grpc_core9XdsClient12ChannelState12AdsCallStateD1Ev, 
                       __ZN9grpc_core9XdsClient12ChannelState12AdsCallStateD2Ev, 
                       __ZN9grpc_core9XdsClient12ChannelState12LrsCallState16OnStatusReceivedEPvP10grpc_error, 
                       __ZN9grpc_core9XdsClient12ChannelState12LrsCallState18OnResponseReceivedEPvP10grpc_error, 
                       __ZN9grpc_core9XdsClient12ChannelState12LrsCallState20OnInitialRequestSentEPvP10grpc_error, 
                       __ZN9grpc_core9XdsClient12ChannelState12LrsCallState22OnStatusReceivedLockedEP10grpc_error, 
                       __ZN9grpc_core9XdsClient12ChannelState12LrsCallState24OnResponseReceivedLockedEv, 
                       __ZN9grpc_core9XdsClient12ChannelState12LrsCallState25MaybeStartReportingLockedEv, 
                       __ZN9grpc_core9XdsClient12ChannelState12LrsCallState26OnInitialRequestSentLockedEv, 
                       __ZN9grpc_core9XdsClient12ChannelState12LrsCallState6OrphanEv, 
                       __ZN9grpc_core9XdsClient12ChannelState12LrsCallState8Reporter12OnReportDoneEPvP10grpc_error, 
                       __ZN9grpc_core9XdsClient12ChannelState12LrsCallState8Reporter16SendReportLockedEv, 
                       __ZN9grpc_core9XdsClient12ChannelState12LrsCallState8Reporter17OnNextReportTimerEPvP10grpc_error, 
                       __ZN9grpc_core9XdsClient12ChannelState12LrsCallState8Reporter18OnReportDoneLockedEP10grpc_error, 
                       __ZN9grpc_core9XdsClient12ChannelState12LrsCallState8Reporter23OnNextReportTimerLockedEP10grpc_error, 
                       __ZN9grpc_core9XdsClient12ChannelState12LrsCallState8Reporter24ScheduleNextReportLockedEv, 
                       __ZN9grpc_core9XdsClient12ChannelState12LrsCallState8Reporter6OrphanEv, 
                       __ZN9grpc_core9XdsClient12ChannelState12LrsCallStateC1ENS_13RefCountedPtrINS1_13RetryableCallIS2_EEEE, 
                       __ZN9grpc_core9XdsClient12ChannelState12LrsCallStateC2ENS_13RefCountedPtrINS1_13RetryableCallIS2_EEEE, 
                       __ZN9grpc_core9XdsClient12ChannelState12LrsCallStateD0Ev, 
                       __ZN9grpc_core9XdsClient12ChannelState12LrsCallStateD1Ev, 
                       __ZN9grpc_core9XdsClient12ChannelState12LrsCallStateD2Ev, 
                       __ZN9grpc_core9XdsClient12ChannelState15SubscribeLockedEPKNS_15XdsResourceTypeERKNS0_15XdsResourceNameE, 
                       __ZN9grpc_core9XdsClient12ChannelState17MaybeStartLrsCallEv, 
                       __ZN9grpc_core9XdsClient12ChannelState17UnsubscribeLockedEPKNS_15XdsResourceTypeERKNS0_15XdsResourceNameEb, 
                       __ZN9grpc_core9XdsClient12ChannelState28StartConnectivityWatchLockedEv, 
                       __ZN9grpc_core9XdsClient12ChannelState29CancelConnectivityWatchLockedEv, 
                       __ZN9grpc_core9XdsClient12ChannelState6OrphanEv, __ZN9grpc_core9XdsClient12ChannelStateC1ENS_17WeakRefCountedPtrIS0_EERKNS_12XdsBootstrap9XdsServerE, 
                       __ZN9grpc_core9XdsClient12ChannelStateC2ENS_17WeakRefCountedPtrIS0_EERKNS_12XdsBootstrap9XdsServerE, 
                       __ZN9grpc_core9XdsClient12ChannelStateD0Ev, __ZN9grpc_core9XdsClient12ChannelStateD1Ev, 
                       __ZN9grpc_core9XdsClient12ChannelStateD2Ev, __ZN9grpc_core9XdsClient12ResetBackoffEv, 
                       __ZN9grpc_core9XdsClient13WatchResourceEPKNS_15XdsResourceTypeEN4absl12lts_2021110211string_viewENS_13RefCountedPtrINS0_24ResourceWatcherInterfaceEEE, 
                       __ZN9grpc_core9XdsClient18GetFromChannelArgsERK17grpc_channel_args, 
                       __ZN9grpc_core9XdsClient19AddClusterDropStatsEN4absl12lts_2021110211string_viewES3_S3_, 
                       __ZN9grpc_core9XdsClient19CancelResourceWatchEPKNS_15XdsResourceTypeEN4absl12lts_2021110211string_viewEPNS0_24ResourceWatcherInterfaceEb, 
                       __ZN9grpc_core9XdsClient19NotifyOnErrorLockedEP10grpc_error, 
                       __ZN9grpc_core9XdsClient20ParseXdsResourceNameEN4absl12lts_2021110211string_viewEPKNS_15XdsResourceTypeE, 
                       __ZN9grpc_core9XdsClient21GetResourceTypeLockedEN4absl12lts_2021110211string_viewE, 
                       __ZN9grpc_core9XdsClient22DumpClientConfigBinaryEv, __ZN9grpc_core9XdsClient22RemoveClusterDropStatsEN4absl12lts_2021110211string_viewES3_S3_PNS_19XdsClusterDropStatsE, 
                       __ZN9grpc_core9XdsClient23AddClusterLocalityStatsEN4absl12lts_2021110211string_viewES3_S3_NS_13RefCountedPtrINS_15XdsLocalityNameEEE, 
                       __ZN9grpc_core9XdsClient26RemoveClusterLocalityStatsEN4absl12lts_2021110211string_viewES3_S3_RKNS_13RefCountedPtrINS_15XdsLocalityNameEEEPNS_23XdsClusterLocalityStatsE, 
                       __ZN9grpc_core9XdsClient28ConstructFullXdsResourceNameEN4absl12lts_2021110211string_viewES3_RKNS0_14XdsResourceKeyE, 
                       __ZN9grpc_core9XdsClient29BuildLoadReportSnapshotLockedEbRKNSt3__13setINS1_12basic_stringIcNS1_11char_traitsIcEENS1_9allocatorIcEEEENS1_4lessIS8_EENS6_IS8_EEEE, 
                       __ZN9grpc_core9XdsClient29GetOrCreateChannelStateLockedERKNS_12XdsBootstrap9XdsServerE, 
                       __ZN9grpc_core9XdsClient31MaybeRegisterResourceTypeLockedEPKNS_15XdsResourceTypeE, 
                       __ZN9grpc_core9XdsClient6OrphanEv, __ZN9grpc_core9XdsClientC1ENSt3__110unique_ptrINS_12XdsBootstrapENS1_14default_deleteIS3_EEEEPK17grpc_channel_args, 
                       __ZN9grpc_core9XdsClientC2ENSt3__110unique_ptrINS_12XdsBootstrapENS1_14default_deleteIS3_EEEEPK17grpc_channel_args, 
                       __ZN9grpc_core9XdsClientD0Ev, __ZN9grpc_core9XdsClientD1Ev, 
                       __ZN9grpc_core9XdsClientD2Ev, __ZNK17grpc_event_engine12experimental11EventEngine15ResolvedAddress4sizeEv, 
                       __ZNK17grpc_event_engine12experimental11EventEngine15ResolvedAddress7addressEv, 
                       __ZNK17grpc_event_engine12experimental25ChannelArgsEndpointConfig3GetEN4absl12lts_2021110211string_viewE, 
                       __ZNK30grpc_server_security_connector29server_security_connector_cmpEPKS_, 
                       __ZNK31grpc_channel_security_connector30channel_security_connector_cmpEPKS_, 
                       __ZNK3re211FilteredRE210AllMatchesERKNS_11StringPieceERKNSt3__16vectorIiNS4_9allocatorIiEEEEPS8_, 
                       __ZNK3re211FilteredRE210FirstMatchERKNS_11StringPieceERKNSt3__16vectorIiNS4_9allocatorIiEEEE, 
                       __ZNK3re211FilteredRE213AllPotentialsERKNSt3__16vectorIiNS1_9allocatorIiEEEEPS5_, 
                       __ZNK3re211FilteredRE214SlowFirstMatchERKNS_11StringPieceE, 
                       __ZNK3re211StringPiece4copyEPcmm, __ZNK3re211StringPiece4findERKS0_m, 
                       __ZNK3re211StringPiece4findEcm, __ZNK3re211StringPiece5rfindERKS0_m, 
                       __ZNK3re211StringPiece5rfindEcm, __ZNK3re211StringPiece6substrEmm, 
                       __ZNK3re212RegexpStatus4TextEv, __ZNK3re213PrefilterTree10NodeStringEPNS_9PrefilterE, 
                       __ZNK3re213PrefilterTree14PropagateMatchERKNSt3__16vectorIiNS1_9allocatorIiEEEEPNS_11SparseArrayIiEE, 
                       __ZNK3re213PrefilterTree15DebugNodeStringEPNS_9PrefilterE, 
                       __ZNK3re213PrefilterTree19RegexpsGivenStringsERKNSt3__16vectorIiNS1_9allocatorIiEEEEPS5_, 
                       __ZNK3re213PrefilterTree8KeepNodeEPNS_9PrefilterE, __ZNK3re23RE211ProgramSizeEv, 
                       __ZNK3re23RE211ReverseProgEv, __ZNK3re23RE213ProgramFanoutEPNSt3__16vectorIiNS1_9allocatorIiEEEE, 
                       __ZNK3re23RE218CheckRewriteStringERKNS_11StringPieceEPNSt3__112basic_stringIcNS4_11char_traitsIcEENS4_9allocatorIcEEEE, 
                       __ZNK3re23RE218PossibleMatchRangeEPNSt3__112basic_stringIcNS1_11char_traitsIcEENS1_9allocatorIcEEEES8_i, 
                       __ZNK3re23RE218ReverseProgramSizeEv, __ZNK3re23RE219CapturingGroupNamesEv, 
                       __ZNK3re23RE220NamedCapturingGroupsEv, __ZNK3re23RE220ReverseProgramFanoutEPNSt3__16vectorIiNS1_9allocatorIiEEEE, 
                       __ZNK3re23RE23Set5MatchERKNS_11StringPieceEPNSt3__16vectorIiNS5_9allocatorIiEEEE, 
                       __ZNK3re23RE23Set5MatchERKNS_11StringPieceEPNSt3__16vectorIiNS5_9allocatorIiEEEEPNS1_9ErrorInfoE, 
                       __ZNK3re23RE25MatchERKNS_11StringPieceEmmNS0_6AnchorEPS1_i, 
                       __ZNK3re23RE27DoMatchERKNS_11StringPieceENS0_6AnchorEPmPKPKNS0_3ArgEi, 
                       __ZNK3re23RE27Options10ParseFlagsEv, __ZNK3re23RE27RewriteEPNSt3__112basic_stringIcNS1_11char_traitsIcEENS1_9allocatorIcEEEERKNS_11StringPieceEPSA_i, 
                       __ZNK3re24PCRE11DoMatchImplERKNS_11StringPieceENS0_6AnchorEPmPKPKNS0_3ArgEiPii, 
                       __ZNK3re24PCRE14ConsumeFunctorclEPNS_11StringPieceERKS0_RKNS0_3ArgES8_S8_S8_S8_S8_S8_S8_S8_S8_S8_S8_S8_S8_S8_S8_, 
                       __ZNK3re24PCRE16FullMatchFunctorclERKNS_11StringPieceERKS0_RKNS0_3ArgES9_S9_S9_S9_S9_S9_S9_S9_S9_S9_S9_S9_S9_S9_S9_, 
                       __ZNK3re24PCRE18CheckRewriteStringERKNS_11StringPieceEPNSt3__112basic_stringIcNS4_11char_traitsIcEENS4_9allocatorIcEEEE, 
                       __ZNK3re24PCRE19PartialMatchFunctorclERKNS_11StringPieceERKS0_RKNS0_3ArgES9_S9_S9_S9_S9_S9_S9_S9_S9_S9_S9_S9_S9_S9_S9_, 
                       __ZNK3re24PCRE21FindAndConsumeFunctorclEPNS_11StringPieceERKS0_RKNS0_3ArgES8_S8_S8_S8_S8_S8_S8_S8_S8_S8_S8_S8_S8_S8_S8_, 
                       __ZNK3re24PCRE23NumberOfCapturingGroupsEv, __ZNK3re24PCRE7DoMatchERKNS_11StringPieceENS0_6AnchorEPmPKPKNS0_3ArgEi, 
                       __ZNK3re24PCRE7RewriteEPNSt3__112basic_stringIcNS1_11char_traitsIcEENS1_9allocatorIcEEEERKNS_11StringPieceESB_Pii, 
                       __ZNK3re24PCRE8TryMatchERKNS_11StringPieceEmNS0_6AnchorEbPii, 
                       __ZNK3re29Bitmap25614FindNextSetBitEi, __ZNK3re29CharClass8ContainsEi, 
                       __ZNK3re29Prefilter11DebugStringEv, __ZNK9grpc_core10ThreadPool11thread_nameEv, 
                       __ZNK9grpc_core10ThreadPool13pool_capacityEv, __ZNK9grpc_core10ThreadPool14thread_optionsEv, 
                       __ZNK9grpc_core10ThreadPool20num_pending_closuresEv, __ZNK9grpc_core11ChannelInit11CreateStackEP26grpc_channel_stack_builder23grpc_channel_stack_type, 
                       __ZNK9grpc_core11FilterChain16FilterChainMatch8ToStringEv, 
                       __ZNK9grpc_core12EvaluateArgs10GetDnsSansEv, __ZNK9grpc_core12EvaluateArgs10GetSubjectEv, 
                       __ZNK9grpc_core12EvaluateArgs10GetUriSansEv, __ZNK9grpc_core12EvaluateArgs11GetPeerPortEv, 
                       __ZNK9grpc_core12EvaluateArgs11GetSpiffeIdEv, __ZNK9grpc_core12EvaluateArgs12GetAuthorityEv, 
                       __ZNK9grpc_core12EvaluateArgs12GetLocalPortEv, __ZNK9grpc_core12EvaluateArgs13GetCommonNameEv, 
                       __ZNK9grpc_core12EvaluateArgs14GetHeaderValueEN4absl12lts_2021110211string_viewEPNSt3__112basic_stringIcNS4_11char_traitsIcEENS4_9allocatorIcEEEE, 
                       __ZNK9grpc_core12EvaluateArgs14GetPeerAddressEv, __ZNK9grpc_core12EvaluateArgs15GetLocalAddressEv, 
                       __ZNK9grpc_core12EvaluateArgs20GetPeerAddressStringEv, __ZNK9grpc_core12EvaluateArgs21GetLocalAddressStringEv, 
                       __ZNK9grpc_core12EvaluateArgs24GetTransportSecurityTypeEv, 
                       __ZNK9grpc_core12EvaluateArgs7GetHostEv, __ZNK9grpc_core12EvaluateArgs7GetPathEv, 
                       __ZNK9grpc_core12EvaluateArgs9GetMethodEv, __ZNK9grpc_core12GrpcLbServereqERKS0_, 
                       __ZNK9grpc_core12XdsBootstrap15LookupAuthorityERKNSt3__112basic_stringIcNS1_11char_traitsIcEENS1_9allocatorIcEEEE, 
                       __ZNK9grpc_core12XdsBootstrap8ToStringEv, __ZNK9grpc_core12XdsBootstrap9XdsServer11ShouldUseV3Ev, 
                       __ZNK9grpc_core13HeaderMatcher5MatchERKN4absl12lts_202111028optionalINS2_11string_viewEEE, 
                       __ZNK9grpc_core13HeaderMatcher8ToStringEv, __ZNK9grpc_core13HeaderMatchereqERKS0_, 
                       __ZNK9grpc_core13ServerAddress12GetAttributeEPKc, __ZNK9grpc_core13ServerAddress13WithAttributeEPKcNSt3__110unique_ptrINS0_18AttributeInterfaceENS3_14default_deleteIS5_EEEE, 
                       __ZNK9grpc_core13ServerAddress3CmpERKS0_, __ZNK9grpc_core13ServerAddress8ToStringEv, 
                       __ZNK9grpc_core13ServiceConfig27GetMethodParsedConfigVectorERK10grpc_slice, 
                       __ZNK9grpc_core13StringMatcher5MatchEN4absl12lts_2021110211string_viewE, 
                       __ZNK9grpc_core13StringMatcher8ToStringEv, __ZNK9grpc_core13StringMatchereqERKS0_, 
                       __ZNK9grpc_core13SubchannelKey8ToStringEv, __ZNK9grpc_core13SubchannelKeyltERKS0_, 
                       __ZNK9grpc_core14ConfigSelector14MakeChannelArgEv, __ZNK9grpc_core15HPackCompressor6Framer16CurrentFrameSizeEv, 
                       __ZNK9grpc_core15XdsResourceType6IsTypeEN4absl12lts_2021110211string_viewEPb, 
                       __ZNK9grpc_core16BasicMemoryQuota52InstantaneousPressureAndMaxRecommendedAllocationSizeEv, 
                       __ZNK9grpc_core16CommonTlsContext28CertificateValidationContext5EmptyEv, 
                       __ZNK9grpc_core16CommonTlsContext28CertificateValidationContext8ToStringEv, 
                       __ZNK9grpc_core16CommonTlsContext33CertificateProviderPluginInstance5EmptyEv, 
                       __ZNK9grpc_core16CommonTlsContext33CertificateProviderPluginInstance8ToStringEv, 
                       __ZNK9grpc_core16CommonTlsContext5EmptyEv, __ZNK9grpc_core16CommonTlsContext8ToStringEv, 
                       __ZNK9grpc_core17XdsHttpRbacFilter14PopulateSymtabEP10upb_symtab, 
                       __ZNK9grpc_core17XdsHttpRbacFilter14channel_filterEv, __ZNK9grpc_core17XdsHttpRbacFilter17ModifyChannelArgsEP17grpc_channel_args, 
                       __ZNK9grpc_core17XdsHttpRbacFilter20GenerateFilterConfigE11upb_strviewP9upb_arena, 
                       __ZNK9grpc_core17XdsHttpRbacFilter21GenerateServiceConfigERKNS_17XdsHttpFilterImpl12FilterConfigEPS3_, 
                       __ZNK9grpc_core17XdsHttpRbacFilter28GenerateFilterConfigOverrideE11upb_strviewP9upb_arena, 
                       __ZNK9grpc_core18ChildPolicyHandler25CreateLoadBalancingPolicyEPKcNS_19LoadBalancingPolicy4ArgsE, 
                       __ZNK9grpc_core18ChildPolicyHandler37ConfigChangeRequiresNewPolicyInstanceEPNS_19LoadBalancingPolicy6ConfigES3_, 
                       __ZNK9grpc_core18HandshakerRegistry14AddHandshakersENS_14HandshakerTypeEPK17grpc_channel_argsP16grpc_pollset_setPNS_16HandshakeManagerE, 
                       __ZNK9grpc_core18XdsClusterResource8ToStringEv, __ZNK9grpc_core18XdsHttpFaultFilter14PopulateSymtabEP10upb_symtab, 
                       __ZNK9grpc_core18XdsHttpFaultFilter14channel_filterEv, __ZNK9grpc_core18XdsHttpFaultFilter17ModifyChannelArgsEP17grpc_channel_args, 
                       __ZNK9grpc_core18XdsHttpFaultFilter20GenerateFilterConfigE11upb_strviewP9upb_arena, 
                       __ZNK9grpc_core18XdsHttpFaultFilter21GenerateServiceConfigERKNS_17XdsHttpFilterImpl12FilterConfigEPS3_, 
                       __ZNK9grpc_core18XdsHttpFaultFilter28GenerateFilterConfigOverrideE11upb_strviewP9upb_arena, 
                       __ZNK9grpc_core19ConnectedSubchannel26GetInitialCallSizeEstimateEv, 
                       __ZNK9grpc_core19XdsEndpointResource10DropConfig10ShouldDropEPPKNSt3__112basic_stringIcNS2_11char_traitsIcEENS2_9allocatorIcEEEE, 
                       __ZNK9grpc_core19XdsEndpointResource10DropConfig8ToStringEv, 
                       __ZNK9grpc_core19XdsEndpointResource8Priority8Locality8ToStringEv, 
                       __ZNK9grpc_core19XdsEndpointResource8Priority8ToStringEv, 
                       __ZNK9grpc_core19XdsEndpointResource8PriorityeqERKS1_, __ZNK9grpc_core19XdsEndpointResource8ToStringEv, 
                       __ZNK9grpc_core19XdsListenerResource14FilterChainMap8ToStringEv, 
                       __ZNK9grpc_core19XdsListenerResource14FilterChainMap9CidrRange8ToStringEv, 
                       __ZNK9grpc_core19XdsListenerResource15FilterChainData8ToStringEv, 
                       __ZNK9grpc_core19XdsListenerResource20DownstreamTlsContext5EmptyEv, 
                       __ZNK9grpc_core19XdsListenerResource20DownstreamTlsContext8ToStringEv, 
                       __ZNK9grpc_core19XdsListenerResource21HttpConnectionManager10HttpFilter8ToStringEv, 
                       __ZNK9grpc_core19XdsListenerResource21HttpConnectionManager8ToStringEv, 
                       __ZNK9grpc_core19XdsListenerResource8ToStringEv, __ZNK9grpc_core22IpAuthorizationMatcher7MatchesERKNS_12EvaluateArgsE, 
                       __ZNK9grpc_core22OrAuthorizationMatcher7MatchesERKNS_12EvaluateArgsE, 
                       __ZNK9grpc_core22XdsCertificateProvider14MakeChannelArgEv, 
                       __ZNK9grpc_core22XdsCertificateProvider23ClusterCertificateState14IsSafeToRemoveEv, 
                       __ZNK9grpc_core22XdsClusterResourceType6DecodeERKNS_18XdsEncodingContextEN4absl12lts_2021110211string_viewEb, 
                       __ZNK9grpc_core22XdsRouteConfigResource11RetryPolicy12RetryBackOff8ToStringEv, 
                       __ZNK9grpc_core22XdsRouteConfigResource11RetryPolicy8ToStringEv, 
                       __ZNK9grpc_core22XdsRouteConfigResource5Route11RouteAction10HashPolicy8ToStringEv, 
                       __ZNK9grpc_core22XdsRouteConfigResource5Route11RouteAction10HashPolicyeqERKS3_, 
                       __ZNK9grpc_core22XdsRouteConfigResource5Route11RouteAction13ClusterWeight8ToStringEv, 
                       __ZNK9grpc_core22XdsRouteConfigResource5Route11RouteAction8ToStringEv, 
                       __ZNK9grpc_core22XdsRouteConfigResource5Route8Matchers8ToStringEv, 
                       __ZNK9grpc_core22XdsRouteConfigResource5Route8ToStringEv, 
                       __ZNK9grpc_core22XdsRouteConfigResource8ToStringEv, __ZNK9grpc_core23AndAuthorizationMatcher7MatchesERKNS_12EvaluateArgsE, 
                       __ZNK9grpc_core23CompressionAlgorithmSet15ToLegacyBitmaskEv, 
                       __ZNK9grpc_core23CompressionAlgorithmSet28CompressionAlgorithmForLevelE22grpc_compression_level, 
                       __ZNK9grpc_core23CompressionAlgorithmSet5IsSetE26grpc_compression_algorithm, 
                       __ZNK9grpc_core23CompressionAlgorithmSet7ToSliceEv, __ZNK9grpc_core23CompressionAlgorithmSet8ToStringEv, 
                       __ZNK9grpc_core23GrpcAuthorizationEngine8EvaluateERKNS_12EvaluateArgsE, 
                       __ZNK9grpc_core23NotAuthorizationMatcher7MatchesERKNS_12EvaluateArgsE, 
                       __ZNK9grpc_core23XdsChannelStackModifier14MakeChannelArgEv, 
                       __ZNK9grpc_core23XdsEndpointResourceType6DecodeERKNS_18XdsEncodingContextEN4absl12lts_2021110211string_viewEb, 
                       __ZNK9grpc_core23XdsListenerResourceType6DecodeERKNS_18XdsEncodingContextEN4absl12lts_2021110211string_viewEb, 
                       __ZNK9grpc_core24ConnectivityStateTracker5stateEv, __ZNK9grpc_core24PathAuthorizationMatcher7MatchesERKNS_12EvaluateArgsE, 
                       __ZNK9grpc_core24PortAuthorizationMatcher7MatchesERKNS_12EvaluateArgsE, 
                       __ZNK9grpc_core26ChannelArgsPreconditioning23PreconditionChannelArgsEPK17grpc_channel_args, 
                       __ZNK9grpc_core26HeaderAuthorizationMatcher7MatchesERKNS_12EvaluateArgsE, 
                       __ZNK9grpc_core26PolicyAuthorizationMatcher7MatchesERKNS_12EvaluateArgsE, 
                       __ZNK9grpc_core26TlsServerSecurityConnector3cmpEPK23grpc_security_connector, 
                       __ZNK9grpc_core26XdsRouteConfigResourceType6DecodeERKNS_18XdsEncodingContextEN4absl12lts_2021110211string_viewEb, 
                       __ZNK9grpc_core27TlsChannelSecurityConnector3cmpEPK23grpc_security_connector, 
                       __ZNK9grpc_core28ServerConfigSelectorProvider14MakeChannelArgEv, 
                       __ZNK9grpc_core31InsecureServerSecurityConnector3cmpEPK23grpc_security_connector, 
                       __ZNK9grpc_core32InsecureChannelSecurityConnector3cmpEPK23grpc_security_connector, 
                       __ZNK9grpc_core33AuthenticatedAuthorizationMatcher7MatchesERKNS_12EvaluateArgsE, 
                       __ZNK9grpc_core33ReqServerNameAuthorizationMatcher7MatchesERKNS_12EvaluateArgsE, 
                       __ZNK9grpc_core37FileWatcherCertificateProviderFactory4nameEv, 
                       __ZNK9grpc_core37FileWatcherCertificateProviderFactory6Config4nameEv, 
                       __ZNK9grpc_core37FileWatcherCertificateProviderFactory6Config8ToStringEv, 
                       __ZNK9grpc_core3URI8ToStringEv, __ZNK9grpc_core4Json4DumpEi, 
                       __ZNK9grpc_core4Rbac10Permission8ToStringEv, __ZNK9grpc_core4Rbac6Policy8ToStringEv, 
                       __ZNK9grpc_core4Rbac8ToStringEv, __ZNK9grpc_core4Rbac9CidrRange8ToStringEv, 
                       __ZNK9grpc_core4Rbac9Principal8ToStringEv, __ZNK9grpc_core6Server17GetChannelsLockedEv, 
                       __ZNK9grpc_core6chttp217FlowControlAction5TraceEP21grpc_chttp2_transport, 
                       __ZNK9grpc_core7Timeout10AsDurationEv, __ZNK9grpc_core7Timeout11RatioVersusES0_, 
                       __ZNK9grpc_core7Timeout6EncodeEv, __ZNK9grpc_core8Executor10IsThreadedEv, 
                       __ZNK9grpc_core8channelz10SocketNode8Security14MakeChannelArgEv, 
                       __ZNK9grpc_core8channelz12ChannelTrace10RenderJsonEv, __ZNK9grpc_core8channelz12ChannelTrace10TraceEvent16RenderTraceEventEv, 
                       __ZNK9grpc_core9XdsClient12ChannelState12AdsCallState22HasSubscribedResourcesEv, 
                       __ZNK9grpc_core9XdsClient12ChannelState12AdsCallState22IsCurrentCallOnChannelEv, 
                       __ZNK9grpc_core9XdsClient12ChannelState12LrsCallState22IsCurrentCallOnChannelEv, 
                       __ZNK9grpc_core9XdsClient12ChannelState16HasActiveAdsCallEv, 
                       __ZNK9grpc_core9XdsClient12ChannelState9ads_calldEv, __ZNK9grpc_core9XdsClient12ChannelState9lrs_calldEv, 
                       __ZNK9grpc_core9XdsClient14MakeChannelArgEv, __ZTI14TlsCredentials, 
                       __ZTI20TlsServerCredentials, __ZTI20grpc_ssl_credentials, 
                       __ZTI21grpc_alts_credentials, __ZTI22grpc_local_credentials, 
                       __ZTI23grpc_plugin_credentials, __ZTI27grpc_google_iam_credentials, 
                       __ZTI27grpc_ssl_server_credentials, __ZTI28grpc_alts_server_credentials, 
                       __ZTI29grpc_access_token_credentials, __ZTI29grpc_local_server_credentials, 
                       __ZTI29grpc_md_only_test_credentials, __ZTI30grpc_server_security_connector, 
                       __ZTI31grpc_channel_security_connector, __ZTI31grpc_composite_call_credentials, 
                       __ZTI34grpc_composite_channel_credentials, __ZTI37grpc_google_refresh_token_credentials, 
                       __ZTI37grpc_oauth2_token_fetcher_credentials, __ZTI39grpc_google_default_channel_credentials, 
                       __ZTI43grpc_service_account_jwt_access_credentials, __ZTIN17grpc_event_engine12experimental25ChannelArgsEndpointConfigE, 
                       __ZTIN3re210PCREWalkerE, __ZTIN3re214CoalesceWalkerE, __ZTIN3re214SimplifyWalkerE, 
                       __ZTIN3re214ToStringWalkerE, __ZTIN3re216RepetitionWalkerE, 
                       __ZTIN3re217EmptyStringWalkerE, __ZTIN3re28CompilerE, __ZTIN3re29Prefilter4Info6WalkerE, 
                       __ZTIN3tsi18SslSessionLRUCacheE, __ZTIN9grpc_core10SubchannelE, 
                       __ZTIN9grpc_core10ThreadPoolE, __ZTIN9grpc_core11MemoryQuotaE, 
                       __ZTIN9grpc_core11ThreadQuotaE, __ZTIN9grpc_core12FakeResolverE, 
                       __ZTIN9grpc_core13ClientChannel16LoadBalancedCallE, __ZTIN9grpc_core13ClientChannel27ExternalConnectivityWatcherE, 
                       __ZTIN9grpc_core13ResourceQuotaE, __ZTIN9grpc_core13ServiceConfigE, 
                       __ZTIN9grpc_core14DynamicFiltersE, __ZTIN9grpc_core14WorkSerializer18WorkSerializerImplE, 
                       __ZTIN9grpc_core14XdsCredentialsE, __ZTIN9grpc_core15ByteStreamCache17CachingByteStreamE, 
                       __ZTIN9grpc_core15Chttp2ConnectorE, __ZTIN9grpc_core15InfLenFIFOQueueE, 
                       __ZTIN9grpc_core16HandshakeManagerE, __ZTIN9grpc_core17CustomDNSResolver7RequestE, 
                       __ZTIN9grpc_core17CustomDNSResolverE, __ZTIN9grpc_core17HealthCheckClient9CallStateE, 
                       __ZTIN9grpc_core17HealthCheckClientE, __ZTIN9grpc_core17MessageSizeParserE, 
                       __ZTIN9grpc_core17NativeDNSResolverE, __ZTIN9grpc_core17XdsHttpRbacFilterE, 
                       __ZTIN9grpc_core18ChildPolicyHandlerE, __ZTIN9grpc_core18XdsHttpFaultFilterE, 
                       __ZTIN9grpc_core19ConnectedSubchannelE, __ZTIN9grpc_core19LoadBalancingPolicy11QueuePickerE, 
                       __ZTIN9grpc_core19LoadBalancingPolicyE, __ZTIN9grpc_core19LocalSubchannelPoolE, 
                       __ZTIN9grpc_core19XdsClusterDropStatsE, __ZTIN9grpc_core20GlobalSubchannelPoolE, 
                       __ZTIN9grpc_core20XdsServerCredentialsE, __ZTIN9grpc_core21SliceBufferByteStreamE, 
                       __ZTIN9grpc_core22IpAuthorizationMatcherE, __ZTIN9grpc_core22OrAuthorizationMatcherE, 
                       __ZTIN9grpc_core22XdsCertificateProviderE, __ZTIN9grpc_core22XdsClusterResourceTypeE, 
                       __ZTIN9grpc_core23AndAuthorizationMatcherE, __ZTIN9grpc_core23GrpcAuthorizationEngineE, 
                       __ZTIN9grpc_core23GrpcMemoryAllocatorImplE, __ZTIN9grpc_core23NotAuthorizationMatcherE, 
                       __ZTIN9grpc_core23RbacServiceConfigParserE, __ZTIN9grpc_core23XdsClusterLocalityStatsE, 
                       __ZTIN9grpc_core23XdsEndpointResourceTypeE, __ZTIN9grpc_core23XdsListenerResourceTypeE, 
                       __ZTIN9grpc_core24Chttp2IncomingByteStreamE, __ZTIN9grpc_core24PathAuthorizationMatcherE, 
                       __ZTIN9grpc_core24PortAuthorizationMatcherE, __ZTIN9grpc_core26ExternalAccountCredentialsE, 
                       __ZTIN9grpc_core26HeaderAuthorizationMatcherE, __ZTIN9grpc_core26PolicyAuthorizationMatcherE, 
                       __ZTIN9grpc_core26TlsServerSecurityConnector27TlsServerCertificateWatcherE, 
                       __ZTIN9grpc_core26TlsServerSecurityConnectorE, __ZTIN9grpc_core26XdsRouteConfigResourceTypeE, 
                       __ZTIN9grpc_core27ExternalCertificateVerifierE, __ZTIN9grpc_core27HostNameCertificateVerifierE, 
                       __ZTIN9grpc_core27TlsChannelSecurityConnector28TlsChannelCertificateWatcherE, 
                       __ZTIN9grpc_core27TlsChannelSecurityConnectorE, __ZTIN9grpc_core29AwsExternalAccountCredentialsE, 
                       __ZTIN9grpc_core29FakeResolverResponseGeneratorE, __ZTIN9grpc_core29StaticDataCertificateProviderE, 
                       __ZTIN9grpc_core29UrlExternalAccountCredentialsE, __ZTIN9grpc_core30FileExternalAccountCredentialsE, 
                       __ZTIN9grpc_core30FileWatcherCertificateProviderE, __ZTIN9grpc_core31InsecureServerSecurityConnectorE, 
                       __ZTIN9grpc_core32InsecureChannelSecurityConnectorE, __ZTIN9grpc_core33AuthenticatedAuthorizationMatcherE, 
                       __ZTIN9grpc_core33FaultInjectionServiceConfigParserE, __ZTIN9grpc_core33ReqServerNameAuthorizationMatcherE, 
                       __ZTIN9grpc_core37FileWatcherCertificateProviderFactory6ConfigE, 
                       __ZTIN9grpc_core37FileWatcherCertificateProviderFactoryE, 
                       __ZTIN9grpc_core38AsyncConnectivityStateWatcherInterfaceE, 
                       __ZTIN9grpc_core6ServerE, __ZTIN9grpc_core6chttp217StreamFlowControlE, 
                       __ZTIN9grpc_core6chttp220TransportFlowControlE, __ZTIN9grpc_core8channelz10ServerNodeE, 
                       __ZTIN9grpc_core8channelz10SocketNodeE, __ZTIN9grpc_core8channelz11ChannelNodeE, 
                       __ZTIN9grpc_core8channelz14SubchannelNodeE, __ZTIN9grpc_core8channelz16ListenSocketNodeE, 
                       __ZTIN9grpc_core8channelz8BaseNodeE, __ZTIN9grpc_core8internal23ServerRetryThrottleDataE, 
                       __ZTIN9grpc_core8internal24RetryServiceConfigParserE, __ZTIN9grpc_core8internal32ClientChannelServiceConfigParserE, 
                       __ZTIN9grpc_core9XdsClient12ChannelState12AdsCallState17AdsResponseParserE, 
                       __ZTIN9grpc_core9XdsClient12ChannelState12AdsCallStateE, __ZTIN9grpc_core9XdsClient12ChannelState12LrsCallState8ReporterE, 
                       __ZTIN9grpc_core9XdsClient12ChannelState12LrsCallStateE, __ZTIN9grpc_core9XdsClient12ChannelStateE, 
                       __ZTIN9grpc_core9XdsClientE, __ZTS14TlsCredentials, __ZTS20TlsServerCredentials, 
                       __ZTS20grpc_ssl_credentials, __ZTS21grpc_alts_credentials, 
                       __ZTS22grpc_local_credentials, __ZTS23grpc_plugin_credentials, 
                       __ZTS27grpc_google_iam_credentials, __ZTS27grpc_ssl_server_credentials, 
                       __ZTS28grpc_alts_server_credentials, __ZTS29grpc_access_token_credentials, 
                       __ZTS29grpc_local_server_credentials, __ZTS29grpc_md_only_test_credentials, 
                       __ZTS30grpc_server_security_connector, __ZTS31grpc_channel_security_connector, 
                       __ZTS31grpc_composite_call_credentials, __ZTS34grpc_composite_channel_credentials, 
                       __ZTS37grpc_google_refresh_token_credentials, __ZTS37grpc_oauth2_token_fetcher_credentials, 
                       __ZTS39grpc_google_default_channel_credentials, __ZTS43grpc_service_account_jwt_access_credentials, 
                       __ZTSN17grpc_event_engine12experimental25ChannelArgsEndpointConfigE, 
                       __ZTSN3re210PCREWalkerE, __ZTSN3re214CoalesceWalkerE, __ZTSN3re214SimplifyWalkerE, 
                       __ZTSN3re214ToStringWalkerE, __ZTSN3re216RepetitionWalkerE, 
                       __ZTSN3re217EmptyStringWalkerE, __ZTSN3re28CompilerE, __ZTSN3re29Prefilter4Info6WalkerE, 
                       __ZTSN3tsi18SslSessionLRUCacheE, __ZTSN9grpc_core10SubchannelE, 
                       __ZTSN9grpc_core10ThreadPoolE, __ZTSN9grpc_core11MemoryQuotaE, 
                       __ZTSN9grpc_core11ThreadQuotaE, __ZTSN9grpc_core12FakeResolverE, 
                       __ZTSN9grpc_core13ClientChannel16LoadBalancedCallE, __ZTSN9grpc_core13ClientChannel27ExternalConnectivityWatcherE, 
                       __ZTSN9grpc_core13ResourceQuotaE, __ZTSN9grpc_core13ServiceConfigE, 
                       __ZTSN9grpc_core14DynamicFiltersE, __ZTSN9grpc_core14WorkSerializer18WorkSerializerImplE, 
                       __ZTSN9grpc_core14XdsCredentialsE, __ZTSN9grpc_core15ByteStreamCache17CachingByteStreamE, 
                       __ZTSN9grpc_core15Chttp2ConnectorE, __ZTSN9grpc_core15InfLenFIFOQueueE, 
                       __ZTSN9grpc_core16HandshakeManagerE, __ZTSN9grpc_core17CustomDNSResolver7RequestE, 
                       __ZTSN9grpc_core17CustomDNSResolverE, __ZTSN9grpc_core17HealthCheckClient9CallStateE, 
                       __ZTSN9grpc_core17HealthCheckClientE, __ZTSN9grpc_core17MessageSizeParserE, 
                       __ZTSN9grpc_core17NativeDNSResolverE, __ZTSN9grpc_core17XdsHttpRbacFilterE, 
                       __ZTSN9grpc_core18ChildPolicyHandlerE, __ZTSN9grpc_core18XdsHttpFaultFilterE, 
                       __ZTSN9grpc_core19ConnectedSubchannelE, __ZTSN9grpc_core19LoadBalancingPolicy11QueuePickerE, 
                       __ZTSN9grpc_core19LoadBalancingPolicyE, __ZTSN9grpc_core19LocalSubchannelPoolE, 
                       __ZTSN9grpc_core19XdsClusterDropStatsE, __ZTSN9grpc_core20GlobalSubchannelPoolE, 
                       __ZTSN9grpc_core20XdsServerCredentialsE, __ZTSN9grpc_core21SliceBufferByteStreamE, 
                       __ZTSN9grpc_core22IpAuthorizationMatcherE, __ZTSN9grpc_core22OrAuthorizationMatcherE, 
                       __ZTSN9grpc_core22XdsCertificateProviderE, __ZTSN9grpc_core22XdsClusterResourceTypeE, 
                       __ZTSN9grpc_core23AndAuthorizationMatcherE, __ZTSN9grpc_core23GrpcAuthorizationEngineE, 
                       __ZTSN9grpc_core23GrpcMemoryAllocatorImplE, __ZTSN9grpc_core23NotAuthorizationMatcherE, 
                       __ZTSN9grpc_core23RbacServiceConfigParserE, __ZTSN9grpc_core23XdsClusterLocalityStatsE, 
                       __ZTSN9grpc_core23XdsEndpointResourceTypeE, __ZTSN9grpc_core23XdsListenerResourceTypeE, 
                       __ZTSN9grpc_core24Chttp2IncomingByteStreamE, __ZTSN9grpc_core24PathAuthorizationMatcherE, 
                       __ZTSN9grpc_core24PortAuthorizationMatcherE, __ZTSN9grpc_core26ExternalAccountCredentialsE, 
                       __ZTSN9grpc_core26HeaderAuthorizationMatcherE, __ZTSN9grpc_core26PolicyAuthorizationMatcherE, 
                       __ZTSN9grpc_core26TlsServerSecurityConnector27TlsServerCertificateWatcherE, 
                       __ZTSN9grpc_core26TlsServerSecurityConnectorE, __ZTSN9grpc_core26XdsRouteConfigResourceTypeE, 
                       __ZTSN9grpc_core27ExternalCertificateVerifierE, __ZTSN9grpc_core27HostNameCertificateVerifierE, 
                       __ZTSN9grpc_core27TlsChannelSecurityConnector28TlsChannelCertificateWatcherE, 
                       __ZTSN9grpc_core27TlsChannelSecurityConnectorE, __ZTSN9grpc_core29AwsExternalAccountCredentialsE, 
                       __ZTSN9grpc_core29FakeResolverResponseGeneratorE, __ZTSN9grpc_core29StaticDataCertificateProviderE, 
                       __ZTSN9grpc_core29UrlExternalAccountCredentialsE, __ZTSN9grpc_core30FileExternalAccountCredentialsE, 
                       __ZTSN9grpc_core30FileWatcherCertificateProviderE, __ZTSN9grpc_core31InsecureServerSecurityConnectorE, 
                       __ZTSN9grpc_core32InsecureChannelSecurityConnectorE, __ZTSN9grpc_core33AuthenticatedAuthorizationMatcherE, 
                       __ZTSN9grpc_core33FaultInjectionServiceConfigParserE, __ZTSN9grpc_core33ReqServerNameAuthorizationMatcherE, 
                       __ZTSN9grpc_core37FileWatcherCertificateProviderFactory6ConfigE, 
                       __ZTSN9grpc_core37FileWatcherCertificateProviderFactoryE, 
                       __ZTSN9grpc_core38AsyncConnectivityStateWatcherInterfaceE, 
                       __ZTSN9grpc_core6ServerE, __ZTSN9grpc_core6chttp217StreamFlowControlE, 
                       __ZTSN9grpc_core6chttp220TransportFlowControlE, __ZTSN9grpc_core8channelz10ServerNodeE, 
                       __ZTSN9grpc_core8channelz10SocketNodeE, __ZTSN9grpc_core8channelz11ChannelNodeE, 
                       __ZTSN9grpc_core8channelz14SubchannelNodeE, __ZTSN9grpc_core8channelz16ListenSocketNodeE, 
                       __ZTSN9grpc_core8channelz8BaseNodeE, __ZTSN9grpc_core8internal23ServerRetryThrottleDataE, 
                       __ZTSN9grpc_core8internal24RetryServiceConfigParserE, __ZTSN9grpc_core8internal32ClientChannelServiceConfigParserE, 
                       __ZTSN9grpc_core9XdsClient12ChannelState12AdsCallState17AdsResponseParserE, 
                       __ZTSN9grpc_core9XdsClient12ChannelState12AdsCallStateE, __ZTSN9grpc_core9XdsClient12ChannelState12LrsCallState8ReporterE, 
                       __ZTSN9grpc_core9XdsClient12ChannelState12LrsCallStateE, __ZTSN9grpc_core9XdsClient12ChannelStateE, 
                       __ZTSN9grpc_core9XdsClientE, __ZTV14TlsCredentials, __ZTV20TlsServerCredentials, 
                       __ZTV20grpc_ssl_credentials, __ZTV21grpc_alts_credentials, 
                       __ZTV22grpc_local_credentials, __ZTV23grpc_plugin_credentials, 
                       __ZTV27grpc_google_iam_credentials, __ZTV27grpc_ssl_server_credentials, 
                       __ZTV28grpc_alts_server_credentials, __ZTV29grpc_access_token_credentials, 
                       __ZTV29grpc_local_server_credentials, __ZTV29grpc_md_only_test_credentials, 
                       __ZTV30grpc_server_security_connector, __ZTV31grpc_channel_security_connector, 
                       __ZTV31grpc_composite_call_credentials, __ZTV34grpc_composite_channel_credentials, 
                       __ZTV37grpc_google_refresh_token_credentials, __ZTV37grpc_oauth2_token_fetcher_credentials, 
                       __ZTV39grpc_google_default_channel_credentials, __ZTV43grpc_service_account_jwt_access_credentials, 
                       __ZTVN17grpc_event_engine12experimental25ChannelArgsEndpointConfigE, 
                       __ZTVN3re210PCREWalkerE, __ZTVN3re214CoalesceWalkerE, __ZTVN3re214SimplifyWalkerE, 
                       __ZTVN3re214ToStringWalkerE, __ZTVN3re216RepetitionWalkerE, 
                       __ZTVN3re217EmptyStringWalkerE, __ZTVN3re28CompilerE, __ZTVN3re29Prefilter4Info6WalkerE, 
                       __ZTVN3tsi18SslSessionLRUCacheE, __ZTVN9grpc_core10SubchannelE, 
                       __ZTVN9grpc_core10ThreadPoolE, __ZTVN9grpc_core11MemoryQuotaE, 
                       __ZTVN9grpc_core11ThreadQuotaE, __ZTVN9grpc_core12FakeResolverE, 
                       __ZTVN9grpc_core13ClientChannel16LoadBalancedCallE, __ZTVN9grpc_core13ClientChannel27ExternalConnectivityWatcherE, 
                       __ZTVN9grpc_core13ResourceQuotaE, __ZTVN9grpc_core13ServiceConfigE, 
                       __ZTVN9grpc_core14DynamicFiltersE, __ZTVN9grpc_core14WorkSerializer18WorkSerializerImplE, 
                       __ZTVN9grpc_core14XdsCredentialsE, __ZTVN9grpc_core15ByteStreamCache17CachingByteStreamE, 
                       __ZTVN9grpc_core15Chttp2ConnectorE, __ZTVN9grpc_core15InfLenFIFOQueueE, 
                       __ZTVN9grpc_core16HandshakeManagerE, __ZTVN9grpc_core17CustomDNSResolver7RequestE, 
                       __ZTVN9grpc_core17CustomDNSResolverE, __ZTVN9grpc_core17HealthCheckClient9CallStateE, 
                       __ZTVN9grpc_core17HealthCheckClientE, __ZTVN9grpc_core17MessageSizeParserE, 
                       __ZTVN9grpc_core17NativeDNSResolverE, __ZTVN9grpc_core17XdsHttpRbacFilterE, 
                       __ZTVN9grpc_core18ChildPolicyHandlerE, __ZTVN9grpc_core18XdsHttpFaultFilterE, 
                       __ZTVN9grpc_core19ConnectedSubchannelE, __ZTVN9grpc_core19LoadBalancingPolicy11QueuePickerE, 
                       __ZTVN9grpc_core19LoadBalancingPolicyE, __ZTVN9grpc_core19LocalSubchannelPoolE, 
                       __ZTVN9grpc_core19XdsClusterDropStatsE, __ZTVN9grpc_core20GlobalSubchannelPoolE, 
                       __ZTVN9grpc_core20XdsServerCredentialsE, __ZTVN9grpc_core21SliceBufferByteStreamE, 
                       __ZTVN9grpc_core22IpAuthorizationMatcherE, __ZTVN9grpc_core22OrAuthorizationMatcherE, 
                       __ZTVN9grpc_core22XdsCertificateProviderE, __ZTVN9grpc_core22XdsClusterResourceTypeE, 
                       __ZTVN9grpc_core23AndAuthorizationMatcherE, __ZTVN9grpc_core23GrpcAuthorizationEngineE, 
                       __ZTVN9grpc_core23GrpcMemoryAllocatorImplE, __ZTVN9grpc_core23NotAuthorizationMatcherE, 
                       __ZTVN9grpc_core23RbacServiceConfigParserE, __ZTVN9grpc_core23XdsClusterLocalityStatsE, 
                       __ZTVN9grpc_core23XdsEndpointResourceTypeE, __ZTVN9grpc_core23XdsListenerResourceTypeE, 
                       __ZTVN9grpc_core24Chttp2IncomingByteStreamE, __ZTVN9grpc_core24PathAuthorizationMatcherE, 
                       __ZTVN9grpc_core24PortAuthorizationMatcherE, __ZTVN9grpc_core26ExternalAccountCredentialsE, 
                       __ZTVN9grpc_core26HeaderAuthorizationMatcherE, __ZTVN9grpc_core26PolicyAuthorizationMatcherE, 
                       __ZTVN9grpc_core26TlsServerSecurityConnector27TlsServerCertificateWatcherE, 
                       __ZTVN9grpc_core26TlsServerSecurityConnectorE, __ZTVN9grpc_core26XdsRouteConfigResourceTypeE, 
                       __ZTVN9grpc_core27ExternalCertificateVerifierE, __ZTVN9grpc_core27HostNameCertificateVerifierE, 
                       __ZTVN9grpc_core27TlsChannelSecurityConnector28TlsChannelCertificateWatcherE, 
                       __ZTVN9grpc_core27TlsChannelSecurityConnectorE, __ZTVN9grpc_core29AwsExternalAccountCredentialsE, 
                       __ZTVN9grpc_core29FakeResolverResponseGeneratorE, __ZTVN9grpc_core29StaticDataCertificateProviderE, 
                       __ZTVN9grpc_core29UrlExternalAccountCredentialsE, __ZTVN9grpc_core30FileExternalAccountCredentialsE, 
                       __ZTVN9grpc_core30FileWatcherCertificateProviderE, __ZTVN9grpc_core31InsecureServerSecurityConnectorE, 
                       __ZTVN9grpc_core32InsecureChannelSecurityConnectorE, __ZTVN9grpc_core33AuthenticatedAuthorizationMatcherE, 
                       __ZTVN9grpc_core33FaultInjectionServiceConfigParserE, __ZTVN9grpc_core33ReqServerNameAuthorizationMatcherE, 
                       __ZTVN9grpc_core37FileWatcherCertificateProviderFactory6ConfigE, 
                       __ZTVN9grpc_core37FileWatcherCertificateProviderFactoryE, 
                       __ZTVN9grpc_core38AsyncConnectivityStateWatcherInterfaceE, 
                       __ZTVN9grpc_core6ServerE, __ZTVN9grpc_core6chttp217StreamFlowControlE, 
                       __ZTVN9grpc_core6chttp220TransportFlowControlE, __ZTVN9grpc_core8channelz10ServerNodeE, 
                       __ZTVN9grpc_core8channelz10SocketNodeE, __ZTVN9grpc_core8channelz11ChannelNodeE, 
                       __ZTVN9grpc_core8channelz14SubchannelNodeE, __ZTVN9grpc_core8channelz16ListenSocketNodeE, 
                       __ZTVN9grpc_core8channelz8BaseNodeE, __ZTVN9grpc_core8internal23ServerRetryThrottleDataE, 
                       __ZTVN9grpc_core8internal24RetryServiceConfigParserE, __ZTVN9grpc_core8internal32ClientChannelServiceConfigParserE, 
                       __ZTVN9grpc_core9XdsClient12ChannelState12AdsCallState17AdsResponseParserE, 
                       __ZTVN9grpc_core9XdsClient12ChannelState12AdsCallStateE, __ZTVN9grpc_core9XdsClient12ChannelState12LrsCallState8ReporterE, 
                       __ZTVN9grpc_core9XdsClient12ChannelState12LrsCallStateE, __ZTVN9grpc_core9XdsClient12ChannelStateE, 
                       __ZTVN9grpc_core9XdsClientE, __ZTWN3re25hooks7contextE, __ZTWN9grpc_core26ApplicationCallbackExecCtx18callback_exec_ctx_E, 
                       __ZTWN9grpc_core7ExecCtx9exec_ctx_E, __ZTWN9grpc_core8Activity19g_current_activity_E, 
                       __upb_arena_slowmalloc, __upb_array_append_fallback, __upb_array_realloc, 
                       __upb_array_resize_fallback, __upb_decode, __upb_extreg_add, 
                       __upb_extreg_get, __upb_fielddef_extlayout, __upb_map_new, 
                       __upb_mapsorter_pushmap, __upb_msg_addunknown, __upb_msg_clear, 
                       __upb_msg_clearext, __upb_msg_discardunknown, __upb_msg_discardunknown_shallow, 
                       __upb_msg_getext, __upb_msg_getexts, __upb_msg_getorcreateext, 
                       __upb_msg_new, __upb_symtab_arena, __upb_symtab_bytesloaded, 
                       __upb_symtab_loaddefinit, __upb_symtab_lookupextfield, _arena_initslow, 
                       _cmp_fields, _custom_pollset_vtable, _custom_tcp_client_vtable, 
                       _custom_tcp_server_vtable, _cv_wakeup_fds_enabled, _decode_isdonefallback, 
                       _envoy_admin_v3_BootstrapConfigDump_msginit, _envoy_admin_v3_ClustersConfigDump_DynamicCluster_msginit, 
                       _envoy_admin_v3_ClustersConfigDump_StaticCluster_msginit, 
                       _envoy_admin_v3_ClustersConfigDump_msginit, _envoy_admin_v3_ConfigDump_msginit, 
                       _envoy_admin_v3_EndpointsConfigDump_DynamicEndpointConfig_msginit, 
                       _envoy_admin_v3_EndpointsConfigDump_StaticEndpointConfig_msginit, 
                       _envoy_admin_v3_EndpointsConfigDump_msginit, _envoy_admin_v3_ListenersConfigDump_DynamicListenerState_msginit, 
                       _envoy_admin_v3_ListenersConfigDump_DynamicListener_msginit, 
                       _envoy_admin_v3_ListenersConfigDump_StaticListener_msginit, 
                       _envoy_admin_v3_ListenersConfigDump_msginit, _envoy_admin_v3_RoutesConfigDump_DynamicRouteConfig_msginit, 
                       _envoy_admin_v3_RoutesConfigDump_StaticRouteConfig_msginit, 
                       _envoy_admin_v3_RoutesConfigDump_msginit, _envoy_admin_v3_ScopedRoutesConfigDump_DynamicScopedRouteConfigs_msginit, 
                       _envoy_admin_v3_ScopedRoutesConfigDump_InlineScopedRouteConfigs_msginit, 
                       _envoy_admin_v3_ScopedRoutesConfigDump_msginit, _envoy_admin_v3_SecretsConfigDump_DynamicSecret_msginit, 
                       _envoy_admin_v3_SecretsConfigDump_StaticSecret_msginit, _envoy_admin_v3_SecretsConfigDump_msginit, 
                       _envoy_admin_v3_UpdateFailureState_msginit, _envoy_admin_v3_config_dump_proto_upb_file_layout, 
                       _envoy_admin_v3_config_dump_proto_upbdefinit, _envoy_annotations_ResourceAnnotation_msginit, 
                       _envoy_annotations_deprecated_at_minor_version_enum_ext, _envoy_annotations_deprecated_at_minor_version_ext, 
                       _envoy_annotations_deprecation_proto_upb_file_layout, _envoy_annotations_deprecation_proto_upbdefinit, 
                       _envoy_annotations_disallowed_by_default_enum_ext, _envoy_annotations_disallowed_by_default_ext, 
                       _envoy_annotations_resource_ext, _envoy_annotations_resource_proto_upb_file_layout, 
                       _envoy_annotations_resource_proto_upbdefinit, _envoy_config_accesslog_v3_AccessLogFilter_msginit, 
                       _envoy_config_accesslog_v3_AccessLog_msginit, _envoy_config_accesslog_v3_AndFilter_msginit, 
                       _envoy_config_accesslog_v3_ComparisonFilter_msginit, _envoy_config_accesslog_v3_DurationFilter_msginit, 
                       _envoy_config_accesslog_v3_ExtensionFilter_msginit, _envoy_config_accesslog_v3_GrpcStatusFilter_msginit, 
                       _envoy_config_accesslog_v3_HeaderFilter_msginit, _envoy_config_accesslog_v3_MetadataFilter_msginit, 
                       _envoy_config_accesslog_v3_NotHealthCheckFilter_msginit, _envoy_config_accesslog_v3_OrFilter_msginit, 
                       _envoy_config_accesslog_v3_ResponseFlagFilter_msginit, _envoy_config_accesslog_v3_RuntimeFilter_msginit, 
                       _envoy_config_accesslog_v3_StatusCodeFilter_msginit, _envoy_config_accesslog_v3_TraceableFilter_msginit, 
                       _envoy_config_accesslog_v3_accesslog_proto_upb_file_layout, 
                       _envoy_config_accesslog_v3_accesslog_proto_upbdefinit, _envoy_config_bootstrap_v3_Admin_msginit, 
                       _envoy_config_bootstrap_v3_Bootstrap_CertificateProviderInstancesEntry_msginit, 
                       _envoy_config_bootstrap_v3_Bootstrap_DynamicResources_msginit, 
                       _envoy_config_bootstrap_v3_Bootstrap_StaticResources_msginit, 
                       _envoy_config_bootstrap_v3_Bootstrap_msginit, _envoy_config_bootstrap_v3_ClusterManager_OutlierDetection_msginit, 
                       _envoy_config_bootstrap_v3_ClusterManager_msginit, _envoy_config_bootstrap_v3_CustomInlineHeader_msginit, 
                       _envoy_config_bootstrap_v3_FatalAction_msginit, _envoy_config_bootstrap_v3_LayeredRuntime_msginit, 
                       _envoy_config_bootstrap_v3_RuntimeLayer_AdminLayer_msginit, 
                       _envoy_config_bootstrap_v3_RuntimeLayer_DiskLayer_msginit, 
                       _envoy_config_bootstrap_v3_RuntimeLayer_RtdsLayer_msginit, 
                       _envoy_config_bootstrap_v3_RuntimeLayer_msginit, _envoy_config_bootstrap_v3_Runtime_msginit, 
                       _envoy_config_bootstrap_v3_Watchdog_WatchdogAction_msginit, 
                       _envoy_config_bootstrap_v3_Watchdog_msginit, _envoy_config_bootstrap_v3_Watchdogs_msginit, 
                       _envoy_config_bootstrap_v3_bootstrap_proto_upb_file_layout, 
                       _envoy_config_bootstrap_v3_bootstrap_proto_upbdefinit, _envoy_config_cluster_v3_CircuitBreakers_Thresholds_RetryBudget_msginit, 
                       _envoy_config_cluster_v3_CircuitBreakers_Thresholds_msginit, 
                       _envoy_config_cluster_v3_CircuitBreakers_msginit, _envoy_config_cluster_v3_ClusterCollection_msginit, 
                       _envoy_config_cluster_v3_Cluster_CommonLbConfig_ConsistentHashingLbConfig_msginit, 
                       _envoy_config_cluster_v3_Cluster_CommonLbConfig_LocalityWeightedLbConfig_msginit, 
                       _envoy_config_cluster_v3_Cluster_CommonLbConfig_ZoneAwareLbConfig_msginit, 
                       _envoy_config_cluster_v3_Cluster_CommonLbConfig_msginit, _envoy_config_cluster_v3_Cluster_CustomClusterType_msginit, 
                       _envoy_config_cluster_v3_Cluster_EdsClusterConfig_msginit, 
                       _envoy_config_cluster_v3_Cluster_LbSubsetConfig_LbSubsetSelector_msginit, 
                       _envoy_config_cluster_v3_Cluster_LbSubsetConfig_msginit, _envoy_config_cluster_v3_Cluster_LeastRequestLbConfig_msginit, 
                       _envoy_config_cluster_v3_Cluster_MaglevLbConfig_msginit, _envoy_config_cluster_v3_Cluster_OriginalDstLbConfig_msginit, 
                       _envoy_config_cluster_v3_Cluster_PreconnectPolicy_msginit, 
                       _envoy_config_cluster_v3_Cluster_RefreshRate_msginit, _envoy_config_cluster_v3_Cluster_RingHashLbConfig_msginit, 
                       _envoy_config_cluster_v3_Cluster_RoundRobinLbConfig_msginit, 
                       _envoy_config_cluster_v3_Cluster_SlowStartConfig_msginit, 
                       _envoy_config_cluster_v3_Cluster_TransportSocketMatch_msginit, 
                       _envoy_config_cluster_v3_Cluster_TypedExtensionProtocolOptionsEntry_msginit, 
                       _envoy_config_cluster_v3_Cluster_msginit, _envoy_config_cluster_v3_Filter_msginit, 
                       _envoy_config_cluster_v3_LoadBalancingPolicy_Policy_msginit, 
                       _envoy_config_cluster_v3_LoadBalancingPolicy_msginit, _envoy_config_cluster_v3_OutlierDetection_msginit, 
                       _envoy_config_cluster_v3_TrackClusterStats_msginit, _envoy_config_cluster_v3_UpstreamBindConfig_msginit, 
                       _envoy_config_cluster_v3_UpstreamConnectionOptions_msginit, 
                       _envoy_config_cluster_v3_circuit_breaker_proto_upb_file_layout, 
                       _envoy_config_cluster_v3_circuit_breaker_proto_upbdefinit, 
                       _envoy_config_cluster_v3_cluster_proto_upb_file_layout, _envoy_config_cluster_v3_cluster_proto_upbdefinit, 
                       _envoy_config_cluster_v3_filter_proto_upb_file_layout, _envoy_config_cluster_v3_filter_proto_upbdefinit, 
                       _envoy_config_cluster_v3_outlier_detection_proto_upb_file_layout, 
                       _envoy_config_cluster_v3_outlier_detection_proto_upbdefinit, 
                       _envoy_config_core_v3_Address_msginit, _envoy_config_core_v3_AggregatedConfigSource_msginit, 
                       _envoy_config_core_v3_AlternateProtocolsCacheOptions_msginit, 
                       _envoy_config_core_v3_ApiConfigSource_msginit, _envoy_config_core_v3_AsyncDataSource_msginit, 
                       _envoy_config_core_v3_BackoffStrategy_msginit, _envoy_config_core_v3_BindConfig_msginit, 
                       _envoy_config_core_v3_BuildVersion_msginit, _envoy_config_core_v3_CidrRange_msginit, 
                       _envoy_config_core_v3_ConfigSource_msginit, _envoy_config_core_v3_ControlPlane_msginit, 
                       _envoy_config_core_v3_DataSource_msginit, _envoy_config_core_v3_DnsResolutionConfig_msginit, 
                       _envoy_config_core_v3_DnsResolverOptions_msginit, _envoy_config_core_v3_EnvoyInternalAddress_msginit, 
                       _envoy_config_core_v3_EventServiceConfig_msginit, _envoy_config_core_v3_ExtensionConfigSource_msginit, 
                       _envoy_config_core_v3_Extension_msginit, _envoy_config_core_v3_GrpcProtocolOptions_msginit, 
                       _envoy_config_core_v3_GrpcService_EnvoyGrpc_msginit, _envoy_config_core_v3_GrpcService_GoogleGrpc_CallCredentials_GoogleIAMCredentials_msginit, 
                       _envoy_config_core_v3_GrpcService_GoogleGrpc_CallCredentials_MetadataCredentialsFromPlugin_msginit, 
                       _envoy_config_core_v3_GrpcService_GoogleGrpc_CallCredentials_ServiceAccountJWTAccessCredentials_msginit, 
                       _envoy_config_core_v3_GrpcService_GoogleGrpc_CallCredentials_StsService_msginit, 
                       _envoy_config_core_v3_GrpcService_GoogleGrpc_CallCredentials_msginit, 
                       _envoy_config_core_v3_GrpcService_GoogleGrpc_ChannelArgs_ArgsEntry_msginit, 
                       _envoy_config_core_v3_GrpcService_GoogleGrpc_ChannelArgs_Value_msginit, 
                       _envoy_config_core_v3_GrpcService_GoogleGrpc_ChannelArgs_msginit, 
                       _envoy_config_core_v3_GrpcService_GoogleGrpc_ChannelCredentials_msginit, 
                       _envoy_config_core_v3_GrpcService_GoogleGrpc_GoogleLocalCredentials_msginit, 
                       _envoy_config_core_v3_GrpcService_GoogleGrpc_SslCredentials_msginit, 
                       _envoy_config_core_v3_GrpcService_GoogleGrpc_msginit, _envoy_config_core_v3_GrpcService_msginit, 
                       _envoy_config_core_v3_HeaderMap_msginit, _envoy_config_core_v3_HeaderValueOption_msginit, 
                       _envoy_config_core_v3_HeaderValue_msginit, _envoy_config_core_v3_HealthCheck_CustomHealthCheck_msginit, 
                       _envoy_config_core_v3_HealthCheck_GrpcHealthCheck_msginit, 
                       _envoy_config_core_v3_HealthCheck_HttpHealthCheck_msginit, 
                       _envoy_config_core_v3_HealthCheck_Payload_msginit, _envoy_config_core_v3_HealthCheck_RedisHealthCheck_msginit, 
                       _envoy_config_core_v3_HealthCheck_TcpHealthCheck_msginit, 
                       _envoy_config_core_v3_HealthCheck_TlsOptions_msginit, _envoy_config_core_v3_HealthCheck_msginit, 
                       _envoy_config_core_v3_Http1ProtocolOptions_HeaderKeyFormat_ProperCaseWords_msginit, 
                       _envoy_config_core_v3_Http1ProtocolOptions_HeaderKeyFormat_msginit, 
                       _envoy_config_core_v3_Http1ProtocolOptions_msginit, _envoy_config_core_v3_Http2ProtocolOptions_SettingsParameter_msginit, 
                       _envoy_config_core_v3_Http2ProtocolOptions_msginit, _envoy_config_core_v3_Http3ProtocolOptions_msginit, 
                       _envoy_config_core_v3_HttpProtocolOptions_msginit, _envoy_config_core_v3_HttpUri_msginit, 
                       _envoy_config_core_v3_KeepaliveSettings_msginit, _envoy_config_core_v3_Locality_msginit, 
                       _envoy_config_core_v3_Metadata_FilterMetadataEntry_msginit, 
                       _envoy_config_core_v3_Metadata_TypedFilterMetadataEntry_msginit, 
                       _envoy_config_core_v3_Metadata_msginit, _envoy_config_core_v3_Node_DynamicParametersEntry_msginit, 
                       _envoy_config_core_v3_Node_msginit, _envoy_config_core_v3_Pipe_msginit, 
                       _envoy_config_core_v3_ProxyProtocolConfig_msginit, _envoy_config_core_v3_QueryParameter_msginit, 
                       _envoy_config_core_v3_QuicProtocolOptions_msginit, _envoy_config_core_v3_RateLimitSettings_msginit, 
                       _envoy_config_core_v3_RemoteDataSource_msginit, _envoy_config_core_v3_RetryPolicy_msginit, 
                       _envoy_config_core_v3_RuntimeDouble_msginit, _envoy_config_core_v3_RuntimeFeatureFlag_msginit, 
                       _envoy_config_core_v3_RuntimeFractionalPercent_msginit, _envoy_config_core_v3_RuntimePercent_msginit, 
                       _envoy_config_core_v3_RuntimeUInt32_msginit, _envoy_config_core_v3_SchemeHeaderTransformation_msginit, 
                       _envoy_config_core_v3_SelfConfigSource_msginit, _envoy_config_core_v3_SocketAddress_msginit, 
                       _envoy_config_core_v3_SocketOption_msginit, _envoy_config_core_v3_SubstitutionFormatString_msginit, 
                       _envoy_config_core_v3_TcpKeepalive_msginit, _envoy_config_core_v3_TcpProtocolOptions_msginit, 
                       _envoy_config_core_v3_TransportSocket_msginit, _envoy_config_core_v3_TypedExtensionConfig_msginit, 
                       _envoy_config_core_v3_UdpSocketConfig_msginit, _envoy_config_core_v3_UpstreamHttpProtocolOptions_msginit, 
                       _envoy_config_core_v3_WatchedDirectory_msginit, _envoy_config_core_v3_address_proto_upb_file_layout, 
                       _envoy_config_core_v3_address_proto_upbdefinit, _envoy_config_core_v3_backoff_proto_upb_file_layout, 
                       _envoy_config_core_v3_backoff_proto_upbdefinit, _envoy_config_core_v3_base_proto_upb_file_layout, 
                       _envoy_config_core_v3_base_proto_upbdefinit, _envoy_config_core_v3_config_source_proto_upb_file_layout, 
                       _envoy_config_core_v3_config_source_proto_upbdefinit, _envoy_config_core_v3_event_service_config_proto_upb_file_layout, 
                       _envoy_config_core_v3_event_service_config_proto_upbdefinit, 
                       _envoy_config_core_v3_extension_proto_upb_file_layout, _envoy_config_core_v3_extension_proto_upbdefinit, 
                       _envoy_config_core_v3_grpc_service_proto_upb_file_layout, 
                       _envoy_config_core_v3_grpc_service_proto_upbdefinit, _envoy_config_core_v3_health_check_proto_upb_file_layout, 
                       _envoy_config_core_v3_health_check_proto_upbdefinit, _envoy_config_core_v3_http_uri_proto_upb_file_layout, 
                       _envoy_config_core_v3_http_uri_proto_upbdefinit, _envoy_config_core_v3_protocol_proto_upb_file_layout, 
                       _envoy_config_core_v3_protocol_proto_upbdefinit, _envoy_config_core_v3_proxy_protocol_proto_upb_file_layout, 
                       _envoy_config_core_v3_proxy_protocol_proto_upbdefinit, _envoy_config_core_v3_resolver_proto_upb_file_layout, 
                       _envoy_config_core_v3_resolver_proto_upbdefinit, _envoy_config_core_v3_socket_option_proto_upb_file_layout, 
                       _envoy_config_core_v3_socket_option_proto_upbdefinit, _envoy_config_core_v3_substitution_format_string_proto_upb_file_layout, 
                       _envoy_config_core_v3_substitution_format_string_proto_upbdefinit, 
                       _envoy_config_core_v3_udp_socket_config_proto_upb_file_layout, 
                       _envoy_config_core_v3_udp_socket_config_proto_upbdefinit, 
                       _envoy_config_endpoint_v3_ClusterLoadAssignment_NamedEndpointsEntry_msginit, 
                       _envoy_config_endpoint_v3_ClusterLoadAssignment_Policy_DropOverload_msginit, 
                       _envoy_config_endpoint_v3_ClusterLoadAssignment_Policy_msginit, 
                       _envoy_config_endpoint_v3_ClusterLoadAssignment_msginit, _envoy_config_endpoint_v3_ClusterStats_DroppedRequests_msginit, 
                       _envoy_config_endpoint_v3_ClusterStats_msginit, _envoy_config_endpoint_v3_EndpointLoadMetricStats_msginit, 
                       _envoy_config_endpoint_v3_Endpoint_HealthCheckConfig_msginit, 
                       _envoy_config_endpoint_v3_Endpoint_msginit, _envoy_config_endpoint_v3_LbEndpoint_msginit, 
                       _envoy_config_endpoint_v3_LedsClusterLocalityConfig_msginit, 
                       _envoy_config_endpoint_v3_LocalityLbEndpoints_LbEndpointList_msginit, 
                       _envoy_config_endpoint_v3_LocalityLbEndpoints_msginit, _envoy_config_endpoint_v3_UpstreamEndpointStats_msginit, 
                       _envoy_config_endpoint_v3_UpstreamLocalityStats_msginit, _envoy_config_endpoint_v3_endpoint_components_proto_upb_file_layout, 
                       _envoy_config_endpoint_v3_endpoint_components_proto_upbdefinit, 
                       _envoy_config_endpoint_v3_endpoint_proto_upb_file_layout, 
                       _envoy_config_endpoint_v3_endpoint_proto_upbdefinit, _envoy_config_endpoint_v3_load_report_proto_upb_file_layout, 
                       _envoy_config_endpoint_v3_load_report_proto_upbdefinit, _envoy_config_listener_v3_ActiveRawUdpListenerConfig_msginit, 
                       _envoy_config_listener_v3_ApiListener_msginit, _envoy_config_listener_v3_FilterChainMatch_msginit, 
                       _envoy_config_listener_v3_FilterChain_OnDemandConfiguration_msginit, 
                       _envoy_config_listener_v3_FilterChain_msginit, _envoy_config_listener_v3_Filter_msginit, 
                       _envoy_config_listener_v3_ListenerCollection_msginit, _envoy_config_listener_v3_ListenerFilterChainMatchPredicate_MatchSet_msginit, 
                       _envoy_config_listener_v3_ListenerFilterChainMatchPredicate_msginit, 
                       _envoy_config_listener_v3_ListenerFilter_msginit, _envoy_config_listener_v3_Listener_ConnectionBalanceConfig_ExactBalance_msginit, 
                       _envoy_config_listener_v3_Listener_ConnectionBalanceConfig_msginit, 
                       _envoy_config_listener_v3_Listener_DeprecatedV1_msginit, _envoy_config_listener_v3_Listener_InternalListenerConfig_msginit, 
                       _envoy_config_listener_v3_Listener_msginit, _envoy_config_listener_v3_QuicProtocolOptions_msginit, 
                       _envoy_config_listener_v3_UdpListenerConfig_msginit, _envoy_config_listener_v3_api_listener_proto_upb_file_layout, 
                       _envoy_config_listener_v3_api_listener_proto_upbdefinit, _envoy_config_listener_v3_listener_components_proto_upb_file_layout, 
                       _envoy_config_listener_v3_listener_components_proto_upbdefinit, 
                       _envoy_config_listener_v3_listener_proto_upb_file_layout, 
                       _envoy_config_listener_v3_listener_proto_upbdefinit, _envoy_config_listener_v3_quic_config_proto_upb_file_layout, 
                       _envoy_config_listener_v3_quic_config_proto_upbdefinit, _envoy_config_listener_v3_udp_listener_config_proto_upb_file_layout, 
                       _envoy_config_listener_v3_udp_listener_config_proto_upbdefinit, 
                       _envoy_config_metrics_v3_DogStatsdSink_msginit, _envoy_config_metrics_v3_HistogramBucketSettings_msginit, 
                       _envoy_config_metrics_v3_HystrixSink_msginit, _envoy_config_metrics_v3_StatsConfig_msginit, 
                       _envoy_config_metrics_v3_StatsMatcher_msginit, _envoy_config_metrics_v3_StatsSink_msginit, 
                       _envoy_config_metrics_v3_StatsdSink_msginit, _envoy_config_metrics_v3_TagSpecifier_msginit, 
                       _envoy_config_metrics_v3_stats_proto_upb_file_layout, _envoy_config_metrics_v3_stats_proto_upbdefinit, 
                       _envoy_config_overload_v3_BufferFactoryConfig_msginit, _envoy_config_overload_v3_OverloadAction_msginit, 
                       _envoy_config_overload_v3_OverloadManager_msginit, _envoy_config_overload_v3_ResourceMonitor_msginit, 
                       _envoy_config_overload_v3_ScaleTimersOverloadActionConfig_ScaleTimer_msginit, 
                       _envoy_config_overload_v3_ScaleTimersOverloadActionConfig_msginit, 
                       _envoy_config_overload_v3_ScaledTrigger_msginit, _envoy_config_overload_v3_ThresholdTrigger_msginit, 
                       _envoy_config_overload_v3_Trigger_msginit, _envoy_config_overload_v3_overload_proto_upb_file_layout, 
                       _envoy_config_overload_v3_overload_proto_upbdefinit, _envoy_config_rbac_v3_Permission_Set_msginit, 
                       _envoy_config_rbac_v3_Permission_msginit, _envoy_config_rbac_v3_Policy_msginit, 
                       _envoy_config_rbac_v3_Principal_Authenticated_msginit, _envoy_config_rbac_v3_Principal_Set_msginit, 
                       _envoy_config_rbac_v3_Principal_msginit, _envoy_config_rbac_v3_RBAC_PoliciesEntry_msginit, 
                       _envoy_config_rbac_v3_RBAC_msginit, _envoy_config_rbac_v3_rbac_proto_upb_file_layout, 
                       _envoy_config_rbac_v3_rbac_proto_upbdefinit, _envoy_config_route_v3_ClusterSpecifierPlugin_msginit, 
                       _envoy_config_route_v3_CorsPolicy_msginit, _envoy_config_route_v3_Decorator_msginit, 
                       _envoy_config_route_v3_DirectResponseAction_msginit, _envoy_config_route_v3_FilterAction_msginit, 
                       _envoy_config_route_v3_FilterConfig_msginit, _envoy_config_route_v3_HeaderMatcher_msginit, 
                       _envoy_config_route_v3_HedgePolicy_msginit, _envoy_config_route_v3_InternalRedirectPolicy_msginit, 
                       _envoy_config_route_v3_NonForwardingAction_msginit, _envoy_config_route_v3_QueryParameterMatcher_msginit, 
                       _envoy_config_route_v3_RateLimit_Action_DestinationCluster_msginit, 
                       _envoy_config_route_v3_RateLimit_Action_DynamicMetaData_msginit, 
                       _envoy_config_route_v3_RateLimit_Action_GenericKey_msginit, 
                       _envoy_config_route_v3_RateLimit_Action_HeaderValueMatch_msginit, 
                       _envoy_config_route_v3_RateLimit_Action_MetaData_msginit, 
                       _envoy_config_route_v3_RateLimit_Action_RemoteAddress_msginit, 
                       _envoy_config_route_v3_RateLimit_Action_RequestHeaders_msginit, 
                       _envoy_config_route_v3_RateLimit_Action_SourceCluster_msginit, 
                       _envoy_config_route_v3_RateLimit_Action_msginit, _envoy_config_route_v3_RateLimit_Override_DynamicMetadata_msginit, 
                       _envoy_config_route_v3_RateLimit_Override_msginit, _envoy_config_route_v3_RateLimit_msginit, 
                       _envoy_config_route_v3_RedirectAction_msginit, _envoy_config_route_v3_RetryPolicy_RateLimitedRetryBackOff_msginit, 
                       _envoy_config_route_v3_RetryPolicy_ResetHeader_msginit, _envoy_config_route_v3_RetryPolicy_RetryBackOff_msginit, 
                       _envoy_config_route_v3_RetryPolicy_RetryHostPredicate_msginit, 
                       _envoy_config_route_v3_RetryPolicy_RetryPriority_msginit, 
                       _envoy_config_route_v3_RetryPolicy_msginit, _envoy_config_route_v3_RouteAction_HashPolicy_ConnectionProperties_msginit, 
                       _envoy_config_route_v3_RouteAction_HashPolicy_Cookie_msginit, 
                       _envoy_config_route_v3_RouteAction_HashPolicy_FilterState_msginit, 
                       _envoy_config_route_v3_RouteAction_HashPolicy_Header_msginit, 
                       _envoy_config_route_v3_RouteAction_HashPolicy_QueryParameter_msginit, 
                       _envoy_config_route_v3_RouteAction_HashPolicy_msginit, _envoy_config_route_v3_RouteAction_MaxStreamDuration_msginit, 
                       _envoy_config_route_v3_RouteAction_RequestMirrorPolicy_msginit, 
                       _envoy_config_route_v3_RouteAction_UpgradeConfig_ConnectConfig_msginit, 
                       _envoy_config_route_v3_RouteAction_UpgradeConfig_msginit, 
                       _envoy_config_route_v3_RouteAction_msginit, _envoy_config_route_v3_RouteConfiguration_msginit, 
                       _envoy_config_route_v3_RouteMatch_ConnectMatcher_msginit, 
                       _envoy_config_route_v3_RouteMatch_GrpcRouteMatchOptions_msginit, 
                       _envoy_config_route_v3_RouteMatch_TlsContextMatchOptions_msginit, 
                       _envoy_config_route_v3_RouteMatch_msginit, _envoy_config_route_v3_Route_TypedPerFilterConfigEntry_msginit, 
                       _envoy_config_route_v3_Route_msginit, _envoy_config_route_v3_ScopedRouteConfiguration_Key_Fragment_msginit, 
                       _envoy_config_route_v3_ScopedRouteConfiguration_Key_msginit, 
                       _envoy_config_route_v3_ScopedRouteConfiguration_msginit, _envoy_config_route_v3_Tracing_msginit, 
                       _envoy_config_route_v3_Vhds_msginit, _envoy_config_route_v3_VirtualCluster_msginit, 
                       _envoy_config_route_v3_VirtualHost_TypedPerFilterConfigEntry_msginit, 
                       _envoy_config_route_v3_VirtualHost_msginit, _envoy_config_route_v3_WeightedCluster_ClusterWeight_TypedPerFilterConfigEntry_msginit, 
                       _envoy_config_route_v3_WeightedCluster_ClusterWeight_msginit, 
                       _envoy_config_route_v3_WeightedCluster_msginit, _envoy_config_route_v3_route_components_proto_upb_file_layout, 
                       _envoy_config_route_v3_route_components_proto_upbdefinit, 
                       _envoy_config_route_v3_route_proto_upb_file_layout, _envoy_config_route_v3_route_proto_upbdefinit, 
                       _envoy_config_route_v3_scoped_route_proto_upb_file_layout, 
                       _envoy_config_route_v3_scoped_route_proto_upbdefinit, _envoy_config_trace_v3_Tracing_Http_msginit, 
                       _envoy_config_trace_v3_Tracing_msginit, _envoy_config_trace_v3_http_tracer_proto_upb_file_layout, 
                       _envoy_config_trace_v3_http_tracer_proto_upbdefinit, _envoy_extensions_clusters_aggregate_v3_ClusterConfig_msginit, 
                       _envoy_extensions_clusters_aggregate_v3_cluster_proto_upb_file_layout, 
                       _envoy_extensions_clusters_aggregate_v3_cluster_proto_upbdefinit, 
                       _envoy_extensions_filters_common_fault_v3_FaultDelay_HeaderDelay_msginit, 
                       _envoy_extensions_filters_common_fault_v3_FaultDelay_msginit, 
                       _envoy_extensions_filters_common_fault_v3_FaultRateLimit_FixedLimit_msginit, 
                       _envoy_extensions_filters_common_fault_v3_FaultRateLimit_HeaderLimit_msginit, 
                       _envoy_extensions_filters_common_fault_v3_FaultRateLimit_msginit, 
                       _envoy_extensions_filters_common_fault_v3_fault_proto_upb_file_layout, 
                       _envoy_extensions_filters_common_fault_v3_fault_proto_upbdefinit, 
                       _envoy_extensions_filters_http_fault_v3_FaultAbort_HeaderAbort_msginit, 
                       _envoy_extensions_filters_http_fault_v3_FaultAbort_msginit, 
                       _envoy_extensions_filters_http_fault_v3_HTTPFault_msginit, 
                       _envoy_extensions_filters_http_fault_v3_fault_proto_upb_file_layout, 
                       _envoy_extensions_filters_http_fault_v3_fault_proto_upbdefinit, 
                       _envoy_extensions_filters_http_rbac_v3_RBACPerRoute_msginit, 
                       _envoy_extensions_filters_http_rbac_v3_RBAC_msginit, _envoy_extensions_filters_http_rbac_v3_rbac_proto_upb_file_layout, 
                       _envoy_extensions_filters_http_rbac_v3_rbac_proto_upbdefinit, 
                       _envoy_extensions_filters_http_router_v3_Router_msginit, _envoy_extensions_filters_http_router_v3_router_proto_upb_file_layout, 
                       _envoy_extensions_filters_http_router_v3_router_proto_upbdefinit, 
                       _envoy_extensions_filters_network_http_connection_manager_v3_EnvoyMobileHttpConnectionManager_msginit, 
                       _envoy_extensions_filters_network_http_connection_manager_v3_HttpConnectionManager_InternalAddressConfig_msginit, 
                       _envoy_extensions_filters_network_http_connection_manager_v3_HttpConnectionManager_PathNormalizationOptions_msginit, 
                       _envoy_extensions_filters_network_http_connection_manager_v3_HttpConnectionManager_SetCurrentClientCertDetails_msginit, 
                       _envoy_extensions_filters_network_http_connection_manager_v3_HttpConnectionManager_Tracing_msginit, 
                       _envoy_extensions_filters_network_http_connection_manager_v3_HttpConnectionManager_UpgradeConfig_msginit, 
                       _envoy_extensions_filters_network_http_connection_manager_v3_HttpConnectionManager_msginit, 
                       _envoy_extensions_filters_network_http_connection_manager_v3_HttpFilter_msginit, 
                       _envoy_extensions_filters_network_http_connection_manager_v3_LocalReplyConfig_msginit, 
                       _envoy_extensions_filters_network_http_connection_manager_v3_Rds_msginit, 
                       _envoy_extensions_filters_network_http_connection_manager_v3_RequestIDExtension_msginit, 
                       _envoy_extensions_filters_network_http_connection_manager_v3_ResponseMapper_msginit, 
                       _envoy_extensions_filters_network_http_connection_manager_v3_ScopedRds_msginit, 
                       _envoy_extensions_filters_network_http_connection_manager_v3_ScopedRouteConfigurationsList_msginit, 
                       _envoy_extensions_filters_network_http_connection_manager_v3_ScopedRoutes_ScopeKeyBuilder_FragmentBuilder_HeaderValueExtractor_KvElement_msginit, 
                       _envoy_extensions_filters_network_http_connection_manager_v3_ScopedRoutes_ScopeKeyBuilder_FragmentBuilder_HeaderValueExtractor_msginit, 
                       _envoy_extensions_filters_network_http_connection_manager_v3_ScopedRoutes_ScopeKeyBuilder_FragmentBuilder_msginit, 
                       _envoy_extensions_filters_network_http_connection_manager_v3_ScopedRoutes_ScopeKeyBuilder_msginit, 
                       _envoy_extensions_filters_network_http_connection_manager_v3_ScopedRoutes_msginit, 
                       _envoy_extensions_filters_network_http_connection_manager_v3_http_connection_manager_proto_upb_file_layout, 
                       _envoy_extensions_filters_network_http_connection_manager_v3_http_connection_manager_proto_upbdefinit, 
                       _envoy_extensions_transport_sockets_tls_v3_CertificateProviderPluginInstance_msginit, 
                       _envoy_extensions_transport_sockets_tls_v3_CertificateValidationContext_msginit, 
                       _envoy_extensions_transport_sockets_tls_v3_CommonTlsContext_CertificateProviderInstance_msginit, 
                       _envoy_extensions_transport_sockets_tls_v3_CommonTlsContext_CertificateProvider_msginit, 
                       _envoy_extensions_transport_sockets_tls_v3_CommonTlsContext_CombinedCertificateValidationContext_msginit, 
                       _envoy_extensions_transport_sockets_tls_v3_CommonTlsContext_msginit, 
                       _envoy_extensions_transport_sockets_tls_v3_DownstreamTlsContext_msginit, 
                       _envoy_extensions_transport_sockets_tls_v3_GenericSecret_msginit, 
                       _envoy_extensions_transport_sockets_tls_v3_PrivateKeyProvider_msginit, 
                       _envoy_extensions_transport_sockets_tls_v3_SdsSecretConfig_msginit, 
                       _envoy_extensions_transport_sockets_tls_v3_Secret_msginit, 
                       _envoy_extensions_transport_sockets_tls_v3_TlsCertificate_msginit, 
                       _envoy_extensions_transport_sockets_tls_v3_TlsParameters_msginit, 
                       _envoy_extensions_transport_sockets_tls_v3_TlsSessionTicketKeys_msginit, 
                       _envoy_extensions_transport_sockets_tls_v3_UpstreamTlsContext_msginit, 
                       _envoy_extensions_transport_sockets_tls_v3_cert_proto_upb_file_layout, 
                       _envoy_extensions_transport_sockets_tls_v3_cert_proto_upbdefinit, 
                       _envoy_extensions_transport_sockets_tls_v3_common_proto_upb_file_layout, 
                       _envoy_extensions_transport_sockets_tls_v3_common_proto_upbdefinit, 
                       _envoy_extensions_transport_sockets_tls_v3_secret_proto_upb_file_layout, 
                       _envoy_extensions_transport_sockets_tls_v3_secret_proto_upbdefinit, 
                       _envoy_extensions_transport_sockets_tls_v3_tls_proto_upb_file_layout, 
                       _envoy_extensions_transport_sockets_tls_v3_tls_proto_upbdefinit, 
                       _envoy_service_cluster_v3_CdsDummy_msginit, _envoy_service_cluster_v3_cds_proto_upb_file_layout, 
                       _envoy_service_cluster_v3_cds_proto_upbdefinit, _envoy_service_discovery_v3_AdsDummy_msginit, 
                       _envoy_service_discovery_v3_DeltaDiscoveryRequest_InitialResourceVersionsEntry_msginit, 
                       _envoy_service_discovery_v3_DeltaDiscoveryRequest_msginit, 
                       _envoy_service_discovery_v3_DeltaDiscoveryResponse_msginit, 
                       _envoy_service_discovery_v3_DiscoveryRequest_msginit, _envoy_service_discovery_v3_DiscoveryResponse_msginit, 
                       _envoy_service_discovery_v3_Resource_CacheControl_msginit, 
                       _envoy_service_discovery_v3_Resource_msginit, _envoy_service_discovery_v3_ads_proto_upb_file_layout, 
                       _envoy_service_discovery_v3_ads_proto_upbdefinit, _envoy_service_discovery_v3_discovery_proto_upb_file_layout, 
                       _envoy_service_discovery_v3_discovery_proto_upbdefinit, _envoy_service_endpoint_v3_EdsDummy_msginit, 
                       _envoy_service_endpoint_v3_eds_proto_upb_file_layout, _envoy_service_endpoint_v3_eds_proto_upbdefinit, 
                       _envoy_service_listener_v3_LdsDummy_msginit, _envoy_service_listener_v3_lds_proto_upb_file_layout, 
                       _envoy_service_listener_v3_lds_proto_upbdefinit, _envoy_service_load_stats_v3_LoadStatsRequest_msginit, 
                       _envoy_service_load_stats_v3_LoadStatsResponse_msginit, _envoy_service_load_stats_v3_lrs_proto_upb_file_layout, 
                       _envoy_service_load_stats_v3_lrs_proto_upbdefinit, _envoy_service_route_v3_RdsDummy_msginit, 
                       _envoy_service_route_v3_SrdsDummy_msginit, _envoy_service_route_v3_rds_proto_upb_file_layout, 
                       _envoy_service_route_v3_rds_proto_upbdefinit, _envoy_service_route_v3_srds_proto_upb_file_layout, 
                       _envoy_service_route_v3_srds_proto_upbdefinit, _envoy_service_status_v3_ClientConfig_GenericXdsConfig_msginit, 
                       _envoy_service_status_v3_ClientConfig_msginit, _envoy_service_status_v3_ClientStatusRequest_msginit, 
                       _envoy_service_status_v3_ClientStatusResponse_msginit, _envoy_service_status_v3_PerXdsConfig_msginit, 
                       _envoy_service_status_v3_csds_proto_upb_file_layout, _envoy_service_status_v3_csds_proto_upbdefinit, 
                       _envoy_type_http_v3_PathTransformation_Operation_MergeSlashes_msginit, 
                       _envoy_type_http_v3_PathTransformation_Operation_NormalizePathRFC3986_msginit, 
                       _envoy_type_http_v3_PathTransformation_Operation_msginit, 
                       _envoy_type_http_v3_PathTransformation_msginit, _envoy_type_http_v3_path_transformation_proto_upb_file_layout, 
                       _envoy_type_http_v3_path_transformation_proto_upbdefinit, 
                       _envoy_type_matcher_v3_DoubleMatcher_msginit, _envoy_type_matcher_v3_ListMatcher_msginit, 
                       _envoy_type_matcher_v3_ListStringMatcher_msginit, _envoy_type_matcher_v3_MetadataMatcher_PathSegment_msginit, 
                       _envoy_type_matcher_v3_MetadataMatcher_msginit, _envoy_type_matcher_v3_NodeMatcher_msginit, 
                       _envoy_type_matcher_v3_PathMatcher_msginit, _envoy_type_matcher_v3_RegexMatchAndSubstitute_msginit, 
                       _envoy_type_matcher_v3_RegexMatcher_GoogleRE2_msginit, _envoy_type_matcher_v3_RegexMatcher_msginit, 
                       _envoy_type_matcher_v3_StringMatcher_msginit, _envoy_type_matcher_v3_StructMatcher_PathSegment_msginit, 
                       _envoy_type_matcher_v3_StructMatcher_msginit, _envoy_type_matcher_v3_ValueMatcher_NullMatch_msginit, 
                       _envoy_type_matcher_v3_ValueMatcher_msginit, _envoy_type_matcher_v3_metadata_proto_upb_file_layout, 
                       _envoy_type_matcher_v3_metadata_proto_upbdefinit, _envoy_type_matcher_v3_node_proto_upb_file_layout, 
                       _envoy_type_matcher_v3_node_proto_upbdefinit, _envoy_type_matcher_v3_number_proto_upb_file_layout, 
                       _envoy_type_matcher_v3_number_proto_upbdefinit, _envoy_type_matcher_v3_path_proto_upb_file_layout, 
                       _envoy_type_matcher_v3_path_proto_upbdefinit, _envoy_type_matcher_v3_regex_proto_upb_file_layout, 
                       _envoy_type_matcher_v3_regex_proto_upbdefinit, _envoy_type_matcher_v3_string_proto_upb_file_layout, 
                       _envoy_type_matcher_v3_string_proto_upbdefinit, _envoy_type_matcher_v3_struct_proto_upb_file_layout, 
                       _envoy_type_matcher_v3_struct_proto_upbdefinit, _envoy_type_matcher_v3_value_proto_upb_file_layout, 
                       _envoy_type_matcher_v3_value_proto_upbdefinit, _envoy_type_metadata_v3_MetadataKey_PathSegment_msginit, 
                       _envoy_type_metadata_v3_MetadataKey_msginit, _envoy_type_metadata_v3_MetadataKind_Cluster_msginit, 
                       _envoy_type_metadata_v3_MetadataKind_Host_msginit, _envoy_type_metadata_v3_MetadataKind_Request_msginit, 
                       _envoy_type_metadata_v3_MetadataKind_Route_msginit, _envoy_type_metadata_v3_MetadataKind_msginit, 
                       _envoy_type_metadata_v3_metadata_proto_upb_file_layout, _envoy_type_metadata_v3_metadata_proto_upbdefinit, 
                       _envoy_type_tracing_v3_CustomTag_Environment_msginit, _envoy_type_tracing_v3_CustomTag_Header_msginit, 
                       _envoy_type_tracing_v3_CustomTag_Literal_msginit, _envoy_type_tracing_v3_CustomTag_Metadata_msginit, 
                       _envoy_type_tracing_v3_CustomTag_msginit, _envoy_type_tracing_v3_custom_tag_proto_upb_file_layout, 
                       _envoy_type_tracing_v3_custom_tag_proto_upbdefinit, _envoy_type_v3_DoubleRange_msginit, 
                       _envoy_type_v3_FractionalPercent_msginit, _envoy_type_v3_Int32Range_msginit, 
                       _envoy_type_v3_Int64Range_msginit, _envoy_type_v3_Percent_msginit, 
                       _envoy_type_v3_SemanticVersion_msginit, _envoy_type_v3_http_proto_upb_file_layout, 
                       _envoy_type_v3_http_proto_upbdefinit, _envoy_type_v3_percent_proto_upb_file_layout, 
                       _envoy_type_v3_percent_proto_upbdefinit, _envoy_type_v3_range_proto_upb_file_layout, 
                       _envoy_type_v3_range_proto_upbdefinit, _envoy_type_v3_semantic_version_proto_upb_file_layout, 
                       _envoy_type_v3_semantic_version_proto_upbdefinit, _fastdecode_err, 
                       _fastdecode_generic, _field_rank, _g_custom_iomgr_enabled, 
                       _g_flow_control_enabled, _g_init_thread, _getjsonname, _google_api_CustomHttpPattern_msginit, 
                       _google_api_HttpRule_msginit, _google_api_Http_msginit, _google_api_annotations_proto_upb_file_layout, 
                       _google_api_annotations_proto_upbdefinit, _google_api_expr_v1alpha1_CheckedExpr_ReferenceMapEntry_msginit, 
                       _google_api_expr_v1alpha1_CheckedExpr_TypeMapEntry_msginit, 
                       _google_api_expr_v1alpha1_CheckedExpr_msginit, _google_api_expr_v1alpha1_Constant_msginit, 
                       _google_api_expr_v1alpha1_Decl_FunctionDecl_Overload_msginit, 
                       _google_api_expr_v1alpha1_Decl_FunctionDecl_msginit, _google_api_expr_v1alpha1_Decl_IdentDecl_msginit, 
                       _google_api_expr_v1alpha1_Decl_msginit, _google_api_expr_v1alpha1_EnumValue_msginit, 
                       _google_api_expr_v1alpha1_ErrorSet_msginit, _google_api_expr_v1alpha1_EvalState_Result_msginit, 
                       _google_api_expr_v1alpha1_EvalState_msginit, _google_api_expr_v1alpha1_Explain_ExprStep_msginit, 
                       _google_api_expr_v1alpha1_Explain_msginit, _google_api_expr_v1alpha1_ExprValue_msginit, 
                       _google_api_expr_v1alpha1_Expr_Call_msginit, _google_api_expr_v1alpha1_Expr_Comprehension_msginit, 
                       _google_api_expr_v1alpha1_Expr_CreateList_msginit, _google_api_expr_v1alpha1_Expr_CreateStruct_Entry_msginit, 
                       _google_api_expr_v1alpha1_Expr_CreateStruct_msginit, _google_api_expr_v1alpha1_Expr_Ident_msginit, 
                       _google_api_expr_v1alpha1_Expr_Select_msginit, _google_api_expr_v1alpha1_Expr_msginit, 
                       _google_api_expr_v1alpha1_ListValue_msginit, _google_api_expr_v1alpha1_MapValue_Entry_msginit, 
                       _google_api_expr_v1alpha1_MapValue_msginit, _google_api_expr_v1alpha1_ParsedExpr_msginit, 
                       _google_api_expr_v1alpha1_Reference_msginit, _google_api_expr_v1alpha1_SourceInfo_MacroCallsEntry_msginit, 
                       _google_api_expr_v1alpha1_SourceInfo_PositionsEntry_msginit, 
                       _google_api_expr_v1alpha1_SourceInfo_msginit, _google_api_expr_v1alpha1_SourcePosition_msginit, 
                       _google_api_expr_v1alpha1_Type_AbstractType_msginit, _google_api_expr_v1alpha1_Type_FunctionType_msginit, 
                       _google_api_expr_v1alpha1_Type_ListType_msginit, _google_api_expr_v1alpha1_Type_MapType_msginit, 
                       _google_api_expr_v1alpha1_Type_msginit, _google_api_expr_v1alpha1_UnknownSet_msginit, 
                       _google_api_expr_v1alpha1_Value_msginit, _google_api_expr_v1alpha1_checked_proto_upb_file_layout, 
                       _google_api_expr_v1alpha1_checked_proto_upbdefinit, _google_api_expr_v1alpha1_eval_proto_upb_file_layout, 
                       _google_api_expr_v1alpha1_eval_proto_upbdefinit, _google_api_expr_v1alpha1_explain_proto_upb_file_layout, 
                       _google_api_expr_v1alpha1_explain_proto_upbdefinit, _google_api_expr_v1alpha1_syntax_proto_upb_file_layout, 
                       _google_api_expr_v1alpha1_syntax_proto_upbdefinit, _google_api_expr_v1alpha1_value_proto_upb_file_layout, 
                       _google_api_expr_v1alpha1_value_proto_upbdefinit, _google_api_http_ext, 
                       _google_api_http_proto_upb_file_layout, _google_api_http_proto_upbdefinit, 
                       _google_protobuf_Any_msginit, _google_protobuf_BoolValue_msginit, 
                       _google_protobuf_BytesValue_msginit, _google_protobuf_DescriptorProto_ExtensionRange_msginit, 
                       _google_protobuf_DescriptorProto_ReservedRange_msginit, _google_protobuf_DescriptorProto_msginit, 
                       _google_protobuf_DoubleValue_msginit, _google_protobuf_Duration_msginit, 
                       _google_protobuf_Empty_msginit, _google_protobuf_EnumDescriptorProto_EnumReservedRange_msginit, 
                       _google_protobuf_EnumDescriptorProto_msginit, _google_protobuf_EnumOptions_msginit, 
                       _google_protobuf_EnumValueDescriptorProto_msginit, _google_protobuf_EnumValueOptions_msginit, 
                       _google_protobuf_ExtensionRangeOptions_msginit, _google_protobuf_FieldDescriptorProto_msginit, 
                       _google_protobuf_FieldOptions_msginit, _google_protobuf_FileDescriptorProto_msginit, 
                       _google_protobuf_FileDescriptorSet_msginit, _google_protobuf_FileOptions_msginit, 
                       _google_protobuf_FloatValue_msginit, _google_protobuf_GeneratedCodeInfo_Annotation_msginit, 
                       _google_protobuf_GeneratedCodeInfo_msginit, _google_protobuf_Int32Value_msginit, 
                       _google_protobuf_Int64Value_msginit, _google_protobuf_ListValue_msginit, 
                       _google_protobuf_MessageOptions_msginit, _google_protobuf_MethodDescriptorProto_msginit, 
                       _google_protobuf_MethodOptions_msginit, _google_protobuf_OneofDescriptorProto_msginit, 
                       _google_protobuf_OneofOptions_msginit, _google_protobuf_ServiceDescriptorProto_msginit, 
                       _google_protobuf_ServiceOptions_msginit, _google_protobuf_SourceCodeInfo_Location_msginit, 
                       _google_protobuf_SourceCodeInfo_msginit, _google_protobuf_StringValue_msginit, 
                       _google_protobuf_Struct_FieldsEntry_msginit, _google_protobuf_Struct_msginit, 
                       _google_protobuf_Timestamp_msginit, _google_protobuf_UInt32Value_msginit, 
                       _google_protobuf_UInt64Value_msginit, _google_protobuf_UninterpretedOption_NamePart_msginit, 
                       _google_protobuf_UninterpretedOption_msginit, _google_protobuf_Value_msginit, 
                       _google_protobuf_any_proto_upb_file_layout, _google_protobuf_any_proto_upbdefinit, 
                       _google_protobuf_descriptor_proto_upb_file_layout, _google_protobuf_descriptor_proto_upbdefinit, 
                       _google_protobuf_duration_proto_upb_file_layout, _google_protobuf_duration_proto_upbdefinit, 
                       _google_protobuf_empty_proto_upb_file_layout, _google_protobuf_empty_proto_upbdefinit, 
                       _google_protobuf_struct_proto_upb_file_layout, _google_protobuf_struct_proto_upbdefinit, 
                       _google_protobuf_timestamp_proto_upb_file_layout, _google_protobuf_timestamp_proto_upbdefinit, 
                       _google_protobuf_wrappers_proto_upb_file_layout, _google_protobuf_wrappers_proto_upbdefinit, 
                       _google_rpc_Status_msginit, _google_rpc_status_proto_upb_file_layout, 
                       _google_rpc_status_proto_upbdefinit, _gpr_asprintf, _gpr_atm_no_barrier_clamped_add, 
                       _gpr_convert_clock_type, _gpr_cpu_current_cpu, _gpr_cpu_num_cores, 
                       _gpr_cv_broadcast, _gpr_cv_destroy, _gpr_cv_init, _gpr_cv_signal, 
                       _gpr_cv_wait, _gpr_event_get, _gpr_event_init, _gpr_event_set, 
                       _gpr_event_wait, _gpr_free, _gpr_free_aligned, _gpr_inf_future, 
                       _gpr_inf_past, _gpr_log, _gpr_log_message, _gpr_log_severity_string, 
                       _gpr_log_verbosity_init, _gpr_malloc, _gpr_malloc_aligned, 
                       _gpr_mu_destroy, _gpr_mu_init, _gpr_mu_lock, _gpr_mu_trylock, 
                       _gpr_mu_unlock, _gpr_now, _gpr_now_impl, _gpr_once_init, _gpr_realloc, 
                       _gpr_ref, _gpr_ref_init, _gpr_ref_is_unique, _gpr_ref_non_zero, 
                       _gpr_refn, _gpr_set_log_function, _gpr_set_log_verbosity, 
                       _gpr_should_log, _gpr_sleep_until, _gpr_stats_inc, _gpr_stats_init, 
                       _gpr_stats_read, _gpr_strdup, _gpr_thd_currentid, _gpr_time_0, 
                       _gpr_time_add, _gpr_time_cmp, _gpr_time_from_hours, _gpr_time_from_micros, 
                       _gpr_time_from_millis, _gpr_time_from_minutes, _gpr_time_from_nanos, 
                       _gpr_time_from_seconds, _gpr_time_init, _gpr_time_max, _gpr_time_min, 
                       _gpr_time_similar, _gpr_time_sub, _gpr_time_to_millis, _gpr_timespec_to_micros, 
                       _gpr_unref, _gpr_zalloc, _grpcVersionNumber, _grpcVersionString, 
                       _grpc_access_token_credentials_create, _grpc_allow_pipe_wakeup_fd, 
                       _grpc_allow_specialized_wakeup_fd, _grpc_alts_credentials_client_options_add_target_service_account, 
                       _grpc_alts_credentials_client_options_create, _grpc_alts_credentials_create, 
                       _grpc_alts_credentials_options_destroy, _grpc_alts_credentials_server_options_create, 
                       _grpc_alts_server_credentials_create, _grpc_api_trace, _grpc_auth_context_add_cstring_property, 
                       _grpc_auth_context_add_property, _grpc_auth_context_find_properties_by_name, 
                       _grpc_auth_context_peer_identity, _grpc_auth_context_peer_identity_property_name, 
                       _grpc_auth_context_peer_is_authenticated, _grpc_auth_context_property_iterator, 
                       _grpc_auth_context_release, _grpc_auth_context_set_peer_identity_property_name, 
                       _grpc_auth_metadata_context_copy, _grpc_auth_metadata_context_reset, 
                       _grpc_auth_property_iterator_next, _grpc_authorization_policy_provider_arg_vtable, 
                       _grpc_bdp_estimator_trace, _grpc_byte_buffer_copy, _grpc_byte_buffer_destroy, 
                       _grpc_byte_buffer_length, _grpc_byte_buffer_reader_destroy, 
                       _grpc_byte_buffer_reader_init, _grpc_byte_buffer_reader_next, 
                       _grpc_byte_buffer_reader_peek, _grpc_byte_buffer_reader_readall, 
                       _grpc_call_arena_alloc, _grpc_call_auth_context, _grpc_call_cancel, 
                       _grpc_call_cancel_with_status, _grpc_call_credentials_release, 
                       _grpc_call_details_destroy, _grpc_call_details_init, _grpc_call_error_to_string, 
                       _grpc_call_error_trace, _grpc_call_failed_before_recv_message, 
                       _grpc_call_get_peer, _grpc_call_ref, _grpc_call_set_credentials, 
                       _grpc_call_start_batch, _grpc_call_unref, _grpc_census_call_get_context, 
                       _grpc_census_call_set_context, _grpc_channel_check_connectivity_state, 
                       _grpc_channel_create_call, _grpc_channel_create_registered_call, 
                       _grpc_channel_credentials_release, _grpc_channel_destroy, 
                       _grpc_channel_get_info, _grpc_channel_get_target, _grpc_channel_num_external_connectivity_watchers, 
                       _grpc_channel_register_call, _grpc_channel_reset_connect_backoff, 
                       _grpc_channel_support_connectivity_watcher, _grpc_channel_watch_connectivity_state, 
                       _grpc_channelz_get_channel, _grpc_channelz_get_server, _grpc_channelz_get_server_sockets, 
                       _grpc_channelz_get_servers, _grpc_channelz_get_socket, _grpc_channelz_get_subchannel, 
                       _grpc_channelz_get_top_channels, _grpc_chttp2_huffsyms, _grpc_chttp2_settings_parameters, 
                       _grpc_client_auth_filter, _grpc_client_authority_filter, _grpc_client_deadline_filter, 
                       _grpc_client_load_reporting_filter, _grpc_combiner_trace, 
                       _grpc_completion_queue_create, _grpc_completion_queue_create_for_callback, 
                       _grpc_completion_queue_create_for_next, _grpc_completion_queue_create_for_pluck, 
                       _grpc_completion_queue_destroy, _grpc_completion_queue_factory_lookup, 
                       _grpc_completion_queue_next, _grpc_completion_queue_pluck, 
                       _grpc_completion_queue_shutdown, _grpc_completion_queue_thread_local_cache_flush, 
                       _grpc_completion_queue_thread_local_cache_init, _grpc_composite_call_credentials_create, 
                       _grpc_composite_channel_credentials_create, _grpc_compression_algorithm_for_level, 
                       _grpc_compression_algorithm_is_message, _grpc_compression_algorithm_is_stream, 
                       _grpc_compression_algorithm_name, _grpc_compression_algorithm_parse, 
                       _grpc_compression_options_disable_algorithm, _grpc_compression_options_enable_algorithm, 
                       _grpc_compression_options_init, _grpc_compression_options_is_algorithm_enabled, 
                       _grpc_compression_trace, _grpc_connected_filter, _grpc_cq_pluck_trace, 
                       _grpc_custom_socket_vtable, _grpc_dump_xds_configs, _grpc_empty_slice, 
                       _grpc_external_account_credentials_create, _grpc_fd_trace, 
                       _grpc_flowctl_trace, _grpc_forbid_dualstack_sockets_for_testing, 
                       _grpc_g_stands_for, _grpc_gcp_AltsContext_PeerAttributesEntry_msginit, 
                       _grpc_gcp_AltsContext_msginit, _grpc_gcp_Endpoint_msginit, 
                       _grpc_gcp_HandshakerReq_msginit, _grpc_gcp_HandshakerResp_msginit, 
                       _grpc_gcp_HandshakerResult_msginit, _grpc_gcp_HandshakerStatus_msginit, 
                       _grpc_gcp_Identity_AttributesEntry_msginit, _grpc_gcp_Identity_msginit, 
                       _grpc_gcp_NextHandshakeMessageReq_msginit, _grpc_gcp_RpcProtocolVersions_Version_msginit, 
                       _grpc_gcp_RpcProtocolVersions_msginit, _grpc_gcp_ServerHandshakeParameters_msginit, 
                       _grpc_gcp_StartClientHandshakeReq_msginit, _grpc_gcp_StartServerHandshakeReq_HandshakeParametersEntry_msginit, 
                       _grpc_gcp_StartServerHandshakeReq_msginit, _grpc_generic_timer_vtable, 
                       _grpc_global_wakeup_fd, _grpc_google_compute_engine_credentials_create, 
                       _grpc_google_default_credentials_create, _grpc_google_iam_credentials_create, 
                       _grpc_google_refresh_token_credentials_create, _grpc_header_key_is_legal, 
                       _grpc_header_nonbin_value_is_legal, _grpc_health_v1_HealthCheckRequest_msginit, 
                       _grpc_health_v1_HealthCheckResponse_msginit, _grpc_http1_trace, 
                       _grpc_http_client_filter, _grpc_http_server_filter, _grpc_http_trace, 
                       _grpc_httpcli_plaintext, _grpc_httpcli_ssl, _grpc_init, _grpc_inproc_trace, 
                       _grpc_insecure_channel_create, _grpc_insecure_channel_create_from_fd, 
                       _grpc_insecure_credentials_create, _grpc_insecure_server_credentials_create, 
                       _grpc_is_binary_header, _grpc_is_epollexclusive_available, 
                       _grpc_is_initialized, _grpc_jwt_verifier_clock_skew, _grpc_jwt_verifier_max_delay, 
                       _grpc_keepalive_trace, _grpc_lame_client_channel_create, _grpc_lame_filter, 
                       _grpc_lb_v1_ClientStatsPerToken_msginit, _grpc_lb_v1_ClientStats_msginit, 
                       _grpc_lb_v1_FallbackResponse_msginit, _grpc_lb_v1_InitialLoadBalanceRequest_msginit, 
                       _grpc_lb_v1_InitialLoadBalanceResponse_msginit, _grpc_lb_v1_LoadBalanceRequest_msginit, 
                       _grpc_lb_v1_LoadBalanceResponse_msginit, _grpc_lb_v1_ServerList_msginit, 
                       _grpc_lb_v1_Server_msginit, _grpc_local_credentials_create, 
                       _grpc_local_server_credentials_create, _grpc_lookup_v1_RouteLookupRequest_KeyMapEntry_msginit, 
                       _grpc_lookup_v1_RouteLookupRequest_msginit, _grpc_lookup_v1_RouteLookupResponse_msginit, 
                       _grpc_max_age_filter, _grpc_max_auth_token_lifetime, _grpc_message_compress_filter, 
                       _grpc_message_size_filter, _grpc_metadata_array_destroy, _grpc_metadata_array_init, 
                       _grpc_metadata_credentials_create_from_plugin, _grpc_pipe_wakeup_fd_vtable, 
                       _grpc_plugin_credentials_trace, _grpc_poll_function, _grpc_polling_api_trace, 
                       _grpc_polling_trace, _grpc_pollset_impl, _grpc_pollset_set_impl, 
                       _grpc_posix_pollset_set_vtable, _grpc_posix_pollset_vtable, 
                       _grpc_posix_tcp_client_vtable, _grpc_posix_tcp_server_vtable, 
                       _grpc_raw_byte_buffer_create, _grpc_raw_byte_buffer_from_reader, 
                       _grpc_raw_compressed_byte_buffer_create, _grpc_register_plugin, 
                       _grpc_resource_quota_arg_vtable, _grpc_resource_quota_create, 
                       _grpc_resource_quota_ref, _grpc_resource_quota_resize, _grpc_resource_quota_set_max_threads, 
                       _grpc_resource_quota_trace, _grpc_resource_quota_unref, _grpc_secure_channel_create, 
                       _grpc_server_add_insecure_channel_from_fd, _grpc_server_add_insecure_http2_port, 
                       _grpc_server_add_secure_http2_port, _grpc_server_auth_filter, 
                       _grpc_server_cancel_all_calls, _grpc_server_config_fetcher_destroy, 
                       _grpc_server_config_fetcher_xds_create, _grpc_server_create, 
                       _grpc_server_credentials_release, _grpc_server_credentials_set_auth_metadata_processor, 
                       _grpc_server_deadline_filter, _grpc_server_destroy, _grpc_server_register_completion_queue, 
                       _grpc_server_register_method, _grpc_server_request_call, _grpc_server_request_registered_call, 
                       _grpc_server_set_config_fetcher, _grpc_server_shutdown_and_notify, 
                       _grpc_server_start, _grpc_service_account_jwt_access_credentials_create, 
                       _grpc_set_ssl_roots_override_callback, _grpc_setting_id_to_wire_id, 
                       _grpc_shutdown, _grpc_shutdown_blocking, _grpc_slice_buf_start_eq, 
                       _grpc_slice_buffer_add, _grpc_slice_buffer_add_indexed, _grpc_slice_buffer_addn, 
                       _grpc_slice_buffer_destroy, _grpc_slice_buffer_init, _grpc_slice_buffer_move_first, 
                       _grpc_slice_buffer_move_first_into_buffer, _grpc_slice_buffer_move_first_no_ref, 
                       _grpc_slice_buffer_move_into, _grpc_slice_buffer_pop, _grpc_slice_buffer_reset_and_unref, 
                       _grpc_slice_buffer_swap, _grpc_slice_buffer_take_first, _grpc_slice_buffer_tiny_add, 
                       _grpc_slice_buffer_trim_end, _grpc_slice_buffer_undo_take_first, 
                       _grpc_slice_chr, _grpc_slice_cmp, _grpc_slice_copy, _grpc_slice_default_eq_impl, 
                       _grpc_slice_default_hash_impl, _grpc_slice_dup, _grpc_slice_eq, 
                       _grpc_slice_from_copied_buffer, _grpc_slice_from_copied_string, 
                       _grpc_slice_from_static_buffer, _grpc_slice_from_static_string, 
                       _grpc_slice_hash, _grpc_slice_intern, _grpc_slice_is_equivalent, 
                       _grpc_slice_malloc, _grpc_slice_malloc_large, _grpc_slice_new, 
                       _grpc_slice_new_with_len, _grpc_slice_new_with_user_data, 
                       _grpc_slice_rchr, _grpc_slice_ref, _grpc_slice_slice, _grpc_slice_split_head, 
                       _grpc_slice_split_tail, _grpc_slice_split_tail_maybe_ref, 
                       _grpc_slice_str_cmp, _grpc_slice_sub, _grpc_slice_sub_no_ref, 
                       _grpc_slice_to_c_string, _grpc_slice_unref, _grpc_specialized_wakeup_fd_vtable, 
                       _grpc_ssl_credentials_create, _grpc_ssl_credentials_create_ex, 
                       _grpc_ssl_server_certificate_config_create, _grpc_ssl_server_certificate_config_destroy, 
                       _grpc_ssl_server_credentials_create, _grpc_ssl_server_credentials_create_ex, 
                       _grpc_ssl_server_credentials_create_options_using_config, 
                       _grpc_ssl_server_credentials_create_options_using_config_fetcher, 
                       _grpc_ssl_server_credentials_create_with_options, _grpc_ssl_server_credentials_options_destroy, 
                       _grpc_ssl_session_cache_create_channel_arg, _grpc_ssl_session_cache_create_lru, 
                       _grpc_ssl_session_cache_destroy, _grpc_stats_counter_doc, 
                       _grpc_stats_counter_name, _grpc_stats_histo_bucket_boundaries, 
                       _grpc_stats_histo_buckets, _grpc_stats_histo_start, _grpc_stats_histogram_doc, 
                       _grpc_stats_histogram_name, _grpc_stats_inc_histogram, _grpc_stats_per_cpu_storage, 
                       _grpc_sts_credentials_create, _grpc_tcp_client_impl, _grpc_tcp_server_impl, 
                       _grpc_tcp_trace, _grpc_timer_check_trace, _grpc_timer_impl, 
                       _grpc_timer_trace, _grpc_tls_certificate_provider_file_watcher_create, 
                       _grpc_tls_certificate_provider_release, _grpc_tls_certificate_provider_static_data_create, 
                       _grpc_tls_certificate_verifier_cancel, _grpc_tls_certificate_verifier_external_create, 
                       _grpc_tls_certificate_verifier_host_name_create, _grpc_tls_certificate_verifier_release, 
                       _grpc_tls_certificate_verifier_verify, _grpc_tls_credentials_create, 
                       _grpc_tls_credentials_options_create, _grpc_tls_credentials_options_set_cert_request_type, 
                       _grpc_tls_credentials_options_set_certificate_provider, _grpc_tls_credentials_options_set_certificate_verifier, 
                       _grpc_tls_credentials_options_set_check_call_host, _grpc_tls_credentials_options_set_crl_directory, 
                       _grpc_tls_credentials_options_set_identity_cert_name, _grpc_tls_credentials_options_set_root_cert_name, 
                       _grpc_tls_credentials_options_set_verify_server_cert, _grpc_tls_credentials_options_watch_identity_key_cert_pairs, 
                       _grpc_tls_credentials_options_watch_root_certs, _grpc_tls_identity_pairs_add_pair, 
                       _grpc_tls_identity_pairs_create, _grpc_tls_identity_pairs_destroy, 
                       _grpc_tls_server_credentials_create, _grpc_trace_auth_context_refcount, 
                       _grpc_trace_channel, _grpc_trace_channel_stack, _grpc_trace_chttp2_refcount, 
                       _grpc_trace_closure, _grpc_trace_cq_refcount, _grpc_trace_error_refcount, 
                       _grpc_trace_fd_refcount, _grpc_trace_http2_stream_state, _grpc_trace_operation_failures, 
                       _grpc_trace_pending_tags, _grpc_trace_resolver_refcount, _grpc_trace_secure_endpoint, 
                       _grpc_trace_security_connector_refcount, _grpc_trace_stream_refcount, 
                       _grpc_tracer_set_enabled, _grpc_version_string, _grpc_xds_credentials_create, 
                       _grpc_xds_server_credentials_create, _has_real_wakeup_fd, 
                       _kWyhashSalt, _src_proto_grpc_gcp_altscontext_proto_upb_file_layout, 
                       _src_proto_grpc_gcp_handshaker_proto_upb_file_layout, _src_proto_grpc_gcp_transport_security_common_proto_upb_file_layout, 
                       _src_proto_grpc_health_v1_health_proto_upb_file_layout, _src_proto_grpc_lb_v1_load_balancer_proto_upb_file_layout, 
                       _src_proto_grpc_lookup_v1_rls_proto_upb_file_layout, _symtab_alloc, 
                       _tsi_tracing_enabled, _txtenc_nullz, _udpa_annotations_FieldMigrateAnnotation_msginit, 
                       _udpa_annotations_FieldSecurityAnnotation_msginit, _udpa_annotations_FileMigrateAnnotation_msginit, 
                       _udpa_annotations_MigrateAnnotation_msginit, _udpa_annotations_StatusAnnotation_msginit, 
                       _udpa_annotations_VersioningAnnotation_msginit, _udpa_annotations_enum_migrate_ext, 
                       _udpa_annotations_enum_value_migrate_ext, _udpa_annotations_field_migrate_ext, 
                       _udpa_annotations_file_migrate_ext, _udpa_annotations_file_status_ext, 
                       _udpa_annotations_message_migrate_ext, _udpa_annotations_migrate_proto_upb_file_layout, 
                       _udpa_annotations_migrate_proto_upbdefinit, _udpa_annotations_security_ext, 
                       _udpa_annotations_security_proto_upb_file_layout, _udpa_annotations_security_proto_upbdefinit, 
                       _udpa_annotations_sensitive_ext, _udpa_annotations_sensitive_proto_upb_file_layout, 
                       _udpa_annotations_sensitive_proto_upbdefinit, _udpa_annotations_status_proto_upb_file_layout, 
                       _udpa_annotations_status_proto_upbdefinit, _udpa_annotations_versioning_ext, 
                       _udpa_annotations_versioning_proto_upb_file_layout, _udpa_annotations_versioning_proto_upbdefinit, 
                       _upb_alloc_global, _upb_arena_addcleanup, _upb_arena_free, 
                       _upb_arena_fuse, _upb_arena_init, _upb_array_append, _upb_array_get, 
                       _upb_array_new, _upb_array_resize, _upb_array_set, _upb_array_size, 
                       _upb_encode_ex, _upb_enum_begin, _upb_enum_done, _upb_enum_iter_name, 
                       _upb_enum_iter_number, _upb_enum_next, _upb_enumdef_default, 
                       _upb_enumdef_file, _upb_enumdef_fullname, _upb_enumdef_lookupname, 
                       _upb_enumdef_lookupnum, _upb_enumdef_name, _upb_enumdef_numvals, 
                       _upb_enumdef_value, _upb_enumvaldef_enum, _upb_enumvaldef_fullname, 
                       _upb_enumvaldef_name, _upb_enumvaldef_number, _upb_extreg_new, 
                       _upb_fielddef_checkdescriptortype, _upb_fielddef_checkintfmt, 
                       _upb_fielddef_checklabel, _upb_fielddef_checktype, _upb_fielddef_containingoneof, 
                       _upb_fielddef_containingtype, _upb_fielddef_default, _upb_fielddef_defaultbool, 
                       _upb_fielddef_defaultdouble, _upb_fielddef_defaultfloat, _upb_fielddef_defaultint32, 
                       _upb_fielddef_defaultint64, _upb_fielddef_defaultstr, _upb_fielddef_defaultuint32, 
                       _upb_fielddef_defaultuint64, _upb_fielddef_descriptortype, 
                       _upb_fielddef_enumsubdef, _upb_fielddef_file, _upb_fielddef_fullname, 
                       _upb_fielddef_haspresence, _upb_fielddef_hassubdef, _upb_fielddef_index, 
                       _upb_fielddef_isextension, _upb_fielddef_ismap, _upb_fielddef_isprimitive, 
                       _upb_fielddef_isseq, _upb_fielddef_isstring, _upb_fielddef_issubmsg, 
                       _upb_fielddef_jsonname, _upb_fielddef_label, _upb_fielddef_layout, 
                       _upb_fielddef_lazy, _upb_fielddef_msgsubdef, _upb_fielddef_name, 
                       _upb_fielddef_number, _upb_fielddef_packed, _upb_fielddef_realcontainingoneof, 
                       _upb_fielddef_type, _upb_filedef_dep, _upb_filedef_depcount, 
                       _upb_filedef_enum, _upb_filedef_enumcount, _upb_filedef_msg, 
                       _upb_filedef_msgcount, _upb_filedef_name, _upb_filedef_package, 
                       _upb_filedef_phpnamespace, _upb_filedef_phpprefix, _upb_filedef_symtab, 
                       _upb_filedef_syntax, _upb_inttable_begin, _upb_inttable_compact, 
                       _upb_inttable_count, _upb_inttable_done, _upb_inttable_init, 
                       _upb_inttable_insert, _upb_inttable_iter_isequal, _upb_inttable_iter_key, 
                       _upb_inttable_iter_setdone, _upb_inttable_iter_value, _upb_inttable_lookup, 
                       _upb_inttable_next, _upb_inttable_remove, _upb_inttable_replace, 
                       _upb_inttable_sizedinit, _upb_map_clear, _upb_map_delete, 
                       _upb_map_get, _upb_map_new, _upb_map_set, _upb_map_size, _upb_mapiter_done, 
                       _upb_mapiter_key, _upb_mapiter_next, _upb_mapiter_value, _upb_msg_clear, 
                       _upb_msg_clearfield, _upb_msg_discardunknown, _upb_msg_field_begin, 
                       _upb_msg_field_done, _upb_msg_field_iter_isequal, _upb_msg_field_iter_setdone, 
                       _upb_msg_field_next, _upb_msg_get, _upb_msg_getunknown, _upb_msg_has, 
                       _upb_msg_iter_field, _upb_msg_iter_oneof, _upb_msg_mutable, 
                       _upb_msg_new, _upb_msg_next, _upb_msg_oneof_begin, _upb_msg_oneof_done, 
                       _upb_msg_oneof_iter_isequal, _upb_msg_oneof_iter_setdone, 
                       _upb_msg_oneof_next, _upb_msg_set, _upb_msg_whichoneof, _upb_msgdef_extrange, 
                       _upb_msgdef_extrangecount, _upb_msgdef_field, _upb_msgdef_fieldcount, 
                       _upb_msgdef_file, _upb_msgdef_fullname, _upb_msgdef_isnumberwrapper, 
                       _upb_msgdef_iswrapper, _upb_msgdef_itof, _upb_msgdef_layout, 
                       _upb_msgdef_lookupjsonname, _upb_msgdef_lookupname, _upb_msgdef_mapentry, 
                       _upb_msgdef_name, _upb_msgdef_ntof, _upb_msgdef_ntoo, _upb_msgdef_numfields, 
                       _upb_msgdef_numoneofs, _upb_msgdef_numrealoneofs, _upb_msgdef_oneof, 
                       _upb_msgdef_oneofcount, _upb_msgdef_realoneofcount, _upb_msgdef_syntax, 
                       _upb_msgdef_wellknowntype, _upb_ok, _upb_oneof_begin, _upb_oneof_done, 
                       _upb_oneof_iter_field, _upb_oneof_iter_setdone, _upb_oneof_next, 
                       _upb_oneofdef_containingtype, _upb_oneofdef_field, _upb_oneofdef_fieldcount, 
                       _upb_oneofdef_index, _upb_oneofdef_issynthetic, _upb_oneofdef_itof, 
                       _upb_oneofdef_name, _upb_oneofdef_ntof, _upb_oneofdef_numfields, 
                       _upb_status_clear, _upb_status_errmsg, _upb_status_seterrf, 
                       _upb_status_seterrmsg, _upb_status_vappenderrf, _upb_status_vseterrf, 
                       _upb_strdup2, _upb_strtable_begin, _upb_strtable_clear, _upb_strtable_done, 
                       _upb_strtable_init, _upb_strtable_insert, _upb_strtable_iter_isequal, 
                       _upb_strtable_iter_key, _upb_strtable_iter_setdone, _upb_strtable_iter_value, 
                       _upb_strtable_lookup2, _upb_strtable_next, _upb_strtable_remove, 
                       _upb_strtable_resize, _upb_symtab_addfile, _upb_symtab_extreg, 
                       _upb_symtab_filecount, _upb_symtab_free, _upb_symtab_lookupenum, 
                       _upb_symtab_lookupenumval, _upb_symtab_lookupext, _upb_symtab_lookupext2, 
                       _upb_symtab_lookupfile, _upb_symtab_lookupfile2, _upb_symtab_lookupmsg, 
                       _upb_symtab_lookupmsg2, _upb_symtab_new, _upb_text_encode, 
                       _upb_utf8_offsets, _validate_AnyRules_msginit, _validate_BoolRules_msginit, 
                       _validate_BytesRules_msginit, _validate_DoubleRules_msginit, 
                       _validate_DurationRules_msginit, _validate_EnumRules_msginit, 
                       _validate_FieldRules_msginit, _validate_Fixed32Rules_msginit, 
                       _validate_Fixed64Rules_msginit, _validate_FloatRules_msginit, 
                       _validate_Int32Rules_msginit, _validate_Int64Rules_msginit, 
                       _validate_MapRules_msginit, _validate_MessageRules_msginit, 
                       _validate_RepeatedRules_msginit, _validate_SFixed32Rules_msginit, 
                       _validate_SFixed64Rules_msginit, _validate_SInt32Rules_msginit, 
                       _validate_SInt64Rules_msginit, _validate_StringRules_msginit, 
                       _validate_TimestampRules_msginit, _validate_UInt32Rules_msginit, 
                       _validate_UInt64Rules_msginit, _validate_disabled_ext, _validate_ignored_ext, 
                       _validate_required_ext, _validate_rules_ext, _validate_validate_proto_upb_file_layout, 
                       _validate_validate_proto_upbdefinit, _xds_annotations_v3_FieldStatusAnnotation_msginit, 
                       _xds_annotations_v3_FileStatusAnnotation_msginit, _xds_annotations_v3_MessageStatusAnnotation_msginit, 
                       _xds_annotations_v3_StatusAnnotation_msginit, _xds_annotations_v3_field_status_ext, 
                       _xds_annotations_v3_file_status_ext, _xds_annotations_v3_message_status_ext, 
                       _xds_annotations_v3_status_proto_upb_file_layout, _xds_annotations_v3_status_proto_upbdefinit, 
                       _xds_core_v3_Authority_msginit, _xds_core_v3_CollectionEntry_InlineEntry_msginit, 
                       _xds_core_v3_CollectionEntry_msginit, _xds_core_v3_ContextParams_ParamsEntry_msginit, 
                       _xds_core_v3_ContextParams_msginit, _xds_core_v3_ResourceLocator_Directive_msginit, 
                       _xds_core_v3_ResourceLocator_msginit, _xds_core_v3_ResourceName_msginit, 
                       _xds_core_v3_Resource_msginit, _xds_core_v3_authority_proto_upb_file_layout, 
                       _xds_core_v3_authority_proto_upbdefinit, _xds_core_v3_collection_entry_proto_upb_file_layout, 
                       _xds_core_v3_collection_entry_proto_upbdefinit, _xds_core_v3_context_params_proto_upb_file_layout, 
                       _xds_core_v3_context_params_proto_upbdefinit, _xds_core_v3_resource_locator_proto_upb_file_layout, 
                       _xds_core_v3_resource_locator_proto_upbdefinit, _xds_core_v3_resource_name_proto_upb_file_layout, 
                       _xds_core_v3_resource_name_proto_upbdefinit, _xds_core_v3_resource_proto_upb_file_layout, 
                       _xds_core_v3_resource_proto_upbdefinit, _xds_data_orca_v3_OrcaLoadReport_RequestCostEntry_msginit, 
                       _xds_data_orca_v3_OrcaLoadReport_UtilizationEntry_msginit, 
                       _xds_data_orca_v3_OrcaLoadReport_msginit, _xds_data_orca_v3_orca_load_report_proto_upb_file_layout, 
                       _xds_type_v3_TypedStruct_msginit, _xds_type_v3_typed_struct_proto_upb_file_layout, 
                       _xds_type_v3_typed_struct_proto_upbdefinit ]
    objc-classes:    [ PodsDummy_gRPC_Core ]
    weak-symbols:    [ __Z30grpc_channel_args_find_pointerI17grpc_channel_argsEPT_PKS0_PKc, 
                       __Z30grpc_channel_args_find_pointerI34grpc_authorization_policy_providerEPT_PK17grpc_channel_argsPKc, 
                       __Z30grpc_channel_args_find_pointerIKN4absl12lts_2021110213InlinedVectorIN9grpc_core13ServerAddressELm1ENSt3__19allocatorIS4_EEEEEPT_PK17grpc_channel_argsPKc, 
                       __Z30grpc_channel_args_find_pointerIN9grpc_core13ClientChannelEEPT_PK17grpc_channel_argsPKc, 
                       __Z30grpc_channel_args_find_pointerIN9grpc_core13ResourceQuotaEEPT_PK17grpc_channel_argsPKc, 
                       __Z30grpc_channel_args_find_pointerIN9grpc_core13ServiceConfigEEPT_PK17grpc_channel_argsPKc, 
                       __Z30grpc_channel_args_find_pointerIN9grpc_core14ConfigSelectorEEPT_PK17grpc_channel_argsPKc, 
                       __Z30grpc_channel_args_find_pointerIN9grpc_core22XdsCertificateProviderEEPT_PK17grpc_channel_argsPKc, 
                       __Z30grpc_channel_args_find_pointerIN9grpc_core23XdsChannelStackModifierEEPT_PK17grpc_channel_argsPKc, 
                       __Z30grpc_channel_args_find_pointerIN9grpc_core28ServerConfigSelectorProviderEEPT_PK17grpc_channel_argsPKc, 
                       __Z30grpc_channel_args_find_pointerIN9grpc_core29FakeResolverResponseGeneratorEEPT_PK17grpc_channel_argsPKc, 
                       __Z30grpc_channel_args_find_pointerIN9grpc_core8channelz10SocketNode8SecurityEEPT_PK17grpc_channel_argsPKc, 
                       __Z30grpc_channel_args_find_pointerIN9grpc_core8channelz11ChannelNodeEEPT_PK17grpc_channel_argsPKc, 
                       __Z30grpc_channel_args_find_pointerIN9grpc_core9XdsClientEEPT_PK17grpc_channel_argsPKc, 
                       __Z30grpc_channel_args_find_pointerIP10grpc_errorEPT_PK17grpc_channel_argsPKc, 
                       __Z30grpc_channel_args_find_pointerIPN9grpc_core18TcpServerFdHandlerEEPT_PK17grpc_channel_argsPKc, 
                       __ZGVZN9grpc_core14ParsedMetadataI19grpc_metadata_batchE11EmptyVTableEvE6vtable, 
                       __ZGVZN9grpc_core14ParsedMetadataI19grpc_metadata_batchE14KeyValueVTableEN4absl12lts_2021110211string_viewEE6vtable, 
                       __ZGVZN9grpc_core14ParsedMetadataI19grpc_metadata_batchE16SliceTraitVTableINS_12HostMetadataEEEPKNS2_6VTableEvE6vtable, 
                       __ZGVZN9grpc_core14ParsedMetadataI19grpc_metadata_batchE16SliceTraitVTableINS_15LbTokenMetadataEEEPKNS2_6VTableEvE6vtable, 
                       __ZGVZN9grpc_core14ParsedMetadataI19grpc_metadata_batchE16SliceTraitVTableINS_16HttpPathMetadataEEEPKNS2_6VTableEvE6vtable, 
                       __ZGVZN9grpc_core14ParsedMetadataI19grpc_metadata_batchE16SliceTraitVTableINS_17UserAgentMetadataEEEPKNS2_6VTableEvE6vtable, 
                       __ZGVZN9grpc_core14ParsedMetadataI19grpc_metadata_batchE16SliceTraitVTableINS_19GrpcMessageMetadataEEEPKNS2_6VTableEvE6vtable, 
                       __ZGVZN9grpc_core14ParsedMetadataI19grpc_metadata_batchE16SliceTraitVTableINS_19GrpcTagsBinMetadataEEEPKNS2_6VTableEvE6vtable, 
                       __ZGVZN9grpc_core14ParsedMetadataI19grpc_metadata_batchE16SliceTraitVTableINS_20GrpcTraceBinMetadataEEEPKNS2_6VTableEvE6vtable, 
                       __ZGVZN9grpc_core14ParsedMetadataI19grpc_metadata_batchE16SliceTraitVTableINS_21HttpAuthorityMetadataEEEPKNS2_6VTableEvE6vtable, 
                       __ZGVZN9grpc_core14ParsedMetadataI19grpc_metadata_batchE16SliceTraitVTableINS_26GrpcServerStatsBinMetadataEEEPKNS2_6VTableEvE6vtable, 
                       __ZGVZN9grpc_core14ParsedMetadataI19grpc_metadata_batchE16SliceTraitVTableINS_31XEndpointLoadMetricsBinMetadataEEEPKNS2_6VTableEvE6vtable, 
                       __ZGVZN9grpc_core14ParsedMetadataI19grpc_metadata_batchE18TrivialTraitVTableINS_10TeMetadataEEEPKNS2_6VTableEvE6vtable, 
                       __ZGVZN9grpc_core14ParsedMetadataI19grpc_metadata_batchE18TrivialTraitVTableINS_18GrpcStatusMetadataEEEPKNS2_6VTableEvE6vtable, 
                       __ZGVZN9grpc_core14ParsedMetadataI19grpc_metadata_batchE18TrivialTraitVTableINS_18HttpMethodMetadataEEEPKNS2_6VTableEvE6vtable, 
                       __ZGVZN9grpc_core14ParsedMetadataI19grpc_metadata_batchE18TrivialTraitVTableINS_18HttpSchemeMetadataEEEPKNS2_6VTableEvE6vtable, 
                       __ZGVZN9grpc_core14ParsedMetadataI19grpc_metadata_batchE18TrivialTraitVTableINS_18HttpStatusMetadataEEEPKNS2_6VTableEvE6vtable, 
                       __ZGVZN9grpc_core14ParsedMetadataI19grpc_metadata_batchE18TrivialTraitVTableINS_19ContentTypeMetadataEEEPKNS2_6VTableEvE6vtable, 
                       __ZGVZN9grpc_core14ParsedMetadataI19grpc_metadata_batchE18TrivialTraitVTableINS_19GrpcTimeoutMetadataEEEPKNS2_6VTableEvE6vtable, 
                       __ZGVZN9grpc_core14ParsedMetadataI19grpc_metadata_batchE18TrivialTraitVTableINS_20GrpcEncodingMetadataEEEPKNS2_6VTableEvE6vtable, 
                       __ZGVZN9grpc_core14ParsedMetadataI19grpc_metadata_batchE18TrivialTraitVTableINS_25GrpcLbClientStatsMetadataEEEPKNS2_6VTableEvE6vtable, 
                       __ZGVZN9grpc_core14ParsedMetadataI19grpc_metadata_batchE18TrivialTraitVTableINS_27GrpcInternalEncodingRequestEEEPKNS2_6VTableEvE6vtable, 
                       __ZGVZN9grpc_core14ParsedMetadataI19grpc_metadata_batchE18TrivialTraitVTableINS_27GrpcRetryPushbackMsMetadataEEEPKNS2_6VTableEvE6vtable, 
                       __ZGVZN9grpc_core14ParsedMetadataI19grpc_metadata_batchE18TrivialTraitVTableINS_31GrpcPreviousRpcAttemptsMetadataEEEPKNS2_6VTableEvE6vtable, 
                       __ZGVZN9grpc_core14ParsedMetadataI19grpc_metadata_batchE21NonTrivialTraitVTableINS_17LbCostBinMetadataEEEPKNS2_6VTableEvE6vtable, 
                       __ZGVZN9grpc_core14ParsedMetadataI19grpc_metadata_batchE21NonTrivialTraitVTableINS_26GrpcAcceptEncodingMetadataEEEPKNS2_6VTableEvE6vtable, 
                       __ZN3re210SparseSetTIvE12create_indexEi, __ZN3re211SparseArrayIPNS_3NFA6ThreadEE12create_indexEi, 
                       __ZN3re211SparseArrayIPNS_3NFA6ThreadEE6resizeEi, __ZN3re211SparseArrayIiE12create_indexEi, 
                       __ZN3re211SparseArrayIiE4lessERKNS1_10IndexValueES4_, __ZN3re26Regexp6WalkerINS_4FragEE12WalkInternalEPS0_S2_b, 
                       __ZN3re26Regexp6WalkerINS_4FragEE15WalkExponentialEPS0_S2_i, 
                       __ZN3re26Regexp6WalkerINS_4FragEE5ResetEv, __ZN3re26Regexp6WalkerIPNS_9Prefilter4InfoEE12WalkInternalEPS0_S4_b, 
                       __ZN3re26Regexp6WalkerIPNS_9Prefilter4InfoEE15WalkExponentialEPS0_S4_i, 
                       __ZN3re26Regexp6WalkerIPNS_9Prefilter4InfoEE5ResetEv, __ZN3re26Regexp6WalkerIPS0_E12WalkInternalES2_S2_b, 
                       __ZN3re26Regexp6WalkerIPS0_E4WalkES2_S2_, __ZN3re26Regexp6WalkerIPS0_E5ResetEv, 
                       __ZN3re26Regexp6WalkerIbE12WalkInternalEPS0_bb, __ZN3re26Regexp6WalkerIbE4WalkEPS0_b, 
                       __ZN3re26Regexp6WalkerIbE5ResetEv, __ZN3re26Regexp6WalkerIiE12WalkInternalEPS0_ib, 
                       __ZN3re26Regexp6WalkerIiE15WalkExponentialEPS0_ii, __ZN3re26Regexp6WalkerIiE4WalkEPS0_i, 
                       __ZN3re26Regexp6WalkerIiE5ResetEv, __ZN3re27GetFlagIiEET_RKS1_, 
                       __ZN4absl12lts_2021110210SimpleAtoiI16grpc_status_codeEEbNS0_11string_viewEPT_, 
                       __ZN4absl12lts_2021110210SimpleAtoiIiEEbNS0_11string_viewEPT_, 
                       __ZN4absl12lts_2021110210SimpleAtoiIjEEbNS0_11string_viewEPT_, 
                       __ZN4absl12lts_2021110210SimpleAtoiIlEEbNS0_11string_viewEPT_, 
                       __ZN4absl12lts_2021110210SimpleAtoiIxEEbNS0_11string_viewEPT_, 
                       __ZN4absl12lts_2021110210SimpleAtoiIyEEbNS0_11string_viewEPT_, 
                       __ZN4absl12lts_2021110213base_internal6invokeINS0_16variant_internal17VariantCoreAccess17CopyAssignVisitorINS3_31VariantCopyAssignBaseNontrivialIJN9grpc_core22XdsRouteConfigResource5Route13UnknownActionENS9_11RouteActionENS9_19NonForwardingActionEEEEEEJNSt3__117integral_constantImLm0EEEEEEDTclsr7InvokerIT_DpT0_E4typeE6Invokeclsr3stdE7declvalISI_EEspclsr3stdE7declvalISJ_EEEEOSI_DpOSJ_, 
                       __ZN4absl12lts_2021110213base_internal6invokeINS0_16variant_internal17VariantCoreAccess17CopyAssignVisitorINS3_31VariantCopyAssignBaseNontrivialIJN9grpc_core22XdsRouteConfigResource5Route13UnknownActionENS9_11RouteActionENS9_19NonForwardingActionEEEEEEJNSt3__117integral_constantImLm18446744073709551615EEEEEEDTclsr7InvokerIT_DpT0_E4typeE6Invokeclsr3stdE7declvalISI_EEspclsr3stdE7declvalISJ_EEEEOSI_DpOSJ_, 
                       __ZN4absl12lts_2021110213base_internal6invokeINS0_16variant_internal17VariantCoreAccess17CopyAssignVisitorINS3_31VariantCopyAssignBaseNontrivialIJN9grpc_core22XdsRouteConfigResource5Route13UnknownActionENS9_11RouteActionENS9_19NonForwardingActionEEEEEEJNSt3__117integral_constantImLm1EEEEEEDTclsr7InvokerIT_DpT0_E4typeE6Invokeclsr3stdE7declvalISI_EEspclsr3stdE7declvalISJ_EEEEOSI_DpOSJ_, 
                       __ZN4absl12lts_2021110213base_internal6invokeINS0_16variant_internal17VariantCoreAccess17CopyAssignVisitorINS3_31VariantCopyAssignBaseNontrivialIJN9grpc_core22XdsRouteConfigResource5Route13UnknownActionENS9_11RouteActionENS9_19NonForwardingActionEEEEEEJNSt3__117integral_constantImLm2EEEEEEDTclsr7InvokerIT_DpT0_E4typeE6Invokeclsr3stdE7declvalISI_EEspclsr3stdE7declvalISJ_EEEEOSI_DpOSJ_, 
                       __ZN4absl12lts_2021110213base_internal6invokeINS0_16variant_internal17VariantCoreAccess17MoveAssignVisitorINS3_31VariantMoveAssignBaseNontrivialIJN9grpc_core19LoadBalancingPolicy10PickResult8CompleteENS9_5QueueENS9_4FailENS9_4DropEEEEEEJNSt3__117integral_constantImLm0EEEEEEDTclsr7InvokerIT_DpT0_E4typeE6Invokeclsr3stdE7declvalISJ_EEspclsr3stdE7declvalISK_EEEEOSJ_DpOSK_, 
                       __ZN4absl12lts_2021110213base_internal6invokeINS0_16variant_internal17VariantCoreAccess17MoveAssignVisitorINS3_31VariantMoveAssignBaseNontrivialIJN9grpc_core19LoadBalancingPolicy10PickResult8CompleteENS9_5QueueENS9_4FailENS9_4DropEEEEEEJNSt3__117integral_constantImLm18446744073709551615EEEEEEDTclsr7InvokerIT_DpT0_E4typeE6Invokeclsr3stdE7declvalISJ_EEspclsr3stdE7declvalISK_EEEEOSJ_DpOSK_, 
                       __ZN4absl12lts_2021110213base_internal6invokeINS0_16variant_internal17VariantCoreAccess17MoveAssignVisitorINS3_31VariantMoveAssignBaseNontrivialIJN9grpc_core19LoadBalancingPolicy10PickResult8CompleteENS9_5QueueENS9_4FailENS9_4DropEEEEEEJNSt3__117integral_constantImLm1EEEEEEDTclsr7InvokerIT_DpT0_E4typeE6Invokeclsr3stdE7declvalISJ_EEspclsr3stdE7declvalISK_EEEEOSJ_DpOSK_, 
                       __ZN4absl12lts_2021110213base_internal6invokeINS0_16variant_internal17VariantCoreAccess17MoveAssignVisitorINS3_31VariantMoveAssignBaseNontrivialIJN9grpc_core19LoadBalancingPolicy10PickResult8CompleteENS9_5QueueENS9_4FailENS9_4DropEEEEEEJNSt3__117integral_constantImLm2EEEEEEDTclsr7InvokerIT_DpT0_E4typeE6Invokeclsr3stdE7declvalISJ_EEspclsr3stdE7declvalISK_EEEEOSJ_DpOSK_, 
                       __ZN4absl12lts_2021110213base_internal6invokeINS0_16variant_internal17VariantCoreAccess17MoveAssignVisitorINS3_31VariantMoveAssignBaseNontrivialIJN9grpc_core19LoadBalancingPolicy10PickResult8CompleteENS9_5QueueENS9_4FailENS9_4DropEEEEEEJNSt3__117integral_constantImLm3EEEEEEDTclsr7InvokerIT_DpT0_E4typeE6Invokeclsr3stdE7declvalISJ_EEspclsr3stdE7declvalISK_EEEEOSJ_DpOSK_, 
                       __ZN4absl12lts_2021110213base_internal6invokeINS0_16variant_internal17VariantCoreAccess17MoveAssignVisitorINS3_31VariantMoveAssignBaseNontrivialIJN9grpc_core22XdsRouteConfigResource5Route13UnknownActionENS9_11RouteActionENS9_19NonForwardingActionEEEEEEJNSt3__117integral_constantImLm0EEEEEEDTclsr7InvokerIT_DpT0_E4typeE6Invokeclsr3stdE7declvalISI_EEspclsr3stdE7declvalISJ_EEEEOSI_DpOSJ_, 
                       __ZN4absl12lts_2021110213base_internal6invokeINS0_16variant_internal17VariantCoreAccess17MoveAssignVisitorINS3_31VariantMoveAssignBaseNontrivialIJN9grpc_core22XdsRouteConfigResource5Route13UnknownActionENS9_11RouteActionENS9_19NonForwardingActionEEEEEEJNSt3__117integral_constantImLm18446744073709551615EEEEEEDTclsr7InvokerIT_DpT0_E4typeE6Invokeclsr3stdE7declvalISI_EEspclsr3stdE7declvalISJ_EEEEOSI_DpOSJ_, 
                       __ZN4absl12lts_2021110213base_internal6invokeINS0_16variant_internal17VariantCoreAccess17MoveAssignVisitorINS3_31VariantMoveAssignBaseNontrivialIJN9grpc_core22XdsRouteConfigResource5Route13UnknownActionENS9_11RouteActionENS9_19NonForwardingActionEEEEEEJNSt3__117integral_constantImLm1EEEEEEDTclsr7InvokerIT_DpT0_E4typeE6Invokeclsr3stdE7declvalISI_EEspclsr3stdE7declvalISJ_EEEEOSI_DpOSJ_, 
                       __ZN4absl12lts_2021110213base_internal6invokeINS0_16variant_internal17VariantCoreAccess17MoveAssignVisitorINS3_31VariantMoveAssignBaseNontrivialIJN9grpc_core22XdsRouteConfigResource5Route13UnknownActionENS9_11RouteActionENS9_19NonForwardingActionEEEEEEJNSt3__117integral_constantImLm2EEEEEEDTclsr7InvokerIT_DpT0_E4typeE6Invokeclsr3stdE7declvalISI_EEspclsr3stdE7declvalISJ_EEEEOSI_DpOSJ_, 
                       __ZN4absl12lts_2021110213base_internal6invokeINS0_16variant_internal17VariantCoreAccess23ConversionAssignVisitorINS0_7variantIJN9grpc_core5SliceENS0_4SpanIKhEENSt3__16vectorIhNSC_9allocatorIhEEEEEEESB_EEJNSC_17integral_constantImLm0EEEEEEDTclsr7InvokerIT_DpT0_E4typeE6Invokeclsr3stdE7declvalISL_EEspclsr3stdE7declvalISM_EEEEOSL_DpOSM_, 
                       __ZN4absl12lts_2021110213base_internal6invokeINS0_16variant_internal17VariantCoreAccess23ConversionAssignVisitorINS0_7variantIJN9grpc_core5SliceENS0_4SpanIKhEENSt3__16vectorIhNSC_9allocatorIhEEEEEEESB_EEJNSC_17integral_constantImLm18446744073709551615EEEEEEDTclsr7InvokerIT_DpT0_E4typeE6Invokeclsr3stdE7declvalISL_EEspclsr3stdE7declvalISM_EEEEOSL_DpOSM_, 
                       __ZN4absl12lts_2021110213base_internal6invokeINS0_16variant_internal17VariantCoreAccess23ConversionAssignVisitorINS0_7variantIJN9grpc_core5SliceENS0_4SpanIKhEENSt3__16vectorIhNSC_9allocatorIhEEEEEEESB_EEJNSC_17integral_constantImLm1EEEEEEDTclsr7InvokerIT_DpT0_E4typeE6Invokeclsr3stdE7declvalISL_EEspclsr3stdE7declvalISM_EEEEOSL_DpOSM_, 
                       __ZN4absl12lts_2021110213base_internal6invokeINS0_16variant_internal17VariantCoreAccess23ConversionAssignVisitorINS0_7variantIJN9grpc_core5SliceENS0_4SpanIKhEENSt3__16vectorIhNSC_9allocatorIhEEEEEEESB_EEJNSC_17integral_constantImLm2EEEEEEDTclsr7InvokerIT_DpT0_E4typeE6Invokeclsr3stdE7declvalISL_EEspclsr3stdE7declvalISM_EEEEOSL_DpOSM_, 
                       __ZN4absl12lts_2021110213base_internal6invokeINS0_16variant_internal25VariantCopyBaseNontrivialIJN9grpc_core22XdsRouteConfigResource5Route13UnknownActionENS7_11RouteActionENS7_19NonForwardingActionEEE9ConstructEJNSt3__117integral_constantImLm0EEEEEEDTclsr7InvokerIT_DpT0_E4typeE6Invokeclsr3stdE7declvalISG_EEspclsr3stdE7declvalISH_EEEEOSG_DpOSH_, 
                       __ZN4absl12lts_2021110213base_internal6invokeINS0_16variant_internal25VariantCopyBaseNontrivialIJN9grpc_core22XdsRouteConfigResource5Route13UnknownActionENS7_11RouteActionENS7_19NonForwardingActionEEE9ConstructEJNSt3__117integral_constantImLm18446744073709551615EEEEEEDTclsr7InvokerIT_DpT0_E4typeE6Invokeclsr3stdE7declvalISG_EEspclsr3stdE7declvalISH_EEEEOSG_DpOSH_, 
                       __ZN4absl12lts_2021110213base_internal6invokeINS0_16variant_internal25VariantCopyBaseNontrivialIJN9grpc_core22XdsRouteConfigResource5Route13UnknownActionENS7_11RouteActionENS7_19NonForwardingActionEEE9ConstructEJNSt3__117integral_constantImLm1EEEEEEDTclsr7InvokerIT_DpT0_E4typeE6Invokeclsr3stdE7declvalISG_EEspclsr3stdE7declvalISH_EEEEOSG_DpOSH_, 
                       __ZN4absl12lts_2021110213base_internal6invokeINS0_16variant_internal25VariantCopyBaseNontrivialIJN9grpc_core22XdsRouteConfigResource5Route13UnknownActionENS7_11RouteActionENS7_19NonForwardingActionEEE9ConstructEJNSt3__117integral_constantImLm2EEEEEEDTclsr7InvokerIT_DpT0_E4typeE6Invokeclsr3stdE7declvalISG_EEspclsr3stdE7declvalISH_EEEEOSG_DpOSH_, 
                       __ZN4absl12lts_2021110213base_internal6invokeINS0_16variant_internal25VariantMoveBaseNontrivialIJN9grpc_core19LoadBalancingPolicy10PickResult8CompleteENS7_5QueueENS7_4FailENS7_4DropEEE9ConstructEJNSt3__117integral_constantImLm0EEEEEEDTclsr7InvokerIT_DpT0_E4typeE6Invokeclsr3stdE7declvalISH_EEspclsr3stdE7declvalISI_EEEEOSH_DpOSI_, 
                       __ZN4absl12lts_2021110213base_internal6invokeINS0_16variant_internal25VariantMoveBaseNontrivialIJN9grpc_core19LoadBalancingPolicy10PickResult8CompleteENS7_5QueueENS7_4FailENS7_4DropEEE9ConstructEJNSt3__117integral_constantImLm18446744073709551615EEEEEEDTclsr7InvokerIT_DpT0_E4typeE6Invokeclsr3stdE7declvalISH_EEspclsr3stdE7declvalISI_EEEEOSH_DpOSI_, 
                       __ZN4absl12lts_2021110213base_internal6invokeINS0_16variant_internal25VariantMoveBaseNontrivialIJN9grpc_core19LoadBalancingPolicy10PickResult8CompleteENS7_5QueueENS7_4FailENS7_4DropEEE9ConstructEJNSt3__117integral_constantImLm1EEEEEEDTclsr7InvokerIT_DpT0_E4typeE6Invokeclsr3stdE7declvalISH_EEspclsr3stdE7declvalISI_EEEEOSH_DpOSI_, 
                       __ZN4absl12lts_2021110213base_internal6invokeINS0_16variant_internal25VariantMoveBaseNontrivialIJN9grpc_core19LoadBalancingPolicy10PickResult8CompleteENS7_5QueueENS7_4FailENS7_4DropEEE9ConstructEJNSt3__117integral_constantImLm2EEEEEEDTclsr7InvokerIT_DpT0_E4typeE6Invokeclsr3stdE7declvalISH_EEspclsr3stdE7declvalISI_EEEEOSH_DpOSI_, 
                       __ZN4absl12lts_2021110213base_internal6invokeINS0_16variant_internal25VariantMoveBaseNontrivialIJN9grpc_core19LoadBalancingPolicy10PickResult8CompleteENS7_5QueueENS7_4FailENS7_4DropEEE9ConstructEJNSt3__117integral_constantImLm3EEEEEEDTclsr7InvokerIT_DpT0_E4typeE6Invokeclsr3stdE7declvalISH_EEspclsr3stdE7declvalISI_EEEEOSH_DpOSI_, 
                       __ZN4absl12lts_2021110213base_internal6invokeINS0_16variant_internal25VariantMoveBaseNontrivialIJN9grpc_core22XdsRouteConfigResource5Route13UnknownActionENS7_11RouteActionENS7_19NonForwardingActionEEE9ConstructEJNSt3__117integral_constantImLm0EEEEEEDTclsr7InvokerIT_DpT0_E4typeE6Invokeclsr3stdE7declvalISG_EEspclsr3stdE7declvalISH_EEEEOSG_DpOSH_, 
                       __ZN4absl12lts_2021110213base_internal6invokeINS0_16variant_internal25VariantMoveBaseNontrivialIJN9grpc_core22XdsRouteConfigResource5Route13UnknownActionENS7_11RouteActionENS7_19NonForwardingActionEEE9ConstructEJNSt3__117integral_constantImLm18446744073709551615EEEEEEDTclsr7InvokerIT_DpT0_E4typeE6Invokeclsr3stdE7declvalISG_EEspclsr3stdE7declvalISH_EEEEOSG_DpOSH_, 
                       __ZN4absl12lts_2021110213base_internal6invokeINS0_16variant_internal25VariantMoveBaseNontrivialIJN9grpc_core22XdsRouteConfigResource5Route13UnknownActionENS7_11RouteActionENS7_19NonForwardingActionEEE9ConstructEJNSt3__117integral_constantImLm1EEEEEEDTclsr7InvokerIT_DpT0_E4typeE6Invokeclsr3stdE7declvalISG_EEspclsr3stdE7declvalISH_EEEEOSG_DpOSH_, 
                       __ZN4absl12lts_2021110213base_internal6invokeINS0_16variant_internal25VariantMoveBaseNontrivialIJN9grpc_core22XdsRouteConfigResource5Route13UnknownActionENS7_11RouteActionENS7_19NonForwardingActionEEE9ConstructEJNSt3__117integral_constantImLm2EEEEEEDTclsr7InvokerIT_DpT0_E4typeE6Invokeclsr3stdE7declvalISG_EEspclsr3stdE7declvalISH_EEEEOSG_DpOSH_, 
                       __ZN4absl12lts_2021110213base_internal6invokeINS0_16variant_internal25VariantMoveBaseNontrivialIJN9grpc_core5SliceENS0_4SpanIKhEENSt3__16vectorIhNSA_9allocatorIhEEEEEE9ConstructEJNSA_17integral_constantImLm0EEEEEEDTclsr7InvokerIT_DpT0_E4typeE6Invokeclsr3stdE7declvalISJ_EEspclsr3stdE7declvalISK_EEEEOSJ_DpOSK_, 
                       __ZN4absl12lts_2021110213base_internal6invokeINS0_16variant_internal25VariantMoveBaseNontrivialIJN9grpc_core5SliceENS0_4SpanIKhEENSt3__16vectorIhNSA_9allocatorIhEEEEEE9ConstructEJNSA_17integral_constantImLm18446744073709551615EEEEEEDTclsr7InvokerIT_DpT0_E4typeE6Invokeclsr3stdE7declvalISJ_EEspclsr3stdE7declvalISK_EEEEOSJ_DpOSK_, 
                       __ZN4absl12lts_2021110213base_internal6invokeINS0_16variant_internal25VariantMoveBaseNontrivialIJN9grpc_core5SliceENS0_4SpanIKhEENSt3__16vectorIhNSA_9allocatorIhEEEEEE9ConstructEJNSA_17integral_constantImLm1EEEEEEDTclsr7InvokerIT_DpT0_E4typeE6Invokeclsr3stdE7declvalISJ_EEspclsr3stdE7declvalISK_EEEEOSJ_DpOSK_, 
                       __ZN4absl12lts_2021110213base_internal6invokeINS0_16variant_internal25VariantMoveBaseNontrivialIJN9grpc_core5SliceENS0_4SpanIKhEENSt3__16vectorIhNSA_9allocatorIhEEEEEE9ConstructEJNSA_17integral_constantImLm2EEEEEEDTclsr7InvokerIT_DpT0_E4typeE6Invokeclsr3stdE7declvalISJ_EEspclsr3stdE7declvalISK_EEEEOSJ_DpOSK_, 
                       __ZN4absl12lts_2021110213base_internal6invokeINS0_16variant_internal25VariantMoveBaseNontrivialIJN9grpc_core7PendingENS0_6StatusEEE9ConstructEJNSt3__117integral_constantImLm0EEEEEEDTclsr7InvokerIT_DpT0_E4typeE6Invokeclsr3stdE7declvalISD_EEspclsr3stdE7declvalISE_EEEEOSD_DpOSE_, 
                       __ZN4absl12lts_2021110213base_internal6invokeINS0_16variant_internal25VariantMoveBaseNontrivialIJN9grpc_core7PendingENS0_6StatusEEE9ConstructEJNSt3__117integral_constantImLm18446744073709551615EEEEEEDTclsr7InvokerIT_DpT0_E4typeE6Invokeclsr3stdE7declvalISD_EEspclsr3stdE7declvalISE_EEEEOSD_DpOSE_, 
                       __ZN4absl12lts_2021110213base_internal6invokeINS0_16variant_internal25VariantMoveBaseNontrivialIJN9grpc_core7PendingENS0_6StatusEEE9ConstructEJNSt3__117integral_constantImLm1EEEEEEDTclsr7InvokerIT_DpT0_E4typeE6Invokeclsr3stdE7declvalISD_EEspclsr3stdE7declvalISE_EEEEOSD_DpOSE_, 
                       __ZN4absl12lts_2021110213base_internal6invokeINS0_16variant_internal25VariantMoveBaseNontrivialIJN9grpc_core7PendingENS0_7variantIJNS5_8ContinueENS0_6StatusEEEEEE9ConstructEJNSt3__117integral_constantImLm0EEEEEEDTclsr7InvokerIT_DpT0_E4typeE6Invokeclsr3stdE7declvalISG_EEspclsr3stdE7declvalISH_EEEEOSG_DpOSH_, 
                       __ZN4absl12lts_2021110213base_internal6invokeINS0_16variant_internal25VariantMoveBaseNontrivialIJN9grpc_core7PendingENS0_7variantIJNS5_8ContinueENS0_6StatusEEEEEE9ConstructEJNSt3__117integral_constantImLm18446744073709551615EEEEEEDTclsr7InvokerIT_DpT0_E4typeE6Invokeclsr3stdE7declvalISG_EEspclsr3stdE7declvalISH_EEEEOSG_DpOSH_, 
                       __ZN4absl12lts_2021110213base_internal6invokeINS0_16variant_internal25VariantMoveBaseNontrivialIJN9grpc_core7PendingENS0_7variantIJNS5_8ContinueENS0_6StatusEEEEEE9ConstructEJNSt3__117integral_constantImLm1EEEEEEDTclsr7InvokerIT_DpT0_E4typeE6Invokeclsr3stdE7declvalISG_EEspclsr3stdE7declvalISH_EEEEOSG_DpOSH_, 
                       __ZN4absl12lts_2021110213base_internal6invokeINS0_16variant_internal25VariantMoveBaseNontrivialIJN9grpc_core7PendingENSt3__15tupleIJPKcNS7_8functionIFvNS0_8optionalINS5_16ReclamationSweepEEEEEEEEEEE9ConstructEJNS7_17integral_constantImLm0EEEEEEDTclsr7InvokerIT_DpT0_E4typeE6Invokeclsr3stdE7declvalISM_EEspclsr3stdE7declvalISN_EEEEOSM_DpOSN_, 
                       __ZN4absl12lts_2021110213base_internal6invokeINS0_16variant_internal25VariantMoveBaseNontrivialIJN9grpc_core7PendingENSt3__15tupleIJPKcNS7_8functionIFvNS0_8optionalINS5_16ReclamationSweepEEEEEEEEEEE9ConstructEJNS7_17integral_constantImLm18446744073709551615EEEEEEDTclsr7InvokerIT_DpT0_E4typeE6Invokeclsr3stdE7declvalISM_EEspclsr3stdE7declvalISN_EEEEOSM_DpOSN_, 
                       __ZN4absl12lts_2021110213base_internal6invokeINS0_16variant_internal25VariantMoveBaseNontrivialIJN9grpc_core7PendingENSt3__15tupleIJPKcNS7_8functionIFvNS0_8optionalINS5_16ReclamationSweepEEEEEEEEEEE9ConstructEJNS7_17integral_constantImLm1EEEEEEDTclsr7InvokerIT_DpT0_E4typeE6Invokeclsr3stdE7declvalISM_EEspclsr3stdE7declvalISN_EEEEOSM_DpOSN_, 
                       __ZN4absl12lts_2021110213base_internal6invokeINS0_16variant_internal25VariantMoveBaseNontrivialIJN9grpc_core7PendingENSt3__18functionIFvNS0_8optionalINS5_16ReclamationSweepEEEEEEEE9ConstructEJNS7_17integral_constantImLm0EEEEEEDTclsr7InvokerIT_DpT0_E4typeE6Invokeclsr3stdE7declvalISI_EEspclsr3stdE7declvalISJ_EEEEOSI_DpOSJ_, 
                       __ZN4absl12lts_2021110213base_internal6invokeINS0_16variant_internal25VariantMoveBaseNontrivialIJN9grpc_core7PendingENSt3__18functionIFvNS0_8optionalINS5_16ReclamationSweepEEEEEEEE9ConstructEJNS7_17integral_constantImLm18446744073709551615EEEEEEDTclsr7InvokerIT_DpT0_E4typeE6Invokeclsr3stdE7declvalISI_EEspclsr3stdE7declvalISJ_EEEEOSI_DpOSJ_, 
                       __ZN4absl12lts_2021110213base_internal6invokeINS0_16variant_internal25VariantMoveBaseNontrivialIJN9grpc_core7PendingENSt3__18functionIFvNS0_8optionalINS5_16ReclamationSweepEEEEEEEE9ConstructEJNS7_17integral_constantImLm1EEEEEEDTclsr7InvokerIT_DpT0_E4typeE6Invokeclsr3stdE7declvalISI_EEspclsr3stdE7declvalISJ_EEEEOSI_DpOSJ_, 
                       __ZN4absl12lts_2021110213base_internal6invokeINS0_16variant_internal25VariantMoveBaseNontrivialIJN9grpc_core8ContinueENS0_6StatusEEE9ConstructEJNSt3__117integral_constantImLm0EEEEEEDTclsr7InvokerIT_DpT0_E4typeE6Invokeclsr3stdE7declvalISD_EEspclsr3stdE7declvalISE_EEEEOSD_DpOSE_, 
                       __ZN4absl12lts_2021110213base_internal6invokeINS0_16variant_internal25VariantMoveBaseNontrivialIJN9grpc_core8ContinueENS0_6StatusEEE9ConstructEJNSt3__117integral_constantImLm18446744073709551615EEEEEEDTclsr7InvokerIT_DpT0_E4typeE6Invokeclsr3stdE7declvalISD_EEspclsr3stdE7declvalISE_EEEEOSD_DpOSE_, 
                       __ZN4absl12lts_2021110213base_internal6invokeINS0_16variant_internal25VariantMoveBaseNontrivialIJN9grpc_core8ContinueENS0_6StatusEEE9ConstructEJNSt3__117integral_constantImLm1EEEEEEDTclsr7InvokerIT_DpT0_E4typeE6Invokeclsr3stdE7declvalISD_EEspclsr3stdE7declvalISE_EEEEOSD_DpOSE_, 
                       __ZN4absl12lts_2021110213base_internal6invokeINS0_16variant_internal36VariantStateBaseDestructorNontrivialIJN9grpc_core19LoadBalancingPolicy10PickResult8CompleteENS7_5QueueENS7_4FailENS7_4DropEEE9DestroyerEJNSt3__117integral_constantImLm0EEEEEEDTclsr7InvokerIT_DpT0_E4typeE6Invokeclsr3stdE7declvalISH_EEspclsr3stdE7declvalISI_EEEEOSH_DpOSI_, 
                       __ZN4absl12lts_2021110213base_internal6invokeINS0_16variant_internal36VariantStateBaseDestructorNontrivialIJN9grpc_core19LoadBalancingPolicy10PickResult8CompleteENS7_5QueueENS7_4FailENS7_4DropEEE9DestroyerEJNSt3__117integral_constantImLm18446744073709551615EEEEEEDTclsr7InvokerIT_DpT0_E4typeE6Invokeclsr3stdE7declvalISH_EEspclsr3stdE7declvalISI_EEEEOSH_DpOSI_, 
                       __ZN4absl12lts_2021110213base_internal6invokeINS0_16variant_internal36VariantStateBaseDestructorNontrivialIJN9grpc_core19LoadBalancingPolicy10PickResult8CompleteENS7_5QueueENS7_4FailENS7_4DropEEE9DestroyerEJNSt3__117integral_constantImLm1EEEEEEDTclsr7InvokerIT_DpT0_E4typeE6Invokeclsr3stdE7declvalISH_EEspclsr3stdE7declvalISI_EEEEOSH_DpOSI_, 
                       __ZN4absl12lts_2021110213base_internal6invokeINS0_16variant_internal36VariantStateBaseDestructorNontrivialIJN9grpc_core19LoadBalancingPolicy10PickResult8CompleteENS7_5QueueENS7_4FailENS7_4DropEEE9DestroyerEJNSt3__117integral_constantImLm2EEEEEEDTclsr7InvokerIT_DpT0_E4typeE6Invokeclsr3stdE7declvalISH_EEspclsr3stdE7declvalISI_EEEEOSH_DpOSI_, 
                       __ZN4absl12lts_2021110213base_internal6invokeINS0_16variant_internal36VariantStateBaseDestructorNontrivialIJN9grpc_core19LoadBalancingPolicy10PickResult8CompleteENS7_5QueueENS7_4FailENS7_4DropEEE9DestroyerEJNSt3__117integral_constantImLm3EEEEEEDTclsr7InvokerIT_DpT0_E4typeE6Invokeclsr3stdE7declvalISH_EEspclsr3stdE7declvalISI_EEEEOSH_DpOSI_, 
                       __ZN4absl12lts_2021110213base_internal6invokeINS0_16variant_internal36VariantStateBaseDestructorNontrivialIJN9grpc_core22XdsRouteConfigResource5Route13UnknownActionENS7_11RouteActionENS7_19NonForwardingActionEEE9DestroyerEJNSt3__117integral_constantImLm0EEEEEEDTclsr7InvokerIT_DpT0_E4typeE6Invokeclsr3stdE7declvalISG_EEspclsr3stdE7declvalISH_EEEEOSG_DpOSH_, 
                       __ZN4absl12lts_2021110213base_internal6invokeINS0_16variant_internal36VariantStateBaseDestructorNontrivialIJN9grpc_core22XdsRouteConfigResource5Route13UnknownActionENS7_11RouteActionENS7_19NonForwardingActionEEE9DestroyerEJNSt3__117integral_constantImLm18446744073709551615EEEEEEDTclsr7InvokerIT_DpT0_E4typeE6Invokeclsr3stdE7declvalISG_EEspclsr3stdE7declvalISH_EEEEOSG_DpOSH_, 
                       __ZN4absl12lts_2021110213base_internal6invokeINS0_16variant_internal36VariantStateBaseDestructorNontrivialIJN9grpc_core22XdsRouteConfigResource5Route13UnknownActionENS7_11RouteActionENS7_19NonForwardingActionEEE9DestroyerEJNSt3__117integral_constantImLm1EEEEEEDTclsr7InvokerIT_DpT0_E4typeE6Invokeclsr3stdE7declvalISG_EEspclsr3stdE7declvalISH_EEEEOSG_DpOSH_, 
                       __ZN4absl12lts_2021110213base_internal6invokeINS0_16variant_internal36VariantStateBaseDestructorNontrivialIJN9grpc_core22XdsRouteConfigResource5Route13UnknownActionENS7_11RouteActionENS7_19NonForwardingActionEEE9DestroyerEJNSt3__117integral_constantImLm2EEEEEEDTclsr7InvokerIT_DpT0_E4typeE6Invokeclsr3stdE7declvalISG_EEspclsr3stdE7declvalISH_EEEEOSG_DpOSH_, 
                       __ZN4absl12lts_2021110213base_internal6invokeINS0_16variant_internal36VariantStateBaseDestructorNontrivialIJN9grpc_core5SliceENS0_4SpanIKhEENSt3__16vectorIhNSA_9allocatorIhEEEEEE9DestroyerEJNSA_17integral_constantImLm0EEEEEEDTclsr7InvokerIT_DpT0_E4typeE6Invokeclsr3stdE7declvalISJ_EEspclsr3stdE7declvalISK_EEEEOSJ_DpOSK_, 
                       __ZN4absl12lts_2021110213base_internal6invokeINS0_16variant_internal36VariantStateBaseDestructorNontrivialIJN9grpc_core5SliceENS0_4SpanIKhEENSt3__16vectorIhNSA_9allocatorIhEEEEEE9DestroyerEJNSA_17integral_constantImLm18446744073709551615EEEEEEDTclsr7InvokerIT_DpT0_E4typeE6Invokeclsr3stdE7declvalISJ_EEspclsr3stdE7declvalISK_EEEEOSJ_DpOSK_, 
                       __ZN4absl12lts_2021110213base_internal6invokeINS0_16variant_internal36VariantStateBaseDestructorNontrivialIJN9grpc_core5SliceENS0_4SpanIKhEENSt3__16vectorIhNSA_9allocatorIhEEEEEE9DestroyerEJNSA_17integral_constantImLm1EEEEEEDTclsr7InvokerIT_DpT0_E4typeE6Invokeclsr3stdE7declvalISJ_EEspclsr3stdE7declvalISK_EEEEOSJ_DpOSK_, 
                       __ZN4absl12lts_2021110213base_internal6invokeINS0_16variant_internal36VariantStateBaseDestructorNontrivialIJN9grpc_core5SliceENS0_4SpanIKhEENSt3__16vectorIhNSA_9allocatorIhEEEEEE9DestroyerEJNSA_17integral_constantImLm2EEEEEEDTclsr7InvokerIT_DpT0_E4typeE6Invokeclsr3stdE7declvalISJ_EEspclsr3stdE7declvalISK_EEEEOSJ_DpOSK_, 
                       __ZN4absl12lts_2021110213base_internal6invokeINS0_16variant_internal36VariantStateBaseDestructorNontrivialIJN9grpc_core7PendingENS0_6StatusEEE9DestroyerEJNSt3__117integral_constantImLm0EEEEEEDTclsr7InvokerIT_DpT0_E4typeE6Invokeclsr3stdE7declvalISD_EEspclsr3stdE7declvalISE_EEEEOSD_DpOSE_, 
                       __ZN4absl12lts_2021110213base_internal6invokeINS0_16variant_internal36VariantStateBaseDestructorNontrivialIJN9grpc_core7PendingENS0_6StatusEEE9DestroyerEJNSt3__117integral_constantImLm18446744073709551615EEEEEEDTclsr7InvokerIT_DpT0_E4typeE6Invokeclsr3stdE7declvalISD_EEspclsr3stdE7declvalISE_EEEEOSD_DpOSE_, 
                       __ZN4absl12lts_2021110213base_internal6invokeINS0_16variant_internal36VariantStateBaseDestructorNontrivialIJN9grpc_core7PendingENS0_6StatusEEE9DestroyerEJNSt3__117integral_constantImLm1EEEEEEDTclsr7InvokerIT_DpT0_E4typeE6Invokeclsr3stdE7declvalISD_EEspclsr3stdE7declvalISE_EEEEOSD_DpOSE_, 
                       __ZN4absl12lts_2021110213base_internal6invokeINS0_16variant_internal36VariantStateBaseDestructorNontrivialIJN9grpc_core7PendingENS0_7variantIJNS5_8ContinueENS0_6StatusEEEEEE9DestroyerEJNSt3__117integral_constantImLm0EEEEEEDTclsr7InvokerIT_DpT0_E4typeE6Invokeclsr3stdE7declvalISG_EEspclsr3stdE7declvalISH_EEEEOSG_DpOSH_, 
                       __ZN4absl12lts_2021110213base_internal6invokeINS0_16variant_internal36VariantStateBaseDestructorNontrivialIJN9grpc_core7PendingENS0_7variantIJNS5_8ContinueENS0_6StatusEEEEEE9DestroyerEJNSt3__117integral_constantImLm18446744073709551615EEEEEEDTclsr7InvokerIT_DpT0_E4typeE6Invokeclsr3stdE7declvalISG_EEspclsr3stdE7declvalISH_EEEEOSG_DpOSH_, 
                       __ZN4absl12lts_2021110213base_internal6invokeINS0_16variant_internal36VariantStateBaseDestructorNontrivialIJN9grpc_core7PendingENS0_7variantIJNS5_8ContinueENS0_6StatusEEEEEE9DestroyerEJNSt3__117integral_constantImLm1EEEEEEDTclsr7InvokerIT_DpT0_E4typeE6Invokeclsr3stdE7declvalISG_EEspclsr3stdE7declvalISH_EEEEOSG_DpOSH_, 
                       __ZN4absl12lts_2021110213base_internal6invokeINS0_16variant_internal36VariantStateBaseDestructorNontrivialIJN9grpc_core7PendingENSt3__15tupleIJPKcNS7_8functionIFvNS0_8optionalINS5_16ReclamationSweepEEEEEEEEEEE9DestroyerEJNS7_17integral_constantImLm0EEEEEEDTclsr7InvokerIT_DpT0_E4typeE6Invokeclsr3stdE7declvalISM_EEspclsr3stdE7declvalISN_EEEEOSM_DpOSN_, 
                       __ZN4absl12lts_2021110213base_internal6invokeINS0_16variant_internal36VariantStateBaseDestructorNontrivialIJN9grpc_core7PendingENSt3__15tupleIJPKcNS7_8functionIFvNS0_8optionalINS5_16ReclamationSweepEEEEEEEEEEE9DestroyerEJNS7_17integral_constantImLm18446744073709551615EEEEEEDTclsr7InvokerIT_DpT0_E4typeE6Invokeclsr3stdE7declvalISM_EEspclsr3stdE7declvalISN_EEEEOSM_DpOSN_, 
                       __ZN4absl12lts_2021110213base_internal6invokeINS0_16variant_internal36VariantStateBaseDestructorNontrivialIJN9grpc_core7PendingENSt3__15tupleIJPKcNS7_8functionIFvNS0_8optionalINS5_16ReclamationSweepEEEEEEEEEEE9DestroyerEJNS7_17integral_constantImLm1EEEEEEDTclsr7InvokerIT_DpT0_E4typeE6Invokeclsr3stdE7declvalISM_EEspclsr3stdE7declvalISN_EEEEOSM_DpOSN_, 
                       __ZN4absl12lts_2021110213base_internal6invokeINS0_16variant_internal36VariantStateBaseDestructorNontrivialIJN9grpc_core7PendingENSt3__18functionIFvNS0_8optionalINS5_16ReclamationSweepEEEEEEEE9DestroyerEJNS7_17integral_constantImLm0EEEEEEDTclsr7InvokerIT_DpT0_E4typeE6Invokeclsr3stdE7declvalISI_EEspclsr3stdE7declvalISJ_EEEEOSI_DpOSJ_, 
                       __ZN4absl12lts_2021110213base_internal6invokeINS0_16variant_internal36VariantStateBaseDestructorNontrivialIJN9grpc_core7PendingENSt3__18functionIFvNS0_8optionalINS5_16ReclamationSweepEEEEEEEE9DestroyerEJNS7_17integral_constantImLm18446744073709551615EEEEEEDTclsr7InvokerIT_DpT0_E4typeE6Invokeclsr3stdE7declvalISI_EEspclsr3stdE7declvalISJ_EEEEOSI_DpOSJ_, 
                       __ZN4absl12lts_2021110213base_internal6invokeINS0_16variant_internal36VariantStateBaseDestructorNontrivialIJN9grpc_core7PendingENSt3__18functionIFvNS0_8optionalINS5_16ReclamationSweepEEEEEEEE9DestroyerEJNS7_17integral_constantImLm1EEEEEEDTclsr7InvokerIT_DpT0_E4typeE6Invokeclsr3stdE7declvalISI_EEspclsr3stdE7declvalISJ_EEEEOSI_DpOSJ_, 
                       __ZN4absl12lts_2021110213base_internal6invokeINS0_16variant_internal36VariantStateBaseDestructorNontrivialIJN9grpc_core8ContinueENS0_6StatusEEE9DestroyerEJNSt3__117integral_constantImLm0EEEEEEDTclsr7InvokerIT_DpT0_E4typeE6Invokeclsr3stdE7declvalISD_EEspclsr3stdE7declvalISE_EEEEOSD_DpOSE_, 
                       __ZN4absl12lts_2021110213base_internal6invokeINS0_16variant_internal36VariantStateBaseDestructorNontrivialIJN9grpc_core8ContinueENS0_6StatusEEE9DestroyerEJNSt3__117integral_constantImLm18446744073709551615EEEEEEDTclsr7InvokerIT_DpT0_E4typeE6Invokeclsr3stdE7declvalISD_EEspclsr3stdE7declvalISE_EEEEOSD_DpOSE_, 
                       __ZN4absl12lts_2021110213base_internal6invokeINS0_16variant_internal36VariantStateBaseDestructorNontrivialIJN9grpc_core8ContinueENS0_6StatusEEE9DestroyerEJNSt3__117integral_constantImLm1EEEEEEDTclsr7InvokerIT_DpT0_E4typeE6Invokeclsr3stdE7declvalISD_EEspclsr3stdE7declvalISE_EEEEOSD_DpOSE_, 
                       __ZN4absl12lts_2021110213base_internal6invokeINS0_16variant_internal8EqualsOpIJN9grpc_core22XdsRouteConfigResource5Route13UnknownActionENS7_11RouteActionENS7_19NonForwardingActionEEEEJNSt3__117integral_constantImLm0EEEEEEDTclsr7InvokerIT_DpT0_E4typeE6Invokeclsr3stdE7declvalISF_EEspclsr3stdE7declvalISG_EEEEOSF_DpOSG_, 
                       __ZN4absl12lts_2021110213base_internal6invokeINS0_16variant_internal8EqualsOpIJN9grpc_core22XdsRouteConfigResource5Route13UnknownActionENS7_11RouteActionENS7_19NonForwardingActionEEEEJNSt3__117integral_constantImLm18446744073709551615EEEEEEDTclsr7InvokerIT_DpT0_E4typeE6Invokeclsr3stdE7declvalISF_EEspclsr3stdE7declvalISG_EEEEOSF_DpOSG_, 
                       __ZN4absl12lts_2021110213base_internal6invokeINS0_16variant_internal8EqualsOpIJN9grpc_core22XdsRouteConfigResource5Route13UnknownActionENS7_11RouteActionENS7_19NonForwardingActionEEEEJNSt3__117integral_constantImLm1EEEEEEDTclsr7InvokerIT_DpT0_E4typeE6Invokeclsr3stdE7declvalISF_EEspclsr3stdE7declvalISG_EEEEOSF_DpOSG_, 
                       __ZN4absl12lts_2021110213base_internal6invokeINS0_16variant_internal8EqualsOpIJN9grpc_core22XdsRouteConfigResource5Route13UnknownActionENS7_11RouteActionENS7_19NonForwardingActionEEEEJNSt3__117integral_constantImLm2EEEEEEDTclsr7InvokerIT_DpT0_E4typeE6Invokeclsr3stdE7declvalISF_EEspclsr3stdE7declvalISG_EEEEOSF_DpOSG_, 
                       __ZN4absl12lts_2021110213base_internal6invokeIRMN9grpc_core22XdsCertificateProviderEFvNSt3__112basic_stringIcNS5_11char_traitsIcEENS5_9allocatorIcEEEEbbEJRPS4_SB_bbEEEDTclsr7InvokerIT_DpT0_E4typeE6Invokeclsr3stdE7declvalISH_EEspclsr3stdE7declvalISI_EEEEOSH_DpOSI_, 
                       __ZN4absl12lts_2021110213base_internal6invokeIRMN9grpc_core26TlsServerSecurityConnector28ServerPendingVerifierRequestEFvbNS0_6StatusEEJRPS5_RbS6_EEEDTclsr7InvokerIT_DpT0_E4typeE6Invokeclsr3stdE7declvalISD_EEspclsr3stdE7declvalISE_EEEEOSD_DpOSE_, 
                       __ZN4absl12lts_2021110213base_internal6invokeIRMN9grpc_core27TlsChannelSecurityConnector29ChannelPendingVerifierRequestEFvbNS0_6StatusEEJRPS5_RbS6_EEEDTclsr7InvokerIT_DpT0_E4typeE6Invokeclsr3stdE7declvalISD_EEspclsr3stdE7declvalISE_EEEEOSD_DpOSE_, 
                       __ZN4absl12lts_2021110213hash_internal10hash_bytesINS1_15MixingHashStateEmEET_S4_RKT0_, 
                       __ZN4absl12lts_2021110213hash_internal13HashStateBaseINS1_15MixingHashStateEE7combineImJEEES3_S3_RKT_DpRKT0_, 
                       __ZN4absl12lts_2021110213hash_internal13HashStateBaseINS1_15MixingHashStateEE7combineImJmEEES3_S3_RKT_DpRKT0_, 
                       __ZN4absl12lts_2021110215random_internal15FastUniformBitsIyE8GenerateINS1_17NonsecureURBGBaseINS1_13randen_engineIyEEEEEEyRT_NS1_17SimplifiedLoopTagE, 
                       __ZN4absl12lts_2021110215random_internal15FastUniformBitsIyEclINS1_17NonsecureURBGBaseINS1_13randen_engineIyEEEEEEyRT_, 
                       __ZN4absl12lts_2021110215random_internal19uniform_lower_boundIdNS0_21IntervalClosedOpenTagEEENSt3__19enable_ifIXsr4absl11disjunctionINS4_7is_sameIT0_NS0_23IntervalClosedClosedTagEEENS6_IS7_S3_EEEE5valueET_E4typeES7_SB_SB_, 
                       __ZN4absl12lts_2021110215random_internal19uniform_upper_boundIdNS0_21IntervalClosedOpenTagEEENSt3__19enable_ifIXsr4absl11conjunctionINS4_17is_floating_pointIT_EENS0_11disjunctionIJNS4_7is_sameIT0_S3_EENSA_ISB_NS0_19IntervalOpenOpenTagEEEEEEEE5valueES7_E4typeESB_S7_S7_, 
                       __ZN4absl12lts_2021110215random_internal22is_uniform_range_validIdEENSt3__19enable_ifIXsr3std17is_floating_pointIT_EE5valueEbE4typeES5_S5_, 
                       __ZN4absl12lts_2021110216numbers_internal15FastIntToBufferImEEPcT_S3_, 
                       __ZN4absl12lts_2021110216numbers_internal16safe_strtoi_baseI16grpc_status_codeEEbNS0_11string_viewEPT_i, 
                       __ZN4absl12lts_2021110216numbers_internal16safe_strtoi_baseIiEEbNS0_11string_viewEPT_i, 
                       __ZN4absl12lts_2021110216numbers_internal16safe_strtoi_baseIjEEbNS0_11string_viewEPT_i, 
                       __ZN4absl12lts_2021110216numbers_internal16safe_strtoi_baseIlEEbNS0_11string_viewEPT_i, 
                       __ZN4absl12lts_2021110216numbers_internal16safe_strtoi_baseIxEEbNS0_11string_viewEPT_i, 
                       __ZN4absl12lts_2021110216numbers_internal16safe_strtoi_baseIyEEbNS0_11string_viewEPT_i, 
                       __ZN4absl12lts_2021110216strings_internal13JoinAlgorithmINSt3__111__wrap_iterIPKNS0_11string_viewEEEvEENS3_12basic_stringIcNS3_11char_traitsIcEENS3_9allocatorIcEEEET_SF_S5_NS1_11NoFormatterE, 
                       __ZN4absl12lts_2021110216strings_internal13JoinAlgorithmINSt3__111__wrap_iterIPKNS3_12basic_stringIcNS3_11char_traitsIcEENS3_9allocatorIcEEEEEEvEESA_T_SE_NS0_11string_viewENS1_11NoFormatterE, 
                       __ZN4absl12lts_2021110216strings_internal13JoinAlgorithmINSt3__111__wrap_iterIPKjEENS1_21AlphaNumFormatterImplEEENS3_12basic_stringIcNS3_11char_traitsIcEENS3_9allocatorIcEEEET_SF_NS0_11string_viewEOT0_, 
                       __ZN4absl12lts_2021110216strings_internal13JoinAlgorithmINSt3__120__map_const_iteratorINS3_21__tree_const_iteratorINS3_12__value_typeINS3_12basic_stringIcNS3_11char_traitsIcEENS3_9allocatorIcEEEESC_EEPNS3_11__tree_nodeISD_PvEElEEEERNS1_17PairFormatterImplINS1_21AlphaNumFormatterImplESL_EEEESC_T_SO_NS0_11string_viewEOT0_, 
                       __ZN4absl12lts_2021110216strings_internal13JoinAlgorithmINSt3__121__tree_const_iteratorINS3_12basic_stringIcNS3_11char_traitsIcEENS3_9allocatorIcEEEEPNS3_11__tree_nodeISA_PvEElEEvEESA_T_SG_NS0_11string_viewENS1_11NoFormatterE, 
                       __ZN4absl12lts_2021110216strings_internal13JoinAlgorithmIPKNSt3__112basic_stringIcNS3_11char_traitsIcEENS3_9allocatorIcEEEEvEES9_T_SC_NS0_11string_viewENS1_11NoFormatterE, 
                       __ZN4absl12lts_2021110216strings_internal13JoinAlgorithmIPKPKcNS1_21AlphaNumFormatterImplEEENSt3__112basic_stringIcNS8_11char_traitsIcEENS8_9allocatorIcEEEET_SF_NS0_11string_viewEOT0_, 
                       __ZN4absl12lts_2021110216strings_internal9JoinRangeINS0_13InlinedVectorINSt3__112basic_stringIcNS4_11char_traitsIcEENS4_9allocatorIcEEEELm2ENS8_ISA_EEEEEESA_RKT_NS0_11string_viewE, 
                       __ZN4absl12lts_2021110216strings_internal9JoinRangeINS0_13InlinedVectorINSt3__112basic_stringIcNS4_11char_traitsIcEENS4_9allocatorIcEEEELm4ENS8_ISA_EEEEEESA_RKT_NS0_11string_viewE, 
                       __ZN4absl12lts_2021110216strings_internal9JoinRangeINS0_13InlinedVectorINSt3__112basic_stringIcNS4_11char_traitsIcEENS4_9allocatorIcEEEELm8ENS8_ISA_EEEEEESA_RKT_NS0_11string_viewE, 
                       __ZN4absl12lts_2021110216strings_internal9JoinRangeINS0_13InlinedVectorIPKcLm3ENSt3__19allocatorIS5_EEEEEENS6_12basic_stringIcNS6_11char_traitsIcEENS7_IcEEEERKT_NS0_11string_viewE, 
                       __ZN4absl12lts_2021110216strings_internal9JoinRangeINSt3__111__wrap_iterIPKNS0_11string_viewEEEEENS3_12basic_stringIcNS3_11char_traitsIcEENS3_9allocatorIcEEEET_SF_S5_, 
                       __ZN4absl12lts_2021110216strings_internal9JoinRangeINSt3__111__wrap_iterIPKNS3_12basic_stringIcNS3_11char_traitsIcEENS3_9allocatorIcEEEEEEEESA_T_SE_NS0_11string_viewE, 
                       __ZN4absl12lts_2021110216strings_internal9JoinRangeINSt3__111__wrap_iterIPKjEEEENS3_12basic_stringIcNS3_11char_traitsIcEENS3_9allocatorIcEEEET_SE_NS0_11string_viewE, 
                       __ZN4absl12lts_2021110216strings_internal9JoinRangeINSt3__121__tree_const_iteratorINS3_12basic_stringIcNS3_11char_traitsIcEENS3_9allocatorIcEEEEPNS3_11__tree_nodeISA_PvEElEEEESA_T_SG_NS0_11string_viewE, 
                       __ZN4absl12lts_2021110216strings_internal9JoinRangeINSt3__13mapINS3_12basic_stringIcNS3_11char_traitsIcEENS3_9allocatorIcEEEESA_NS3_4lessISA_EENS8_INS3_4pairIKSA_SA_EEEEEERNS1_17PairFormatterImplINS1_21AlphaNumFormatterImplESJ_EEEESA_RKT_NS0_11string_viewEOT0_, 
                       __ZN4absl12lts_2021110216strings_internal9JoinRangeINSt3__13setINS3_12basic_stringIcNS3_11char_traitsIcEENS3_9allocatorIcEEEENS3_4lessISA_EENS8_ISA_EEEEEESA_RKT_NS0_11string_viewE, 
                       __ZN4absl12lts_2021110216strings_internal9JoinRangeINSt3__16vectorINS0_11string_viewENS3_9allocatorIS5_EEEEEENS3_12basic_stringIcNS3_11char_traitsIcEENS6_IcEEEERKT_S5_, 
                       __ZN4absl12lts_2021110216strings_internal9JoinRangeINSt3__16vectorINS3_12basic_stringIcNS3_11char_traitsIcEENS3_9allocatorIcEEEENS8_ISA_EEEEEESA_RKT_NS0_11string_viewE, 
                       __ZN4absl12lts_2021110216strings_internal9JoinRangeINSt3__16vectorIjNS3_9allocatorIjEEEEEENS3_12basic_stringIcNS3_11char_traitsIcEENS5_IcEEEERKT_NS0_11string_viewE, 
                       __ZN4absl12lts_2021110216strings_internal9JoinRangeIPKNSt3__112basic_stringIcNS3_11char_traitsIcEENS3_9allocatorIcEEEEEES9_T_SC_NS0_11string_viewE, 
                       __ZN4absl12lts_2021110216strings_internal9JoinRangeIPKPKcEENSt3__112basic_stringIcNS7_11char_traitsIcEENS7_9allocatorIcEEEET_SE_NS0_11string_viewE, 
                       __ZN4absl12lts_2021110216variant_internal26TypedThrowBadVariantAccessION9grpc_core16BasicMemoryQuota19WaitForSweepPromise5EmptyEEET_v, 
                       __ZN4absl12lts_2021110216variant_internal26TypedThrowBadVariantAccessIONS0_7variantIJN9grpc_core8ContinueENS0_6StatusEEEEEET_v, 
                       __ZN4absl12lts_2021110216variant_internal26TypedThrowBadVariantAccessIONSt3__15tupleIJPKcNS3_8functionIFvNS0_8optionalIN9grpc_core16ReclamationSweepEEEEEEEEEEET_v, 
                       __ZN4absl12lts_2021110216variant_internal26TypedThrowBadVariantAccessIOiEET_v, 
                       __ZN4absl12lts_2021110216variant_internal26TypedThrowBadVariantAccessIRKN9grpc_core22XdsRouteConfigResource5Route11RouteActionEEET_v, 
                       __ZN4absl12lts_2021110216variant_internal26TypedThrowBadVariantAccessIRN9grpc_core22XdsRouteConfigResource5Route11RouteActionEEET_v, 
                       __ZN4absl12lts_2021110216variant_internal26TypedThrowBadVariantAccessIRNS0_6StatusEEET_v, 
                       __ZN4absl12lts_2021110217internal_statusor12PlacementNewIN9grpc_core13RefCountedPtrINS3_13ServiceConfigEEEJRKS6_EEEvPvDpOT0_, 
                       __ZN4absl12lts_2021110217internal_statusor12PlacementNewIN9grpc_core13RefCountedPtrINS3_13ServiceConfigEEEJS6_EEEvPvDpOT0_, 
                       __ZN4absl12lts_2021110217internal_statusor12PlacementNewIN9grpc_core13RefCountedPtrINS3_20ServerConfigSelectorEEEJRKS6_EEEvPvDpOT0_, 
                       __ZN4absl12lts_2021110217internal_statusor12PlacementNewIN9grpc_core13RefCountedPtrINS3_20ServerConfigSelectorEEEJS6_EEEvPvDpOT0_, 
                       __ZN4absl12lts_2021110217internal_statusor12PlacementNewIN9grpc_core22XdsRouteConfigResourceEJRKS4_EEEvPvDpOT0_, 
                       __ZN4absl12lts_2021110217internal_statusor12PlacementNewIN9grpc_core22XdsRouteConfigResourceEJS4_EEEvPvDpOT0_, 
                       __ZN4absl12lts_2021110217internal_statusor12PlacementNewIN9grpc_core3URIEJS4_EEEvPvDpOT0_, 
                       __ZN4absl12lts_2021110217internal_statusor12PlacementNewIN9grpc_core4JsonEJNSt3__13mapINS5_12basic_stringIcNS5_11char_traitsIcEENS5_9allocatorIcEEEES4_NS5_4lessISC_EENSA_INS5_4pairIKSC_S4_EEEEEEEEEvPvDpOT0_, 
                       __ZN4absl12lts_2021110217internal_statusor12PlacementNewIN9grpc_core4JsonEJS4_EEEvPvDpOT0_, 
                       __ZN4absl12lts_2021110217internal_statusor12PlacementNewINS0_13InlinedVectorIN9grpc_core13ServerAddressELm1ENSt3__19allocatorIS5_EEEEJRKS9_EEEvPvDpOT0_, 
                       __ZN4absl12lts_2021110217internal_statusor12PlacementNewINS0_13InlinedVectorIN9grpc_core13ServerAddressELm1ENSt3__19allocatorIS5_EEEEJRS9_EEEvPvDpOT0_, 
                       __ZN4absl12lts_2021110217internal_statusor12PlacementNewINS0_13InlinedVectorIN9grpc_core13ServerAddressELm1ENSt3__19allocatorIS5_EEEEJS9_EEEvPvDpOT0_, 
                       __ZN4absl12lts_2021110217internal_statusor12PlacementNewINS0_6StatusEJEEEvPvDpOT0_, 
                       __ZN4absl12lts_2021110217internal_statusor12PlacementNewINS0_6StatusEJRKS3_EEEvPvDpOT0_, 
                       __ZN4absl12lts_2021110217internal_statusor12PlacementNewINS0_6StatusEJS3_EEEvPvDpOT0_, 
                       __ZN4absl12lts_2021110217internal_statusor12PlacementNewINSt3__110unique_ptrIN9grpc_core15XdsResourceType12ResourceDataENS3_14default_deleteIS7_EEEEJNS4_INS5_19XdsResourceTypeImplINS5_22XdsClusterResourceTypeENS5_18XdsClusterResourceEE20ResourceDataSubclassENS8_ISF_EEEEEEEvPvDpOT0_, 
                       __ZN4absl12lts_2021110217internal_statusor12PlacementNewINSt3__110unique_ptrIN9grpc_core15XdsResourceType12ResourceDataENS3_14default_deleteIS7_EEEEJNS4_INS5_19XdsResourceTypeImplINS5_23XdsEndpointResourceTypeENS5_19XdsEndpointResourceEE20ResourceDataSubclassENS8_ISF_EEEEEEEvPvDpOT0_, 
                       __ZN4absl12lts_2021110217internal_statusor12PlacementNewINSt3__110unique_ptrIN9grpc_core15XdsResourceType12ResourceDataENS3_14default_deleteIS7_EEEEJNS4_INS5_19XdsResourceTypeImplINS5_23XdsListenerResourceTypeENS5_19XdsListenerResourceEE20ResourceDataSubclassENS8_ISF_EEEEEEEvPvDpOT0_, 
                       __ZN4absl12lts_2021110217internal_statusor12PlacementNewINSt3__110unique_ptrIN9grpc_core15XdsResourceType12ResourceDataENS3_14default_deleteIS7_EEEEJNS4_INS5_19XdsResourceTypeImplINS5_26XdsRouteConfigResourceTypeENS5_22XdsRouteConfigResourceEE20ResourceDataSubclassENS8_ISF_EEEEEEEvPvDpOT0_, 
                       __ZN4absl12lts_2021110217internal_statusor12PlacementNewINSt3__110unique_ptrIN9grpc_core15XdsResourceType12ResourceDataENS3_14default_deleteIS7_EEEEJSA_EEEvPvDpOT0_, 
                       __ZN4absl12lts_2021110217internal_statusor12PlacementNewINSt3__13mapINS3_12basic_stringIcNS3_11char_traitsIcEENS3_9allocatorIcEEEENS0_13InlinedVectorIN9grpc_core13ServerAddressELm1ENS8_ISD_EEEENS3_4lessISA_EENS8_INS3_4pairIKSA_SF_EEEEEEJSM_EEEvPvDpOT0_, 
                       __ZN4absl12lts_2021110217internal_statusor12PlacementNewINSt3__16vectorI21grpc_resolved_addressNS3_9allocatorIS5_EEEEJRKS8_EEEvPvDpOT0_, 
                       __ZN4absl12lts_2021110217internal_statusor12PlacementNewINSt3__16vectorI21grpc_resolved_addressNS3_9allocatorIS5_EEEEJS8_EEEvPvDpOT0_, 
                       __ZN4absl12lts_2021110218algorithm_internal9EqualImplIPKN9grpc_core13ServerAddressES6_EEbT_S7_T0_S8_NS1_7EqualToENSt3__126random_access_iterator_tagESB_, 
                       __ZN4absl12lts_2021110218algorithm_internal9EqualImplIPKN9grpc_core14PemKeyCertPairES6_EEbT_S7_T0_S8_NS1_7EqualToENSt3__126random_access_iterator_tagESB_, 
                       __ZN4absl12lts_2021110218algorithm_internal9EqualImplIPKN9grpc_core19XdsEndpointResource10DropConfig12DropCategoryES8_EEbT_S9_T0_SA_NS1_7EqualToENSt3__126random_access_iterator_tagESD_, 
                       __ZN4absl12lts_2021110218algorithm_internal9EqualImplIPKN9grpc_core19XdsEndpointResource8PriorityES7_EEbT_S8_T0_S9_NS1_7EqualToENSt3__126random_access_iterator_tagESC_, 
                       __ZN4absl12lts_2021110219functional_internal5ApplyIvRNS0_18container_internal15CompressedTupleIJMN9grpc_core22XdsCertificateProviderEFvNSt3__112basic_stringIcNS7_11char_traitsIcEENS7_9allocatorIcEEEEbbEPS6_EEEJLm0ELm1EEJSD_bbEEET_OT0_NS0_16integer_sequenceImJXspT1_EEEEDpOT2_, 
                       __ZN4absl12lts_2021110219functional_internal5ApplyIvRNS0_18container_internal15CompressedTupleIJMN9grpc_core26TlsServerSecurityConnector28ServerPendingVerifierRequestEFvbNS0_6StatusEEPS7_bEEEJLm0ELm1ELm2EEJS8_EEET_OT0_NS0_16integer_sequenceImJXspT1_EEEEDpOT2_, 
                       __ZN4absl12lts_2021110219functional_internal5ApplyIvRNS0_18container_internal15CompressedTupleIJMN9grpc_core27TlsChannelSecurityConnector29ChannelPendingVerifierRequestEFvbNS0_6StatusEEPS7_bEEEJLm0ELm1ELm2EEJS8_EEET_OT0_NS0_16integer_sequenceImJXspT1_EEEEDpOT2_, 
                       __ZN4absl12lts_2021110223inlined_vector_internal14AssignElementsINSt3__19allocatorIN9grpc_core12XdsBootstrap9XdsServerEEENS1_20IteratorValueAdapterIS8_NS3_13move_iteratorIPS7_EEEEEEvNS3_16allocator_traitsIT_E7pointerERT0_NSG_9size_typeE, 
                       __ZN4absl12lts_2021110223inlined_vector_internal14AssignElementsINSt3__19allocatorIN9grpc_core13ServerAddressEEENS1_20IteratorValueAdapterIS7_NS3_13move_iteratorIPS6_EEEEEEvNS3_16allocator_traitsIT_E7pointerERT0_NSF_9size_typeE, 
                       __ZN4absl12lts_2021110223inlined_vector_internal14AssignElementsINSt3__19allocatorIN9grpc_core13ServerAddressEEENS1_20IteratorValueAdapterIS7_PKS6_EEEEvNS3_16allocator_traitsIT_E7pointerERT0_NSE_9size_typeE, 
                       __ZN4absl12lts_2021110223inlined_vector_internal14AssignElementsINSt3__19allocatorIN9grpc_core14PemKeyCertPairEEENS1_20IteratorValueAdapterIS7_NS3_13move_iteratorIPS6_EEEEEEvNS3_16allocator_traitsIT_E7pointerERT0_NSF_9size_typeE, 
                       __ZN4absl12lts_2021110223inlined_vector_internal14AssignElementsINSt3__19allocatorIN9grpc_core14PemKeyCertPairEEENS1_20IteratorValueAdapterIS7_PKS6_EEEEvNS3_16allocator_traitsIT_E7pointerERT0_NSE_9size_typeE, 
                       __ZN4absl12lts_2021110223inlined_vector_internal14AssignElementsINSt3__19allocatorIN9grpc_core17LbCostBinMetadata9ValueTypeEEENS1_20IteratorValueAdapterIS8_NS3_13move_iteratorIPS7_EEEEEEvNS3_16allocator_traitsIT_E7pointerERT0_NSG_9size_typeE, 
                       __ZN4absl12lts_2021110223inlined_vector_internal14AssignElementsINSt3__19allocatorIN9grpc_core19XdsEndpointResource8PriorityEEENS1_20IteratorValueAdapterIS8_NS3_13move_iteratorIPS7_EEEEEEvNS3_16allocator_traitsIT_E7pointerERT0_NSG_9size_typeE, 
                       __ZN4absl12lts_2021110223inlined_vector_internal14AssignElementsINSt3__19allocatorIN9grpc_core19XdsEndpointResource8PriorityEEENS1_20IteratorValueAdapterIS8_PKS7_EEEEvNS3_16allocator_traitsIT_E7pointerERT0_NSF_9size_typeE, 
                       __ZN4absl12lts_2021110223inlined_vector_internal14AssignElementsINSt3__19allocatorIN9grpc_core19XdsEndpointResource8PriorityEEENS1_20IteratorValueAdapterIS8_PS7_EEEEvNS3_16allocator_traitsIT_E7pointerERT0_NSE_9size_typeE, 
                       __ZN4absl12lts_2021110223inlined_vector_internal14AssignElementsINSt3__19allocatorINS3_10unique_ptrIN9grpc_core19ServiceConfigParser12ParsedConfigENS3_14default_deleteIS8_EEEEEENS1_20IteratorValueAdapterISC_NS3_13move_iteratorIPSB_EEEEEEvNS3_16allocator_traitsIT_E7pointerERT0_NSK_9size_typeE, 
                       __ZN4absl12lts_2021110223inlined_vector_internal14AssignElementsINSt3__19allocatorIcEENS1_20IteratorValueAdapterIS5_NS3_11__wrap_iterIPKcEEEEEEvNS3_16allocator_traitsIT_E7pointerERT0_NSE_9size_typeE, 
                       __ZN4absl12lts_2021110223inlined_vector_internal14AssignElementsINSt3__19allocatorIcEENS1_20IteratorValueAdapterIS5_NS3_13move_iteratorIPcEEEEEEvNS3_16allocator_traitsIT_E7pointerERT0_NSD_9size_typeE, 
                       __ZN4absl12lts_2021110223inlined_vector_internal15DestroyElementsINSt3__19allocatorI26grpc_compression_algorithmEEEEvRNS1_12TypeIdentityIT_E4typeENS3_16allocator_traitsIS8_E7pointerENSD_9size_typeE, 
                       __ZN4absl12lts_2021110223inlined_vector_internal15DestroyElementsINSt3__19allocatorI8grpc_argEEEEvRNS1_12TypeIdentityIT_E4typeENS3_16allocator_traitsIS8_E7pointerENSD_9size_typeE, 
                       __ZN4absl12lts_2021110223inlined_vector_internal15DestroyElementsINSt3__19allocatorIN9grpc_core12XdsBootstrap9XdsServerEEEEEvRNS1_12TypeIdentityIT_E4typeENS3_16allocator_traitsISA_E7pointerENSF_9size_typeE, 
                       __ZN4absl12lts_2021110223inlined_vector_internal15DestroyElementsINSt3__19allocatorIN9grpc_core13RefCountedPtrI21grpc_call_credentialsEEEEEEvRNS1_12TypeIdentityIT_E4typeENS3_16allocator_traitsISB_E7pointerENSG_9size_typeE, 
                       __ZN4absl12lts_2021110223inlined_vector_internal15DestroyElementsINSt3__19allocatorIN9grpc_core13RefCountedPtrINS5_10HandshakerEEEEEEEvRNS1_12TypeIdentityIT_E4typeENS3_16allocator_traitsISB_E7pointerENSG_9size_typeE, 
                       __ZN4absl12lts_2021110223inlined_vector_internal15DestroyElementsINSt3__19allocatorIN9grpc_core13RefCountedPtrINS5_19SubchannelInterfaceEEEEEEEvRNS1_12TypeIdentityIT_E4typeENS3_16allocator_traitsISB_E7pointerENSG_9size_typeE, 
                       __ZN4absl12lts_2021110223inlined_vector_internal15DestroyElementsINSt3__19allocatorIN9grpc_core13RefCountedPtrINS5_8channelz8BaseNodeEEEEEEEvRNS1_12TypeIdentityIT_E4typeENS3_16allocator_traitsISC_E7pointerENSH_9size_typeE, 
                       __ZN4absl12lts_2021110223inlined_vector_internal15DestroyElementsINSt3__19allocatorIN9grpc_core13ServerAddressEEEEEvRNS1_12TypeIdentityIT_E4typeENS3_16allocator_traitsIS9_E7pointerENSE_9size_typeE, 
                       __ZN4absl12lts_2021110223inlined_vector_internal15DestroyElementsINSt3__19allocatorIN9grpc_core14ParsedMetadataI19grpc_metadata_batchEEEEEEvRNS1_12TypeIdentityIT_E4typeENS3_16allocator_traitsISB_E7pointerENSG_9size_typeE, 
                       __ZN4absl12lts_2021110223inlined_vector_internal15DestroyElementsINSt3__19allocatorIN9grpc_core14PemKeyCertPairEEEEEvRNS1_12TypeIdentityIT_E4typeENS3_16allocator_traitsIS9_E7pointerENSE_9size_typeE, 
                       __ZN4absl12lts_2021110223inlined_vector_internal15DestroyElementsINSt3__19allocatorIN9grpc_core17GrpcLbClientStats14DropTokenCountEEEEEvRNS1_12TypeIdentityIT_E4typeENS3_16allocator_traitsISA_E7pointerENSF_9size_typeE, 
                       __ZN4absl12lts_2021110223inlined_vector_internal15DestroyElementsINSt3__19allocatorIN9grpc_core17LbCostBinMetadata9ValueTypeEEEEEvRNS1_12TypeIdentityIT_E4typeENS3_16allocator_traitsISA_E7pointerENSF_9size_typeE, 
                       __ZN4absl12lts_2021110223inlined_vector_internal15DestroyElementsINSt3__19allocatorIN9grpc_core19XdsEndpointResource10DropConfig12DropCategoryEEEEEvRNS1_12TypeIdentityIT_E4typeENS3_16allocator_traitsISB_E7pointerENSG_9size_typeE, 
                       __ZN4absl12lts_2021110223inlined_vector_internal15DestroyElementsINSt3__19allocatorIN9grpc_core19XdsEndpointResource8PriorityEEEEEvRNS1_12TypeIdentityIT_E4typeENS3_16allocator_traitsISA_E7pointerENSF_9size_typeE, 
                       __ZN4absl12lts_2021110223inlined_vector_internal15DestroyElementsINSt3__19allocatorIN9grpc_core23CallCombinerClosureList19CallCombinerClosureEEEEEvRNS1_12TypeIdentityIT_E4typeENS3_16allocator_traitsISA_E7pointerENSF_9size_typeE, 
                       __ZN4absl12lts_2021110223inlined_vector_internal15DestroyElementsINSt3__19allocatorIN9grpc_core8channelz18CallCountingHelper17AtomicCounterDataEEEEEvRNS1_12TypeIdentityIT_E4typeENS3_16allocator_traitsISB_E7pointerENSG_9size_typeE, 
                       __ZN4absl12lts_2021110223inlined_vector_internal15DestroyElementsINSt3__19allocatorINS3_10unique_ptrIN9grpc_core15ResolverFactoryENS3_14default_deleteIS7_EEEEEEEEvRNS1_12TypeIdentityIT_E4typeENS3_16allocator_traitsISD_E7pointerENSI_9size_typeE, 
                       __ZN4absl12lts_2021110223inlined_vector_internal15DestroyElementsINSt3__19allocatorINS3_10unique_ptrIN9grpc_core19ServiceConfigParser12ParsedConfigENS3_14default_deleteIS8_EEEEEEEEvRNS1_12TypeIdentityIT_E4typeENS3_16allocator_traitsISE_E7pointerENSJ_9size_typeE, 
                       __ZN4absl12lts_2021110223inlined_vector_internal15DestroyElementsINSt3__19allocatorINS3_10unique_ptrIN9grpc_core19ServiceConfigParser6ParserENS3_14default_deleteIS8_EEEEEEEEvRNS1_12TypeIdentityIT_E4typeENS3_16allocator_traitsISE_E7pointerENSJ_9size_typeE, 
                       __ZN4absl12lts_2021110223inlined_vector_internal15DestroyElementsINSt3__19allocatorINS3_10unique_ptrIN9grpc_core26CertificateProviderFactoryENS3_14default_deleteIS7_EEEEEEEEvRNS1_12TypeIdentityIT_E4typeENS3_16allocator_traitsISD_E7pointerENSI_9size_typeE, 
                       __ZN4absl12lts_2021110223inlined_vector_internal15DestroyElementsINSt3__19allocatorINS3_10unique_ptrIN9grpc_core26LoadBalancingPolicyFactoryENS3_14default_deleteIS7_EEEEEEEEvRNS1_12TypeIdentityIT_E4typeENS3_16allocator_traitsISD_E7pointerENSI_9size_typeE, 
                       __ZN4absl12lts_2021110223inlined_vector_internal15DestroyElementsINSt3__19allocatorINS3_10unique_ptrINS0_13InlinedVectorINS5_IN9grpc_core19ServiceConfigParser12ParsedConfigENS3_14default_deleteIS9_EEEELm4ENS4_ISC_EEEENSA_ISE_EEEEEEEEvRNS1_12TypeIdentityIT_E4typeENS3_16allocator_traitsISJ_E7pointerENSO_9size_typeE, 
                       __ZN4absl12lts_2021110223inlined_vector_internal15DestroyElementsINSt3__19allocatorINS3_12basic_stringIcNS3_11char_traitsIcEENS4_IcEEEEEEEEvRNS1_12TypeIdentityIT_E4typeENS3_16allocator_traitsISC_E7pointerENSH_9size_typeE, 
                       __ZN4absl12lts_2021110223inlined_vector_internal15DestroyElementsINSt3__19allocatorIP10grpc_errorEEEEvRNS1_12TypeIdentityIT_E4typeENS3_16allocator_traitsIS9_E7pointerENSE_9size_typeE, 
                       __ZN4absl12lts_2021110223inlined_vector_internal15DestroyElementsINSt3__19allocatorIPKcEEEEvRNS1_12TypeIdentityIT_E4typeENS3_16allocator_traitsIS9_E7pointerENSE_9size_typeE, 
                       __ZN4absl12lts_2021110223inlined_vector_internal15DestroyElementsINSt3__19allocatorIPN9grpc_core15ByteStreamCacheEEEEEvRNS1_12TypeIdentityIT_E4typeENS3_16allocator_traitsISA_E7pointerENSF_9size_typeE, 
                       __ZN4absl12lts_2021110223inlined_vector_internal15DestroyElementsINSt3__19allocatorIPNS0_13cord_internal7CordRepEEEEEvRNS1_12TypeIdentityIT_E4typeENS3_16allocator_traitsISA_E7pointerENSF_9size_typeE, 
                       __ZN4absl12lts_2021110223inlined_vector_internal15DestroyElementsINSt3__19allocatorIcEEEEvRNS1_12TypeIdentityIT_E4typeENS3_16allocator_traitsIS7_E7pointerENSC_9size_typeE, 
                       __ZN4absl12lts_2021110223inlined_vector_internal15DestroyElementsINSt3__19allocatorItEEEEvRNS1_12TypeIdentityIT_E4typeENS3_16allocator_traitsIS7_E7pointerENSC_9size_typeE, 
                       __ZN4absl12lts_2021110223inlined_vector_internal17ConstructElementsINSt3__19allocatorI26grpc_compression_algorithmEENS1_20IteratorValueAdapterIS6_NS3_13move_iteratorIPS5_EEEEEEvRNS1_12TypeIdentityIT_E4typeENS3_16allocator_traitsISD_E7pointerERT0_NSI_9size_typeE, 
                       __ZN4absl12lts_2021110223inlined_vector_internal17ConstructElementsINSt3__19allocatorI8grpc_argEENS1_20IteratorValueAdapterIS6_NS3_13move_iteratorIPS5_EEEEEEvRNS1_12TypeIdentityIT_E4typeENS3_16allocator_traitsISD_E7pointerERT0_NSI_9size_typeE, 
                       __ZN4absl12lts_2021110223inlined_vector_internal17ConstructElementsINSt3__19allocatorI8grpc_argEENS1_20IteratorValueAdapterIS6_PKS5_EEEEvRNS1_12TypeIdentityIT_E4typeENS3_16allocator_traitsISC_E7pointerERT0_NSH_9size_typeE, 
                       __ZN4absl12lts_2021110223inlined_vector_internal17ConstructElementsINSt3__19allocatorIN9grpc_core12XdsBootstrap9XdsServerEEENS1_20IteratorValueAdapterIS8_NS3_13move_iteratorIPS7_EEEEEEvRNS1_12TypeIdentityIT_E4typeENS3_16allocator_traitsISF_E7pointerERT0_NSK_9size_typeE, 
                       __ZN4absl12lts_2021110223inlined_vector_internal17ConstructElementsINSt3__19allocatorIN9grpc_core13RefCountedPtrI21grpc_call_credentialsEEEENS1_20IteratorValueAdapterIS9_NS3_13move_iteratorIPS8_EEEEEEvRNS1_12TypeIdentityIT_E4typeENS3_16allocator_traitsISG_E7pointerERT0_NSL_9size_typeE, 
                       __ZN4absl12lts_2021110223inlined_vector_internal17ConstructElementsINSt3__19allocatorIN9grpc_core13RefCountedPtrINS5_10HandshakerEEEEENS1_20IteratorValueAdapterIS9_NS3_13move_iteratorIPS8_EEEEEEvRNS1_12TypeIdentityIT_E4typeENS3_16allocator_traitsISG_E7pointerERT0_NSL_9size_typeE, 
                       __ZN4absl12lts_2021110223inlined_vector_internal17ConstructElementsINSt3__19allocatorIN9grpc_core13RefCountedPtrINS5_19SubchannelInterfaceEEEEENS1_20IteratorValueAdapterIS9_NS3_13move_iteratorIPS8_EEEEEEvRNS1_12TypeIdentityIT_E4typeENS3_16allocator_traitsISG_E7pointerERT0_NSL_9size_typeE, 
                       __ZN4absl12lts_2021110223inlined_vector_internal17ConstructElementsINSt3__19allocatorIN9grpc_core13RefCountedPtrINS5_8channelz8BaseNodeEEEEENS1_20IteratorValueAdapterISA_NS3_13move_iteratorIPS9_EEEEEEvRNS1_12TypeIdentityIT_E4typeENS3_16allocator_traitsISH_E7pointerERT0_NSM_9size_typeE, 
                       __ZN4absl12lts_2021110223inlined_vector_internal17ConstructElementsINSt3__19allocatorIN9grpc_core13ServerAddressEEENS1_20IteratorValueAdapterIS7_NS3_13move_iteratorIPS6_EEEEEEvRNS1_12TypeIdentityIT_E4typeENS3_16allocator_traitsISE_E7pointerERT0_NSJ_9size_typeE, 
                       __ZN4absl12lts_2021110223inlined_vector_internal17ConstructElementsINSt3__19allocatorIN9grpc_core13ServerAddressEEENS1_20IteratorValueAdapterIS7_PKS6_EEEEvRNS1_12TypeIdentityIT_E4typeENS3_16allocator_traitsISD_E7pointerERT0_NSI_9size_typeE, 
                       __ZN4absl12lts_2021110223inlined_vector_internal17ConstructElementsINSt3__19allocatorIN9grpc_core14ParsedMetadataI19grpc_metadata_batchEEEENS1_19DefaultValueAdapterIS9_EEEEvRNS1_12TypeIdentityIT_E4typeENS3_16allocator_traitsISD_E7pointerERT0_NSI_9size_typeE, 
                       __ZN4absl12lts_2021110223inlined_vector_internal17ConstructElementsINSt3__19allocatorIN9grpc_core14ParsedMetadataI19grpc_metadata_batchEEEENS1_20IteratorValueAdapterIS9_NS3_13move_iteratorIPS8_EEEEEEvRNS1_12TypeIdentityIT_E4typeENS3_16allocator_traitsISG_E7pointerERT0_NSL_9size_typeE, 
                       __ZN4absl12lts_2021110223inlined_vector_internal17ConstructElementsINSt3__19allocatorIN9grpc_core14PemKeyCertPairEEENS1_20IteratorValueAdapterIS7_NS3_13move_iteratorIPS6_EEEEEEvRNS1_12TypeIdentityIT_E4typeENS3_16allocator_traitsISE_E7pointerERT0_NSJ_9size_typeE, 
                       __ZN4absl12lts_2021110223inlined_vector_internal17ConstructElementsINSt3__19allocatorIN9grpc_core14PemKeyCertPairEEENS1_20IteratorValueAdapterIS7_PKS6_EEEEvRNS1_12TypeIdentityIT_E4typeENS3_16allocator_traitsISD_E7pointerERT0_NSI_9size_typeE, 
                       __ZN4absl12lts_2021110223inlined_vector_internal17ConstructElementsINSt3__19allocatorIN9grpc_core17GrpcLbClientStats14DropTokenCountEEENS1_20IteratorValueAdapterIS8_NS3_13move_iteratorIPS7_EEEEEEvRNS1_12TypeIdentityIT_E4typeENS3_16allocator_traitsISF_E7pointerERT0_NSK_9size_typeE, 
                       __ZN4absl12lts_2021110223inlined_vector_internal17ConstructElementsINSt3__19allocatorIN9grpc_core17LbCostBinMetadata9ValueTypeEEENS1_20IteratorValueAdapterIS8_NS3_13move_iteratorIPS7_EEEEEEvRNS1_12TypeIdentityIT_E4typeENS3_16allocator_traitsISF_E7pointerERT0_NSK_9size_typeE, 
                       __ZN4absl12lts_2021110223inlined_vector_internal17ConstructElementsINSt3__19allocatorIN9grpc_core19XdsEndpointResource10DropConfig12DropCategoryEEENS1_20IteratorValueAdapterIS9_NS3_13move_iteratorIPS8_EEEEEEvRNS1_12TypeIdentityIT_E4typeENS3_16allocator_traitsISG_E7pointerERT0_NSL_9size_typeE, 
                       __ZN4absl12lts_2021110223inlined_vector_internal17ConstructElementsINSt3__19allocatorIN9grpc_core19XdsEndpointResource8PriorityEEENS1_20IteratorValueAdapterIS8_NS3_13move_iteratorIPS7_EEEEEEvRNS1_12TypeIdentityIT_E4typeENS3_16allocator_traitsISF_E7pointerERT0_NSK_9size_typeE, 
                       __ZN4absl12lts_2021110223inlined_vector_internal17ConstructElementsINSt3__19allocatorIN9grpc_core19XdsEndpointResource8PriorityEEENS1_20IteratorValueAdapterIS8_PKS7_EEEEvRNS1_12TypeIdentityIT_E4typeENS3_16allocator_traitsISE_E7pointerERT0_NSJ_9size_typeE, 
                       __ZN4absl12lts_2021110223inlined_vector_internal17ConstructElementsINSt3__19allocatorIN9grpc_core19XdsEndpointResource8PriorityEEENS1_20IteratorValueAdapterIS8_PS7_EEEEvRNS1_12TypeIdentityIT_E4typeENS3_16allocator_traitsISD_E7pointerERT0_NSI_9size_typeE, 
                       __ZN4absl12lts_2021110223inlined_vector_internal17ConstructElementsINSt3__19allocatorIN9grpc_core23CallCombinerClosureList19CallCombinerClosureEEENS1_20IteratorValueAdapterIS8_NS3_13move_iteratorIPS7_EEEEEEvRNS1_12TypeIdentityIT_E4typeENS3_16allocator_traitsISF_E7pointerERT0_NSK_9size_typeE, 
                       __ZN4absl12lts_2021110223inlined_vector_internal17ConstructElementsINSt3__19allocatorIN9grpc_core8channelz18CallCountingHelper17AtomicCounterDataEEENS1_20IteratorValueAdapterIS9_NS3_13move_iteratorIPS8_EEEEEEvRNS1_12TypeIdentityIT_E4typeENS3_16allocator_traitsISG_E7pointerERT0_NSL_9size_typeE, 
                       __ZN4absl12lts_2021110223inlined_vector_internal17ConstructElementsINSt3__19allocatorINS3_10unique_ptrIN9grpc_core15ResolverFactoryENS3_14default_deleteIS7_EEEEEENS1_20IteratorValueAdapterISB_NS3_13move_iteratorIPSA_EEEEEEvRNS1_12TypeIdentityIT_E4typeENS3_16allocator_traitsISI_E7pointerERT0_NSN_9size_typeE, 
                       __ZN4absl12lts_2021110223inlined_vector_internal17ConstructElementsINSt3__19allocatorINS3_10unique_ptrIN9grpc_core19ServiceConfigParser12ParsedConfigENS3_14default_deleteIS8_EEEEEENS1_20IteratorValueAdapterISC_NS3_13move_iteratorIPSB_EEEEEEvRNS1_12TypeIdentityIT_E4typeENS3_16allocator_traitsISJ_E7pointerERT0_NSO_9size_typeE, 
                       __ZN4absl12lts_2021110223inlined_vector_internal17ConstructElementsINSt3__19allocatorINS3_10unique_ptrIN9grpc_core19ServiceConfigParser6ParserENS3_14default_deleteIS8_EEEEEENS1_20IteratorValueAdapterISC_NS3_13move_iteratorIPSB_EEEEEEvRNS1_12TypeIdentityIT_E4typeENS3_16allocator_traitsISJ_E7pointerERT0_NSO_9size_typeE, 
                       __ZN4absl12lts_2021110223inlined_vector_internal17ConstructElementsINSt3__19allocatorINS3_10unique_ptrIN9grpc_core26CertificateProviderFactoryENS3_14default_deleteIS7_EEEEEENS1_20IteratorValueAdapterISB_NS3_13move_iteratorIPSA_EEEEEEvRNS1_12TypeIdentityIT_E4typeENS3_16allocator_traitsISI_E7pointerERT0_NSN_9size_typeE, 
                       __ZN4absl12lts_2021110223inlined_vector_internal17ConstructElementsINSt3__19allocatorINS3_10unique_ptrIN9grpc_core26LoadBalancingPolicyFactoryENS3_14default_deleteIS7_EEEEEENS1_20IteratorValueAdapterISB_NS3_13move_iteratorIPSA_EEEEEEvRNS1_12TypeIdentityIT_E4typeENS3_16allocator_traitsISI_E7pointerERT0_NSN_9size_typeE, 
                       __ZN4absl12lts_2021110223inlined_vector_internal17ConstructElementsINSt3__19allocatorINS3_10unique_ptrINS0_13InlinedVectorINS5_IN9grpc_core19ServiceConfigParser12ParsedConfigENS3_14default_deleteIS9_EEEELm4ENS4_ISC_EEEENSA_ISE_EEEEEENS1_20IteratorValueAdapterISH_NS3_13move_iteratorIPSG_EEEEEEvRNS1_12TypeIdentityIT_E4typeENS3_16allocator_traitsISO_E7pointerERT0_NST_9size_typeE, 
                       __ZN4absl12lts_2021110223inlined_vector_internal17ConstructElementsINSt3__19allocatorINS3_12basic_stringIcNS3_11char_traitsIcEENS4_IcEEEEEENS1_20IteratorValueAdapterISA_NS3_13move_iteratorIPS9_EEEEEEvRNS1_12TypeIdentityIT_E4typeENS3_16allocator_traitsISH_E7pointerERT0_NSM_9size_typeE, 
                       __ZN4absl12lts_2021110223inlined_vector_internal17ConstructElementsINSt3__19allocatorIP10grpc_errorEENS1_20IteratorValueAdapterIS7_NS3_13move_iteratorIPS6_EEEEEEvRNS1_12TypeIdentityIT_E4typeENS3_16allocator_traitsISE_E7pointerERT0_NSJ_9size_typeE, 
                       __ZN4absl12lts_2021110223inlined_vector_internal17ConstructElementsINSt3__19allocatorIPKcEENS1_20IteratorValueAdapterIS7_NS3_13move_iteratorIPS6_EEEEEEvRNS1_12TypeIdentityIT_E4typeENS3_16allocator_traitsISE_E7pointerERT0_NSJ_9size_typeE, 
                       __ZN4absl12lts_2021110223inlined_vector_internal17ConstructElementsINSt3__19allocatorIPKcEENS1_20IteratorValueAdapterIS7_PKS6_EEEEvRNS1_12TypeIdentityIT_E4typeENS3_16allocator_traitsISD_E7pointerERT0_NSI_9size_typeE, 
                       __ZN4absl12lts_2021110223inlined_vector_internal17ConstructElementsINSt3__19allocatorIPN9grpc_core15ByteStreamCacheEEENS1_20IteratorValueAdapterIS8_NS3_13move_iteratorIPS7_EEEEEEvRNS1_12TypeIdentityIT_E4typeENS3_16allocator_traitsISF_E7pointerERT0_NSK_9size_typeE, 
                       __ZN4absl12lts_2021110223inlined_vector_internal17ConstructElementsINSt3__19allocatorIPNS0_13cord_internal7CordRepEEENS1_20IteratorValueAdapterIS8_NS3_13move_iteratorIPS7_EEEEEEvRNS1_12TypeIdentityIT_E4typeENS3_16allocator_traitsISF_E7pointerERT0_NSK_9size_typeE, 
                       __ZN4absl12lts_2021110223inlined_vector_internal17ConstructElementsINSt3__19allocatorIcEENS1_20IteratorValueAdapterIS5_NS3_11__wrap_iterIPKcEEEEEEvRNS1_12TypeIdentityIT_E4typeENS3_16allocator_traitsISD_E7pointerERT0_NSI_9size_typeE, 
                       __ZN4absl12lts_2021110223inlined_vector_internal17ConstructElementsINSt3__19allocatorIcEENS1_20IteratorValueAdapterIS5_NS3_13move_iteratorIPcEEEEEEvRNS1_12TypeIdentityIT_E4typeENS3_16allocator_traitsISC_E7pointerERT0_NSH_9size_typeE, 
                       __ZN4absl12lts_2021110223inlined_vector_internal17ConstructElementsINSt3__19allocatorItEENS1_19DefaultValueAdapterIS5_EEEEvRNS1_12TypeIdentityIT_E4typeENS3_16allocator_traitsIS9_E7pointerERT0_NSE_9size_typeE, 
                       __ZN4absl12lts_2021110223inlined_vector_internal17ConstructElementsINSt3__19allocatorItEENS1_20IteratorValueAdapterIS5_NS3_13move_iteratorIPtEEEEEEvRNS1_12TypeIdentityIT_E4typeENS3_16allocator_traitsISC_E7pointerERT0_NSH_9size_typeE, 
                       __ZN4absl12lts_2021110223inlined_vector_internal7StorageI26grpc_compression_algorithmLm3ENSt3__19allocatorIS3_EEE11EmplaceBackIJRKS3_EEERS3_DpOT_, 
                       __ZN4absl12lts_2021110223inlined_vector_internal7StorageI26grpc_compression_algorithmLm3ENSt3__19allocatorIS3_EEE15EmplaceBackSlowIJRKS3_EEERS3_DpOT_, 
                       __ZN4absl12lts_2021110223inlined_vector_internal7StorageI8grpc_argLm1ENSt3__19allocatorIS3_EEE10InitializeINS1_20IteratorValueAdapterIS6_PKS3_EEEEvT_m, 
                       __ZN4absl12lts_2021110223inlined_vector_internal7StorageI8grpc_argLm1ENSt3__19allocatorIS3_EEE11EmplaceBackIJS3_EEERS3_DpOT_, 
                       __ZN4absl12lts_2021110223inlined_vector_internal7StorageI8grpc_argLm1ENSt3__19allocatorIS3_EEE15EmplaceBackSlowIJS3_EEERS3_DpOT_, 
                       __ZN4absl12lts_2021110223inlined_vector_internal7StorageI8grpc_argLm2ENSt3__19allocatorIS3_EEE10InitializeINS1_20IteratorValueAdapterIS6_PKS3_EEEEvT_m, 
                       __ZN4absl12lts_2021110223inlined_vector_internal7StorageI8grpc_argLm2ENSt3__19allocatorIS3_EEE11EmplaceBackIJRS3_EEES9_DpOT_, 
                       __ZN4absl12lts_2021110223inlined_vector_internal7StorageI8grpc_argLm2ENSt3__19allocatorIS3_EEE11EmplaceBackIJS3_EEERS3_DpOT_, 
                       __ZN4absl12lts_2021110223inlined_vector_internal7StorageI8grpc_argLm2ENSt3__19allocatorIS3_EEE15EmplaceBackSlowIJRS3_EEES9_DpOT_, 
                       __ZN4absl12lts_2021110223inlined_vector_internal7StorageI8grpc_argLm2ENSt3__19allocatorIS3_EEE15EmplaceBackSlowIJS3_EEERS3_DpOT_, 
                       __ZN4absl12lts_2021110223inlined_vector_internal7StorageI8grpc_argLm3ENSt3__19allocatorIS3_EEE10InitializeINS1_20IteratorValueAdapterIS6_PKS3_EEEEvT_m, 
                       __ZN4absl12lts_2021110223inlined_vector_internal7StorageI8grpc_argLm3ENSt3__19allocatorIS3_EEE11EmplaceBackIJS3_EEERS3_DpOT_, 
                       __ZN4absl12lts_2021110223inlined_vector_internal7StorageI8grpc_argLm3ENSt3__19allocatorIS3_EEE15EmplaceBackSlowIJS3_EEERS3_DpOT_, 
                       __ZN4absl12lts_2021110223inlined_vector_internal7StorageIN9grpc_core12XdsBootstrap9XdsServerELm1ENSt3__19allocatorIS5_EEE11EmplaceBackIJS5_EEERS5_DpOT_, 
                       __ZN4absl12lts_2021110223inlined_vector_internal7StorageIN9grpc_core12XdsBootstrap9XdsServerELm1ENSt3__19allocatorIS5_EEE15DestroyContentsEv, 
                       __ZN4absl12lts_2021110223inlined_vector_internal7StorageIN9grpc_core12XdsBootstrap9XdsServerELm1ENSt3__19allocatorIS5_EEE15EmplaceBackSlowIJS5_EEERS5_DpOT_, 
                       __ZN4absl12lts_2021110223inlined_vector_internal7StorageIN9grpc_core12XdsBootstrap9XdsServerELm1ENSt3__19allocatorIS5_EEE6AssignINS1_20IteratorValueAdapterIS8_NS6_13move_iteratorIPS5_EEEEEEvT_m, 
                       __ZN4absl12lts_2021110223inlined_vector_internal7StorageIN9grpc_core13RefCountedPtrI21grpc_call_credentialsEELm2ENSt3__19allocatorIS6_EEE11EmplaceBackIJRKS6_EEERS6_DpOT_, 
                       __ZN4absl12lts_2021110223inlined_vector_internal7StorageIN9grpc_core13RefCountedPtrI21grpc_call_credentialsEELm2ENSt3__19allocatorIS6_EEE11EmplaceBackIJS6_EEERS6_DpOT_, 
                       __ZN4absl12lts_2021110223inlined_vector_internal7StorageIN9grpc_core13RefCountedPtrI21grpc_call_credentialsEELm2ENSt3__19allocatorIS6_EEE15DestroyContentsEv, 
                       __ZN4absl12lts_2021110223inlined_vector_internal7StorageIN9grpc_core13RefCountedPtrI21grpc_call_credentialsEELm2ENSt3__19allocatorIS6_EEE15EmplaceBackSlowIJRKS6_EEERS6_DpOT_, 
                       __ZN4absl12lts_2021110223inlined_vector_internal7StorageIN9grpc_core13RefCountedPtrI21grpc_call_credentialsEELm2ENSt3__19allocatorIS6_EEE15EmplaceBackSlowIJS6_EEERS6_DpOT_, 
                       __ZN4absl12lts_2021110223inlined_vector_internal7StorageIN9grpc_core13RefCountedPtrI21grpc_call_credentialsEELm2ENSt3__19allocatorIS6_EEE7ReserveEm, 
                       __ZN4absl12lts_2021110223inlined_vector_internal7StorageIN9grpc_core13RefCountedPtrINS3_10HandshakerEEELm2ENSt3__19allocatorIS6_EEE11EmplaceBackIJS6_EEERS6_DpOT_, 
                       __ZN4absl12lts_2021110223inlined_vector_internal7StorageIN9grpc_core13RefCountedPtrINS3_10HandshakerEEELm2ENSt3__19allocatorIS6_EEE15DestroyContentsEv, 
                       __ZN4absl12lts_2021110223inlined_vector_internal7StorageIN9grpc_core13RefCountedPtrINS3_10HandshakerEEELm2ENSt3__19allocatorIS6_EEE15EmplaceBackSlowIJS6_EEERS6_DpOT_, 
                       __ZN4absl12lts_2021110223inlined_vector_internal7StorageIN9grpc_core13RefCountedPtrINS3_19SubchannelInterfaceEEELm10ENSt3__19allocatorIS6_EEE11EmplaceBackIJS6_EEERS6_DpOT_, 
                       __ZN4absl12lts_2021110223inlined_vector_internal7StorageIN9grpc_core13RefCountedPtrINS3_19SubchannelInterfaceEEELm10ENSt3__19allocatorIS6_EEE15DestroyContentsEv, 
                       __ZN4absl12lts_2021110223inlined_vector_internal7StorageIN9grpc_core13RefCountedPtrINS3_19SubchannelInterfaceEEELm10ENSt3__19allocatorIS6_EEE15EmplaceBackSlowIJS6_EEERS6_DpOT_, 
                       __ZN4absl12lts_2021110223inlined_vector_internal7StorageIN9grpc_core13RefCountedPtrINS3_8channelz8BaseNodeEEELm10ENSt3__19allocatorIS7_EEE11EmplaceBackIJS7_EEERS7_DpOT_, 
                       __ZN4absl12lts_2021110223inlined_vector_internal7StorageIN9grpc_core13RefCountedPtrINS3_8channelz8BaseNodeEEELm10ENSt3__19allocatorIS7_EEE15DestroyContentsEv, 
                       __ZN4absl12lts_2021110223inlined_vector_internal7StorageIN9grpc_core13RefCountedPtrINS3_8channelz8BaseNodeEEELm10ENSt3__19allocatorIS7_EEE15EmplaceBackSlowIJS7_EEERS7_DpOT_, 
                       __ZN4absl12lts_2021110223inlined_vector_internal7StorageIN9grpc_core13ServerAddressELm1ENSt3__19allocatorIS4_EEE11EmplaceBackIJR21grpc_resolved_addressDnEEERS4_DpOT_, 
                       __ZN4absl12lts_2021110223inlined_vector_internal7StorageIN9grpc_core13ServerAddressELm1ENSt3__19allocatorIS4_EEE11EmplaceBackIJR21grpc_resolved_addressDnNS5_3mapIPKcNS5_10unique_ptrINS4_18AttributeInterfaceENS5_14default_deleteISG_EEEENS5_4lessISE_EENS6_INS5_4pairIKSE_SJ_EEEEEEEEERS4_DpOT_, 
                       __ZN4absl12lts_2021110223inlined_vector_internal7StorageIN9grpc_core13ServerAddressELm1ENSt3__19allocatorIS4_EEE11EmplaceBackIJS4_EEERS4_DpOT_, 
                       __ZN4absl12lts_2021110223inlined_vector_internal7StorageIN9grpc_core13ServerAddressELm1ENSt3__19allocatorIS4_EEE15DestroyContentsEv, 
                       __ZN4absl12lts_2021110223inlined_vector_internal7StorageIN9grpc_core13ServerAddressELm1ENSt3__19allocatorIS4_EEE15EmplaceBackSlowIJR21grpc_resolved_addressDnEEERS4_DpOT_, 
                       __ZN4absl12lts_2021110223inlined_vector_internal7StorageIN9grpc_core13ServerAddressELm1ENSt3__19allocatorIS4_EEE15EmplaceBackSlowIJR21grpc_resolved_addressDnNS5_3mapIPKcNS5_10unique_ptrINS4_18AttributeInterfaceENS5_14default_deleteISG_EEEENS5_4lessISE_EENS6_INS5_4pairIKSE_SJ_EEEEEEEEERS4_DpOT_, 
                       __ZN4absl12lts_2021110223inlined_vector_internal7StorageIN9grpc_core13ServerAddressELm1ENSt3__19allocatorIS4_EEE15EmplaceBackSlowIJS4_EEERS4_DpOT_, 
                       __ZN4absl12lts_2021110223inlined_vector_internal7StorageIN9grpc_core13ServerAddressELm1ENSt3__19allocatorIS4_EEE6AssignINS1_20IteratorValueAdapterIS7_NS5_13move_iteratorIPS4_EEEEEEvT_m, 
                       __ZN4absl12lts_2021110223inlined_vector_internal7StorageIN9grpc_core13ServerAddressELm1ENSt3__19allocatorIS4_EEE6AssignINS1_20IteratorValueAdapterIS7_PKS4_EEEEvT_m, 
                       __ZN4absl12lts_2021110223inlined_vector_internal7StorageIN9grpc_core13ServerAddressELm1ENSt3__19allocatorIS4_EEE7ReserveEm, 
                       __ZN4absl12lts_2021110223inlined_vector_internal7StorageIN9grpc_core13ServerAddressELm1ENSt3__19allocatorIS4_EEE8InitFromERKS8_, 
                       __ZN4absl12lts_2021110223inlined_vector_internal7StorageIN9grpc_core14ParsedMetadataI19grpc_metadata_batchEELm128ENSt3__19allocatorIS6_EEE10InitializeINS1_19DefaultValueAdapterIS9_EEEEvT_m, 
                       __ZN4absl12lts_2021110223inlined_vector_internal7StorageIN9grpc_core14ParsedMetadataI19grpc_metadata_batchEELm128ENSt3__19allocatorIS6_EEE15DestroyContentsEv, 
                       __ZN4absl12lts_2021110223inlined_vector_internal7StorageIN9grpc_core14ParsedMetadataI19grpc_metadata_batchEELm128ENSt3__19allocatorIS6_EEE4SwapEPSA_, 
                       __ZN4absl12lts_2021110223inlined_vector_internal7StorageIN9grpc_core14ParsedMetadataI19grpc_metadata_batchEELm128ENSt3__19allocatorIS6_EEE6ResizeINS1_19DefaultValueAdapterIS9_EEEEvT_m, 
                       __ZN4absl12lts_2021110223inlined_vector_internal7StorageIN9grpc_core14PemKeyCertPairELm1ENSt3__19allocatorIS4_EEE11EmplaceBackIJRNS5_12basic_stringIcNS5_11char_traitsIcEENS6_IcEEEESF_EEERS4_DpOT_, 
                       __ZN4absl12lts_2021110223inlined_vector_internal7StorageIN9grpc_core14PemKeyCertPairELm1ENSt3__19allocatorIS4_EEE11EmplaceBackIJRPKcSC_EEERS4_DpOT_, 
                       __ZN4absl12lts_2021110223inlined_vector_internal7StorageIN9grpc_core14PemKeyCertPairELm1ENSt3__19allocatorIS4_EEE15DestroyContentsEv, 
                       __ZN4absl12lts_2021110223inlined_vector_internal7StorageIN9grpc_core14PemKeyCertPairELm1ENSt3__19allocatorIS4_EEE15EmplaceBackSlowIJRNS5_12basic_stringIcNS5_11char_traitsIcEENS6_IcEEEESF_EEERS4_DpOT_, 
                       __ZN4absl12lts_2021110223inlined_vector_internal7StorageIN9grpc_core14PemKeyCertPairELm1ENSt3__19allocatorIS4_EEE15EmplaceBackSlowIJRPKcSC_EEERS4_DpOT_, 
                       __ZN4absl12lts_2021110223inlined_vector_internal7StorageIN9grpc_core14PemKeyCertPairELm1ENSt3__19allocatorIS4_EEE6AssignINS1_20IteratorValueAdapterIS7_NS5_13move_iteratorIPS4_EEEEEEvT_m, 
                       __ZN4absl12lts_2021110223inlined_vector_internal7StorageIN9grpc_core14PemKeyCertPairELm1ENSt3__19allocatorIS4_EEE6AssignINS1_20IteratorValueAdapterIS7_PKS4_EEEEvT_m, 
                       __ZN4absl12lts_2021110223inlined_vector_internal7StorageIN9grpc_core14PemKeyCertPairELm1ENSt3__19allocatorIS4_EEE8InitFromERKS8_, 
                       __ZN4absl12lts_2021110223inlined_vector_internal7StorageIN9grpc_core17GrpcLbClientStats14DropTokenCountELm10ENSt3__19allocatorIS5_EEE11EmplaceBackIJNS6_10unique_ptrIcNS3_17DefaultDeleteCharEEEiEEERS5_DpOT_, 
                       __ZN4absl12lts_2021110223inlined_vector_internal7StorageIN9grpc_core17GrpcLbClientStats14DropTokenCountELm10ENSt3__19allocatorIS5_EEE15DestroyContentsEv, 
                       __ZN4absl12lts_2021110223inlined_vector_internal7StorageIN9grpc_core17GrpcLbClientStats14DropTokenCountELm10ENSt3__19allocatorIS5_EEE15EmplaceBackSlowIJNS6_10unique_ptrIcNS3_17DefaultDeleteCharEEEiEEERS5_DpOT_, 
                       __ZN4absl12lts_2021110223inlined_vector_internal7StorageIN9grpc_core17LbCostBinMetadata9ValueTypeELm1ENSt3__19allocatorIS5_EEE11EmplaceBackIJRS5_EEESB_DpOT_, 
                       __ZN4absl12lts_2021110223inlined_vector_internal7StorageIN9grpc_core17LbCostBinMetadata9ValueTypeELm1ENSt3__19allocatorIS5_EEE11EmplaceBackIJS5_EEERS5_DpOT_, 
                       __ZN4absl12lts_2021110223inlined_vector_internal7StorageIN9grpc_core17LbCostBinMetadata9ValueTypeELm1ENSt3__19allocatorIS5_EEE15DestroyContentsEv, 
                       __ZN4absl12lts_2021110223inlined_vector_internal7StorageIN9grpc_core17LbCostBinMetadata9ValueTypeELm1ENSt3__19allocatorIS5_EEE15EmplaceBackSlowIJRS5_EEESB_DpOT_, 
                       __ZN4absl12lts_2021110223inlined_vector_internal7StorageIN9grpc_core17LbCostBinMetadata9ValueTypeELm1ENSt3__19allocatorIS5_EEE15EmplaceBackSlowIJS5_EEERS5_DpOT_, 
                       __ZN4absl12lts_2021110223inlined_vector_internal7StorageIN9grpc_core17LbCostBinMetadata9ValueTypeELm1ENSt3__19allocatorIS5_EEE6AssignINS1_20IteratorValueAdapterIS8_NS6_13move_iteratorIPS5_EEEEEEvT_m, 
                       __ZN4absl12lts_2021110223inlined_vector_internal7StorageIN9grpc_core19XdsEndpointResource10DropConfig12DropCategoryELm2ENSt3__19allocatorIS6_EEE11EmplaceBackIJS6_EEERS6_DpOT_, 
                       __ZN4absl12lts_2021110223inlined_vector_internal7StorageIN9grpc_core19XdsEndpointResource10DropConfig12DropCategoryELm2ENSt3__19allocatorIS6_EEE15DestroyContentsEv, 
                       __ZN4absl12lts_2021110223inlined_vector_internal7StorageIN9grpc_core19XdsEndpointResource10DropConfig12DropCategoryELm2ENSt3__19allocatorIS6_EEE15EmplaceBackSlowIJS6_EEERS6_DpOT_, 
                       __ZN4absl12lts_2021110223inlined_vector_internal7StorageIN9grpc_core19XdsEndpointResource8PriorityELm2ENSt3__19allocatorIS5_EEE11EmplaceBackIJEEERS5_DpOT_, 
                       __ZN4absl12lts_2021110223inlined_vector_internal7StorageIN9grpc_core19XdsEndpointResource8PriorityELm2ENSt3__19allocatorIS5_EEE11EmplaceBackIJS5_EEERS5_DpOT_, 
                       __ZN4absl12lts_2021110223inlined_vector_internal7StorageIN9grpc_core19XdsEndpointResource8PriorityELm2ENSt3__19allocatorIS5_EEE15DestroyContentsEv, 
                       __ZN4absl12lts_2021110223inlined_vector_internal7StorageIN9grpc_core19XdsEndpointResource8PriorityELm2ENSt3__19allocatorIS5_EEE15EmplaceBackSlowIJEEERS5_DpOT_, 
                       __ZN4absl12lts_2021110223inlined_vector_internal7StorageIN9grpc_core19XdsEndpointResource8PriorityELm2ENSt3__19allocatorIS5_EEE15EmplaceBackSlowIJS5_EEERS5_DpOT_, 
                       __ZN4absl12lts_2021110223inlined_vector_internal7StorageIN9grpc_core19XdsEndpointResource8PriorityELm2ENSt3__19allocatorIS5_EEE6AssignINS1_20IteratorValueAdapterIS8_NS6_13move_iteratorIPS5_EEEEEEvT_m, 
                       __ZN4absl12lts_2021110223inlined_vector_internal7StorageIN9grpc_core19XdsEndpointResource8PriorityELm2ENSt3__19allocatorIS5_EEE6AssignINS1_20IteratorValueAdapterIS8_PKS5_EEEEvT_m, 
                       __ZN4absl12lts_2021110223inlined_vector_internal7StorageIN9grpc_core19XdsEndpointResource8PriorityELm2ENSt3__19allocatorIS5_EEE6InsertINS1_20IteratorValueAdapterIS8_PS5_EEEESC_PKS5_T_m, 
                       __ZN4absl12lts_2021110223inlined_vector_internal7StorageIN9grpc_core19XdsEndpointResource8PriorityELm2ENSt3__19allocatorIS5_EEE8InitFromERKS9_, 
                       __ZN4absl12lts_2021110223inlined_vector_internal7StorageIN9grpc_core23CallCombinerClosureList19CallCombinerClosureELm6ENSt3__19allocatorIS5_EEE11EmplaceBackIJRP12grpc_closureRP10grpc_errorRPKcEEERS5_DpOT_, 
                       __ZN4absl12lts_2021110223inlined_vector_internal7StorageIN9grpc_core23CallCombinerClosureList19CallCombinerClosureELm6ENSt3__19allocatorIS5_EEE15EmplaceBackSlowIJRP12grpc_closureRP10grpc_errorRPKcEEERS5_DpOT_, 
                       __ZN4absl12lts_2021110223inlined_vector_internal7StorageIN9grpc_core8channelz18CallCountingHelper17AtomicCounterDataELm1ENSt3__19allocatorIS6_EEE11EmplaceBackIJEEERS6_DpOT_, 
                       __ZN4absl12lts_2021110223inlined_vector_internal7StorageIN9grpc_core8channelz18CallCountingHelper17AtomicCounterDataELm1ENSt3__19allocatorIS6_EEE15DestroyContentsEv, 
                       __ZN4absl12lts_2021110223inlined_vector_internal7StorageIN9grpc_core8channelz18CallCountingHelper17AtomicCounterDataELm1ENSt3__19allocatorIS6_EEE15EmplaceBackSlowIJEEERS6_DpOT_, 
                       __ZN4absl12lts_2021110223inlined_vector_internal7StorageIN9grpc_core8channelz18CallCountingHelper17AtomicCounterDataELm1ENSt3__19allocatorIS6_EEE7ReserveEm, 
                       __ZN4absl12lts_2021110223inlined_vector_internal7StorageINSt3__110unique_ptrIN9grpc_core15ResolverFactoryENS3_14default_deleteIS6_EEEELm10ENS3_9allocatorIS9_EEE11EmplaceBackIJS9_EEERS9_DpOT_, 
                       __ZN4absl12lts_2021110223inlined_vector_internal7StorageINSt3__110unique_ptrIN9grpc_core15ResolverFactoryENS3_14default_deleteIS6_EEEELm10ENS3_9allocatorIS9_EEE15DestroyContentsEv, 
                       __ZN4absl12lts_2021110223inlined_vector_internal7StorageINSt3__110unique_ptrIN9grpc_core15ResolverFactoryENS3_14default_deleteIS6_EEEELm10ENS3_9allocatorIS9_EEE15EmplaceBackSlowIJS9_EEERS9_DpOT_, 
                       __ZN4absl12lts_2021110223inlined_vector_internal7StorageINSt3__110unique_ptrIN9grpc_core19ServiceConfigParser12ParsedConfigENS3_14default_deleteIS7_EEEELm4ENS3_9allocatorISA_EEE11EmplaceBackIJSA_EEERSA_DpOT_, 
                       __ZN4absl12lts_2021110223inlined_vector_internal7StorageINSt3__110unique_ptrIN9grpc_core19ServiceConfigParser12ParsedConfigENS3_14default_deleteIS7_EEEELm4ENS3_9allocatorISA_EEE15DestroyContentsEv, 
                       __ZN4absl12lts_2021110223inlined_vector_internal7StorageINSt3__110unique_ptrIN9grpc_core19ServiceConfigParser12ParsedConfigENS3_14default_deleteIS7_EEEELm4ENS3_9allocatorISA_EEE15EmplaceBackSlowIJSA_EEERSA_DpOT_, 
                       __ZN4absl12lts_2021110223inlined_vector_internal7StorageINSt3__110unique_ptrIN9grpc_core19ServiceConfigParser12ParsedConfigENS3_14default_deleteIS7_EEEELm4ENS3_9allocatorISA_EEE6AssignINS1_20IteratorValueAdapterISC_NS3_13move_iteratorIPSA_EEEEEEvT_m, 
                       __ZN4absl12lts_2021110223inlined_vector_internal7StorageINSt3__110unique_ptrIN9grpc_core19ServiceConfigParser6ParserENS3_14default_deleteIS7_EEEELm4ENS3_9allocatorISA_EEE11EmplaceBackIJSA_EEERSA_DpOT_, 
                       __ZN4absl12lts_2021110223inlined_vector_internal7StorageINSt3__110unique_ptrIN9grpc_core19ServiceConfigParser6ParserENS3_14default_deleteIS7_EEEELm4ENS3_9allocatorISA_EEE15DestroyContentsEv, 
                       __ZN4absl12lts_2021110223inlined_vector_internal7StorageINSt3__110unique_ptrIN9grpc_core19ServiceConfigParser6ParserENS3_14default_deleteIS7_EEEELm4ENS3_9allocatorISA_EEE15EmplaceBackSlowIJSA_EEERSA_DpOT_, 
                       __ZN4absl12lts_2021110223inlined_vector_internal7StorageINSt3__110unique_ptrIN9grpc_core26CertificateProviderFactoryENS3_14default_deleteIS6_EEEELm3ENS3_9allocatorIS9_EEE11EmplaceBackIJS9_EEERS9_DpOT_, 
                       __ZN4absl12lts_2021110223inlined_vector_internal7StorageINSt3__110unique_ptrIN9grpc_core26CertificateProviderFactoryENS3_14default_deleteIS6_EEEELm3ENS3_9allocatorIS9_EEE15DestroyContentsEv, 
                       __ZN4absl12lts_2021110223inlined_vector_internal7StorageINSt3__110unique_ptrIN9grpc_core26CertificateProviderFactoryENS3_14default_deleteIS6_EEEELm3ENS3_9allocatorIS9_EEE15EmplaceBackSlowIJS9_EEERS9_DpOT_, 
                       __ZN4absl12lts_2021110223inlined_vector_internal7StorageINSt3__110unique_ptrIN9grpc_core26LoadBalancingPolicyFactoryENS3_14default_deleteIS6_EEEELm10ENS3_9allocatorIS9_EEE11EmplaceBackIJS9_EEERS9_DpOT_, 
                       __ZN4absl12lts_2021110223inlined_vector_internal7StorageINSt3__110unique_ptrIN9grpc_core26LoadBalancingPolicyFactoryENS3_14default_deleteIS6_EEEELm10ENS3_9allocatorIS9_EEE15DestroyContentsEv, 
                       __ZN4absl12lts_2021110223inlined_vector_internal7StorageINSt3__110unique_ptrIN9grpc_core26LoadBalancingPolicyFactoryENS3_14default_deleteIS6_EEEELm10ENS3_9allocatorIS9_EEE15EmplaceBackSlowIJS9_EEERS9_DpOT_, 
                       __ZN4absl12lts_2021110223inlined_vector_internal7StorageINSt3__110unique_ptrINS0_13InlinedVectorINS4_IN9grpc_core19ServiceConfigParser12ParsedConfigENS3_14default_deleteIS8_EEEELm4ENS3_9allocatorISB_EEEENS9_ISE_EEEELm32ENSC_ISG_EEE11EmplaceBackIJSG_EEERSG_DpOT_, 
                       __ZN4absl12lts_2021110223inlined_vector_internal7StorageINSt3__110unique_ptrINS0_13InlinedVectorINS4_IN9grpc_core19ServiceConfigParser12ParsedConfigENS3_14default_deleteIS8_EEEELm4ENS3_9allocatorISB_EEEENS9_ISE_EEEELm32ENSC_ISG_EEE15DestroyContentsEv, 
                       __ZN4absl12lts_2021110223inlined_vector_internal7StorageINSt3__110unique_ptrINS0_13InlinedVectorINS4_IN9grpc_core19ServiceConfigParser12ParsedConfigENS3_14default_deleteIS8_EEEELm4ENS3_9allocatorISB_EEEENS9_ISE_EEEELm32ENSC_ISG_EEE15EmplaceBackSlowIJSG_EEERSG_DpOT_, 
                       __ZN4absl12lts_2021110223inlined_vector_internal7StorageINSt3__112basic_stringIcNS3_11char_traitsIcEENS3_9allocatorIcEEEELm2ENS7_IS9_EEE11EmplaceBackIJS9_EEERS9_DpOT_, 
                       __ZN4absl12lts_2021110223inlined_vector_internal7StorageINSt3__112basic_stringIcNS3_11char_traitsIcEENS3_9allocatorIcEEEELm2ENS7_IS9_EEE15DestroyContentsEv, 
                       __ZN4absl12lts_2021110223inlined_vector_internal7StorageINSt3__112basic_stringIcNS3_11char_traitsIcEENS3_9allocatorIcEEEELm2ENS7_IS9_EEE15EmplaceBackSlowIJS9_EEERS9_DpOT_, 
                       __ZN4absl12lts_2021110223inlined_vector_internal7StorageINSt3__112basic_stringIcNS3_11char_traitsIcEENS3_9allocatorIcEEEELm4ENS7_IS9_EEE11EmplaceBackIJS9_EEERS9_DpOT_, 
                       __ZN4absl12lts_2021110223inlined_vector_internal7StorageINSt3__112basic_stringIcNS3_11char_traitsIcEENS3_9allocatorIcEEEELm4ENS7_IS9_EEE15DestroyContentsEv, 
                       __ZN4absl12lts_2021110223inlined_vector_internal7StorageINSt3__112basic_stringIcNS3_11char_traitsIcEENS3_9allocatorIcEEEELm4ENS7_IS9_EEE15EmplaceBackSlowIJS9_EEERS9_DpOT_, 
                       __ZN4absl12lts_2021110223inlined_vector_internal7StorageINSt3__112basic_stringIcNS3_11char_traitsIcEENS3_9allocatorIcEEEELm8ENS7_IS9_EEE11EmplaceBackIJS9_EEERS9_DpOT_, 
                       __ZN4absl12lts_2021110223inlined_vector_internal7StorageINSt3__112basic_stringIcNS3_11char_traitsIcEENS3_9allocatorIcEEEELm8ENS7_IS9_EEE15DestroyContentsEv, 
                       __ZN4absl12lts_2021110223inlined_vector_internal7StorageINSt3__112basic_stringIcNS3_11char_traitsIcEENS3_9allocatorIcEEEELm8ENS7_IS9_EEE15EmplaceBackSlowIJS9_EEERS9_DpOT_, 
                       __ZN4absl12lts_2021110223inlined_vector_internal7StorageIP10grpc_errorLm3ENSt3__19allocatorIS4_EEE11EmplaceBackIJS4_EEERS4_DpOT_, 
                       __ZN4absl12lts_2021110223inlined_vector_internal7StorageIP10grpc_errorLm3ENSt3__19allocatorIS4_EEE15EmplaceBackSlowIJS4_EEERS4_DpOT_, 
                       __ZN4absl12lts_2021110223inlined_vector_internal7StorageIPKcLm1ENSt3__19allocatorIS4_EEE11EmplaceBackIJRA34_S3_EEERS4_DpOT_, 
                       __ZN4absl12lts_2021110223inlined_vector_internal7StorageIPKcLm1ENSt3__19allocatorIS4_EEE15EmplaceBackSlowIJRA34_S3_EEERS4_DpOT_, 
                       __ZN4absl12lts_2021110223inlined_vector_internal7StorageIPKcLm3ENSt3__19allocatorIS4_EEE11EmplaceBackIJS4_EEERS4_DpOT_, 
                       __ZN4absl12lts_2021110223inlined_vector_internal7StorageIPKcLm3ENSt3__19allocatorIS4_EEE15EmplaceBackSlowIJS4_EEERS4_DpOT_, 
                       __ZN4absl12lts_2021110223inlined_vector_internal7StorageIPKcLm4ENSt3__19allocatorIS4_EEE10InitializeINS1_20IteratorValueAdapterIS7_PKS4_EEEEvT_m, 
                       __ZN4absl12lts_2021110223inlined_vector_internal7StorageIPKcLm4ENSt3__19allocatorIS4_EEE11EmplaceBackIJS4_EEERS4_DpOT_, 
                       __ZN4absl12lts_2021110223inlined_vector_internal7StorageIPKcLm4ENSt3__19allocatorIS4_EEE15EmplaceBackSlowIJS4_EEERS4_DpOT_, 
                       __ZN4absl12lts_2021110223inlined_vector_internal7StorageIPN9grpc_core15ByteStreamCacheELm3ENSt3__19allocatorIS5_EEE11EmplaceBackIJRKS5_EEERS5_DpOT_, 
                       __ZN4absl12lts_2021110223inlined_vector_internal7StorageIPN9grpc_core15ByteStreamCacheELm3ENSt3__19allocatorIS5_EEE15EmplaceBackSlowIJRKS5_EEERS5_DpOT_, 
                       __ZN4absl12lts_2021110223inlined_vector_internal7StorageIPNS0_13cord_internal7CordRepELm47ENSt3__19allocatorIS5_EEE11EmplaceBackIJRKS5_EEERS5_DpOT_, 
                       __ZN4absl12lts_2021110223inlined_vector_internal7StorageIPNS0_13cord_internal7CordRepELm47ENSt3__19allocatorIS5_EEE15EmplaceBackSlowIJRKS5_EEERS5_DpOT_, 
                       __ZN4absl12lts_2021110223inlined_vector_internal7StorageIcLm196ENSt3__19allocatorIcEEE11EmplaceBackIJcEEERcDpOT_, 
                       __ZN4absl12lts_2021110223inlined_vector_internal7StorageIcLm196ENSt3__19allocatorIcEEE15EmplaceBackSlowIJcEEERcDpOT_, 
                       __ZN4absl12lts_2021110223inlined_vector_internal7StorageIcLm196ENSt3__19allocatorIcEEE5EraseEPKcS8_, 
                       __ZN4absl12lts_2021110223inlined_vector_internal7StorageIcLm196ENSt3__19allocatorIcEEE6AssignINS1_20IteratorValueAdapterIS5_NS3_11__wrap_iterIPKcEEEEEEvT_m, 
                       __ZN4absl12lts_2021110223inlined_vector_internal7StorageIcLm196ENSt3__19allocatorIcEEE6InsertINS1_20IteratorValueAdapterIS5_NS3_11__wrap_iterIPKcEEEEEEPcSB_T_m, 
                       __ZN4absl12lts_2021110223inlined_vector_internal7StorageItLm128ENSt3__19allocatorItEEE10InitializeINS1_19DefaultValueAdapterIS5_EEEEvT_m, 
                       __ZN4absl12lts_2021110223inlined_vector_internal7StorageItLm128ENSt3__19allocatorItEEE4SwapEPS6_, 
                       __ZN4absl12lts_2021110225uniform_real_distributionIdEclINS0_15random_internal17NonsecureURBGBaseINS4_13randen_engineIyEEEEEEdRT_RKNS2_10param_typeE, 
                       __ZN4absl12lts_2021110239AbslInternalInlineVariableHoldernulloptIvE9kInstanceE, 
                       __ZN4absl12lts_2021110240AbslInternalInlineVariableHolderin_placeIvE9kInstanceE, 
                       __ZN4absl12lts_202111025equalIPKN9grpc_core13ServerAddressES5_EEbT_S6_T0_S7_, 
                       __ZN4absl12lts_202111025equalIPKN9grpc_core13ServerAddressES5_NS0_18algorithm_internal7EqualToEEEbT_S8_T0_S9_OT1_, 
                       __ZN4absl12lts_202111025equalIPKN9grpc_core14PemKeyCertPairES5_EEbT_S6_T0_S7_, 
                       __ZN4absl12lts_202111025equalIPKN9grpc_core14PemKeyCertPairES5_NS0_18algorithm_internal7EqualToEEEbT_S8_T0_S9_OT1_, 
                       __ZN4absl12lts_202111025equalIPKN9grpc_core19XdsEndpointResource10DropConfig12DropCategoryES7_EEbT_S8_T0_S9_, 
                       __ZN4absl12lts_202111025equalIPKN9grpc_core19XdsEndpointResource10DropConfig12DropCategoryES7_NS0_18algorithm_internal7EqualToEEEbT_SA_T0_SB_OT1_, 
                       __ZN4absl12lts_202111025equalIPKN9grpc_core19XdsEndpointResource8PriorityES6_EEbT_S7_T0_S8_, 
                       __ZN4absl12lts_202111025equalIPKN9grpc_core19XdsEndpointResource8PriorityES6_NS0_18algorithm_internal7EqualToEEEbT_S9_T0_SA_OT1_, 
                       __ZN4absl12lts_202111027StrJoinINS0_13InlinedVectorINSt3__112basic_stringIcNS3_11char_traitsIcEENS3_9allocatorIcEEEELm2ENS7_IS9_EEEEEES9_RKT_NS0_11string_viewE, 
                       __ZN4absl12lts_202111027StrJoinINS0_13InlinedVectorINSt3__112basic_stringIcNS3_11char_traitsIcEENS3_9allocatorIcEEEELm4ENS7_IS9_EEEEEES9_RKT_NS0_11string_viewE, 
                       __ZN4absl12lts_202111027StrJoinINS0_13InlinedVectorINSt3__112basic_stringIcNS3_11char_traitsIcEENS3_9allocatorIcEEEELm8ENS7_IS9_EEEEEES9_RKT_NS0_11string_viewE, 
                       __ZN4absl12lts_202111027StrJoinINS0_13InlinedVectorIPKcLm3ENSt3__19allocatorIS4_EEEEEENS5_12basic_stringIcNS5_11char_traitsIcEENS6_IcEEEERKT_NS0_11string_viewE, 
                       __ZN4absl12lts_202111027StrJoinINSt3__13mapINS2_12basic_stringIcNS2_11char_traitsIcEENS2_9allocatorIcEEEES9_NS2_4lessIS9_EENS7_INS2_4pairIKS9_S9_EEEEEENS0_16strings_internal17PairFormatterImplINSH_21AlphaNumFormatterImplESJ_EEEES9_RKT_NS0_11string_viewEOT0_, 
                       __ZN4absl12lts_202111027StrJoinINSt3__13setINS2_12basic_stringIcNS2_11char_traitsIcEENS2_9allocatorIcEEEENS2_4lessIS9_EENS7_IS9_EEEEEES9_RKT_NS0_11string_viewE, 
                       __ZN4absl12lts_202111027StrJoinINSt3__16vectorINS0_11string_viewENS2_9allocatorIS4_EEEEEENS2_12basic_stringIcNS2_11char_traitsIcEENS5_IcEEEERKT_S4_, 
                       __ZN4absl12lts_202111027StrJoinINSt3__16vectorINS2_12basic_stringIcNS2_11char_traitsIcEENS2_9allocatorIcEEEENS7_IS9_EEEEEES9_RKT_NS0_11string_viewE, 
                       __ZN4absl12lts_202111027StrJoinINSt3__16vectorIjNS2_9allocatorIjEEEEEENS2_12basic_stringIcNS2_11char_traitsIcEENS4_IcEEEERKT_NS0_11string_viewE, 
                       __ZN4absl12lts_202111027UniformIdRNS0_15random_internal17NonsecureURBGBaseINS2_13randen_engineIyEEEEEENSt3__19enable_ifIXntsr3std7is_sameIT_vEE5valueESA_E4typeEOT0_SA_SA_, 
                       __ZN4absl12lts_202111028MakeSpanIJEjEENS0_4SpanIT0_EEPS3_S5_, 
                       __ZN4absl12lts_202111028StatusOrIN9grpc_core15XdsResourceType12DecodeResultEEptEv, 
                       __ZN4absl12lts_202111028StatusOrIN9grpc_core17XdsHttpFilterImpl22ServiceConfigJsonEntryEEptEv, 
                       __ZN4absl12lts_202111028StatusOrIN9grpc_core3URIEEptEv, __ZN4absl12lts_202111028StatusOrIN9grpc_core9XdsClient15XdsResourceNameEEptEv, 
                       __ZN4absl12lts_202111028StatusOrINS0_13InlinedVectorIN9grpc_core13ServerAddressELm1ENSt3__19allocatorIS4_EEEEEptEv, 
                       __ZN4absl12lts_202111028StatusOrINSt3__110unique_ptrIN9grpc_core15XdsResourceType12ResourceDataENS2_14default_deleteIS6_EEEEEptEv, 
                       __ZN4absl12lts_202111028StatusOrINSt3__112basic_stringIcNS2_11char_traitsIcEENS2_9allocatorIcEEEEEptEv, 
                       __ZN4absl12lts_202111028StatusOrINSt3__16vectorI21grpc_resolved_addressNS2_9allocatorIS4_EEEEEptEv, 
                       __ZN4absl12lts_202111028StrSplitINS0_16strings_internal13MaxSplitsImplINS0_6ByCharEEEEENS2_8SplitterINS2_15SelectDelimiterIT_E4typeENS0_10AllowEmptyENS0_11string_viewEEENS2_23ConvertibleToStringViewES8_, 
                       __ZN4absl12lts_202111028StrSplitINS0_16strings_internal13MaxSplitsImplINS0_8ByStringEEEEENS2_8SplitterINS2_15SelectDelimiterIT_E4typeENS0_10AllowEmptyENS0_11string_viewEEENS2_23ConvertibleToStringViewES8_, 
                       __ZN4absl12lts_202111028StrSplitIcEENS0_16strings_internal8SplitterINS2_15SelectDelimiterIT_E4typeENS0_10AllowEmptyENS0_11string_viewEEENS2_23ConvertibleToStringViewES5_, 
                       __ZN4absl12lts_202111028exchangeIN9grpc_core8Activity15ActionDuringRunES4_EET_RS5_OT0_, 
                       __ZN4absl12lts_202111028exchangeIbbEET_RS2_OT0_, __ZN4absl12lts_202111028exchangeImRKmEET_RS4_OT0_, 
                       __ZN4absl12lts_202111029StrFormatIJ16grpc_status_codeEEENSt3__112basic_stringIcNS3_11char_traitsIcEENS3_9allocatorIcEEEERKNS0_19str_format_internal18FormatSpecTemplateIJXspclsr19str_format_internalE14ArgumentToConvIT_EEEEEEDpRKSC_, 
                       __ZN4absl12lts_202111029StrFormatIJA17_cNSt3__112basic_stringIcNS3_11char_traitsIcEENS3_9allocatorIcEEEES9_S9_S9_EEES9_RKNS0_19str_format_internal18FormatSpecTemplateIJXspclsr19str_format_internalE14ArgumentToConvIT_EEEEEEDpRKSC_, 
                       __ZN4absl12lts_202111029StrFormatIJA46_cjEEENSt3__112basic_stringIcNS3_11char_traitsIcEENS3_9allocatorIcEEEERKNS0_19str_format_internal18FormatSpecTemplateIJXspclsr19str_format_internalE14ArgumentToConvIT_EEEEEEDpRKSC_, 
                       __ZN4absl12lts_202111029StrFormatIJEEENSt3__112basic_stringIcNS2_11char_traitsIcEENS2_9allocatorIcEEEERKNS0_19str_format_internal18FormatSpecTemplateIJXspclsr19str_format_internalE14ArgumentToConvIT_EEEEEEDpRKSB_, 
                       __ZN4absl12lts_202111029StrFormatIJNS0_11string_viewEA8_cEEENSt3__112basic_stringIcNS4_11char_traitsIcEENS4_9allocatorIcEEEERKNS0_19str_format_internal18FormatSpecTemplateIJXspclsr19str_format_internalE14ArgumentToConvIT_EEEEEEDpRKSD_, 
                       __ZN4absl12lts_202111029StrFormatIJNS0_11string_viewEEEENSt3__112basic_stringIcNS3_11char_traitsIcEENS3_9allocatorIcEEEERKNS0_19str_format_internal18FormatSpecTemplateIJXspclsr19str_format_internalE14ArgumentToConvIT_EEEEEEDpRKSC_, 
                       __ZN4absl12lts_202111029StrFormatIJNS0_11string_viewENSt3__112basic_stringIcNS3_11char_traitsIcEENS3_9allocatorIcEEEEEEES9_RKNS0_19str_format_internal18FormatSpecTemplateIJXspclsr19str_format_internalE14ArgumentToConvIT_EEEEEEDpRKSC_, 
                       __ZN4absl12lts_202111029StrFormatIJNS0_11string_viewENSt3__112basic_stringIcNS3_11char_traitsIcEENS3_9allocatorIcEEEES9_S9_EEES9_RKNS0_19str_format_internal18FormatSpecTemplateIJXspclsr19str_format_internalE14ArgumentToConvIT_EEEEEEDpRKSC_, 
                       __ZN4absl12lts_202111029StrFormatIJNS0_11string_viewES2_S2_EEENSt3__112basic_stringIcNS3_11char_traitsIcEENS3_9allocatorIcEEEERKNS0_19str_format_internal18FormatSpecTemplateIJXspclsr19str_format_internalE14ArgumentToConvIT_EEEEEEDpRKSC_, 
                       __ZN4absl12lts_202111029StrFormatIJNS0_11string_viewEiEEENSt3__112basic_stringIcNS3_11char_traitsIcEENS3_9allocatorIcEEEERKNS0_19str_format_internal18FormatSpecTemplateIJXspclsr19str_format_internalE14ArgumentToConvIT_EEEEEEDpRKSC_, 
                       __ZN4absl12lts_202111029StrFormatIJNSt3__112basic_stringIcNS2_11char_traitsIcEENS2_9allocatorIcEEEEEEES8_RKNS0_19str_format_internal18FormatSpecTemplateIJXspclsr19str_format_internalE14ArgumentToConvIT_EEEEEEDpRKSB_, 
                       __ZN4absl12lts_202111029StrFormatIJNSt3__112basic_stringIcNS2_11char_traitsIcEENS2_9allocatorIcEEEEPKcEEES8_RKNS0_19str_format_internal18FormatSpecTemplateIJXspclsr19str_format_internalE14ArgumentToConvIT_EEEEEEDpRKSD_, 
                       __ZN4absl12lts_202111029StrFormatIJNSt3__112basic_stringIcNS2_11char_traitsIcEENS2_9allocatorIcEEEEPKcS8_EEES8_RKNS0_19str_format_internal18FormatSpecTemplateIJXspclsr19str_format_internalE14ArgumentToConvIT_EEEEEEDpRKSD_, 
                       __ZN4absl12lts_202111029StrFormatIJNSt3__112basic_stringIcNS2_11char_traitsIcEENS2_9allocatorIcEEEEPKcSA_EEES8_RKNS0_19str_format_internal18FormatSpecTemplateIJXspclsr19str_format_internalE14ArgumentToConvIT_EEEEEEDpRKSD_, 
                       __ZN4absl12lts_202111029StrFormatIJNSt3__112basic_stringIcNS2_11char_traitsIcEENS2_9allocatorIcEEEEPKcxxEEES8_RKNS0_19str_format_internal18FormatSpecTemplateIJXspclsr19str_format_internalE14ArgumentToConvIT_EEEEEEDpRKSD_, 
                       __ZN4absl12lts_202111029StrFormatIJNSt3__112basic_stringIcNS2_11char_traitsIcEENS2_9allocatorIcEEEEPN9grpc_core17GrpcLbClientStatsEEEES8_RKNS0_19str_format_internal18FormatSpecTemplateIJXspclsr19str_format_internalE14ArgumentToConvIT_EEEEEEDpRKSE_, 
                       __ZN4absl12lts_202111029StrFormatIJNSt3__112basic_stringIcNS2_11char_traitsIcEENS2_9allocatorIcEEEES8_EEES8_RKNS0_19str_format_internal18FormatSpecTemplateIJXspclsr19str_format_internalE14ArgumentToConvIT_EEEEEEDpRKSB_, 
                       __ZN4absl12lts_202111029StrFormatIJNSt3__112basic_stringIcNS2_11char_traitsIcEENS2_9allocatorIcEEEES8_S8_EEES8_RKNS0_19str_format_internal18FormatSpecTemplateIJXspclsr19str_format_internalE14ArgumentToConvIT_EEEEEEDpRKSB_, 
                       __ZN4absl12lts_202111029StrFormatIJNSt3__112basic_stringIcNS2_11char_traitsIcEENS2_9allocatorIcEEEES8_S8_S8_S8_S8_EEES8_RKNS0_19str_format_internal18FormatSpecTemplateIJXspclsr19str_format_internalE14ArgumentToConvIT_EEEEEEDpRKSB_, 
                       __ZN4absl12lts_202111029StrFormatIJNSt3__112basic_stringIcNS2_11char_traitsIcEENS2_9allocatorIcEEEEiEEES8_RKNS0_19str_format_internal18FormatSpecTemplateIJXspclsr19str_format_internalE14ArgumentToConvIT_EEEEEEDpRKSB_, 
                       __ZN4absl12lts_202111029StrFormatIJNSt3__112basic_stringIcNS2_11char_traitsIcEENS2_9allocatorIcEEEEjEEES8_RKNS0_19str_format_internal18FormatSpecTemplateIJXspclsr19str_format_internalE14ArgumentToConvIT_EEEEEEDpRKSB_, 
                       __ZN4absl12lts_202111029StrFormatIJNSt3__112basic_stringIcNS2_11char_traitsIcEENS2_9allocatorIcEEEEmEEES8_RKNS0_19str_format_internal18FormatSpecTemplateIJXspclsr19str_format_internalE14ArgumentToConvIT_EEEEEEDpRKSB_, 
                       __ZN4absl12lts_202111029StrFormatIJP13grpc_endpointP17grpc_channel_argsmNSt3__112basic_stringIcNS6_11char_traitsIcEENS6_9allocatorIcEEEEP17grpc_slice_buffermbEEESC_RKNS0_19str_format_internal18FormatSpecTemplateIJXspclsr19str_format_internalE14ArgumentToConvIT_EEEEEEDpRKSH_, 
                       __ZN4absl12lts_202111029StrFormatIJP16grpc_byte_bufferEEENSt3__112basic_stringIcNS4_11char_traitsIcEENS4_9allocatorIcEEEERKNS0_19str_format_internal18FormatSpecTemplateIJXspclsr19str_format_internalE14ArgumentToConvIT_EEEEEEDpRKSD_, 
                       __ZN4absl12lts_202111029StrFormatIJP19grpc_metadata_arrayEEENSt3__112basic_stringIcNS4_11char_traitsIcEENS4_9allocatorIcEEEERKNS0_19str_format_internal18FormatSpecTemplateIJXspclsr19str_format_internalE14ArgumentToConvIT_EEEEEEDpRKSD_, 
                       __ZN4absl12lts_202111029StrFormatIJP19grpc_metadata_arrayP16grpc_status_codeP10grpc_sliceEEENSt3__112basic_stringIcNS8_11char_traitsIcEENS8_9allocatorIcEEEERKNS0_19str_format_internal18FormatSpecTemplateIJXspclsr19str_format_internalE14ArgumentToConvIT_EEEEEEDpRKSH_, 
                       __ZN4absl12lts_202111029StrFormatIJPFvPvP14grpc_transportPKvES2_EEENSt3__112basic_stringIcNS9_11char_traitsIcEENS9_9allocatorIcEEEERKNS0_19str_format_internal18FormatSpecTemplateIJXspclsr19str_format_internalE14ArgumentToConvIT_EEEEEEDpRKSI_, 
                       __ZN4absl12lts_202111029StrFormatIJPKcA4_cS3_EEENSt3__112basic_stringIcNS5_11char_traitsIcEENS5_9allocatorIcEEEERKNS0_19str_format_internal18FormatSpecTemplateIJXspclsr19str_format_internalE14ArgumentToConvIT_EEEEEEDpRKSE_, 
                       __ZN4absl12lts_202111029StrFormatIJPKcA64_cilS3_iEEENSt3__112basic_stringIcNS5_11char_traitsIcEENS5_9allocatorIcEEEERKNS0_19str_format_internal18FormatSpecTemplateIJXspclsr19str_format_internalE14ArgumentToConvIT_EEEEEEDpRKSE_, 
                       __ZN4absl12lts_202111029StrFormatIJPKcEEENSt3__112basic_stringIcNS4_11char_traitsIcEENS4_9allocatorIcEEEERKNS0_19str_format_internal18FormatSpecTemplateIJXspclsr19str_format_internalE14ArgumentToConvIT_EEEEEEDpRKSD_, 
                       __ZN4absl12lts_202111029StrFormatIJPKcNSt3__112basic_stringIcNS4_11char_traitsIcEENS4_9allocatorIcEEEEEEESA_RKNS0_19str_format_internal18FormatSpecTemplateIJXspclsr19str_format_internalE14ArgumentToConvIT_EEEEEEDpRKSD_, 
                       __ZN4absl12lts_202111029StrFormatIJPKcPcEEENSt3__112basic_stringIcNS5_11char_traitsIcEENS5_9allocatorIcEEEERKNS0_19str_format_internal18FormatSpecTemplateIJXspclsr19str_format_internalE14ArgumentToConvIT_EEEEEEDpRKSE_, 
                       __ZN4absl12lts_202111029StrFormatIJPKcS3_EEENSt3__112basic_stringIcNS4_11char_traitsIcEENS4_9allocatorIcEEEERKNS0_19str_format_internal18FormatSpecTemplateIJXspclsr19str_format_internalE14ArgumentToConvIT_EEEEEEDpRKSD_, 
                       __ZN4absl12lts_202111029StrFormatIJPKciEEENSt3__112basic_stringIcNS4_11char_traitsIcEENS4_9allocatorIcEEEERKNS0_19str_format_internal18FormatSpecTemplateIJXspclsr19str_format_internalE14ArgumentToConvIT_EEEEEEDpRKSD_, 
                       __ZN4absl12lts_202111029StrFormatIJPKcjEEENSt3__112basic_stringIcNS4_11char_traitsIcEENS4_9allocatorIcEEEERKNS0_19str_format_internal18FormatSpecTemplateIJXspclsr19str_format_internalE14ArgumentToConvIT_EEEEEEDpRKSD_, 
                       __ZN4absl12lts_202111029StrFormatIJPKclEEENSt3__112basic_stringIcNS4_11char_traitsIcEENS4_9allocatorIcEEEERKNS0_19str_format_internal18FormatSpecTemplateIJXspclsr19str_format_internalE14ArgumentToConvIT_EEEEEEDpRKSD_, 
                       __ZN4absl12lts_202111029StrFormatIJPN9grpc_core33ConnectivityStateWatcherInterfaceEEEENSt3__112basic_stringIcNS5_11char_traitsIcEENS5_9allocatorIcEEEERKNS0_19str_format_internal18FormatSpecTemplateIJXspclsr19str_format_internalE14ArgumentToConvIT_EEEEEEDpRKSE_, 
                       __ZN4absl12lts_202111029StrFormatIJPN9grpc_core33ConnectivityStateWatcherInterfaceEPKcEEENSt3__112basic_stringIcNS7_11char_traitsIcEENS7_9allocatorIcEEEERKNS0_19str_format_internal18FormatSpecTemplateIJXspclsr19str_format_internalE14ArgumentToConvIT_EEEEEEDpRKSG_, 
                       __ZN4absl12lts_202111029StrFormatIJPP16grpc_byte_bufferEEENSt3__112basic_stringIcNS5_11char_traitsIcEENS5_9allocatorIcEEEERKNS0_19str_format_internal18FormatSpecTemplateIJXspclsr19str_format_internalE14ArgumentToConvIT_EEEEEEDpRKSE_, 
                       __ZN4absl12lts_202111029StrFormatIJPcNSt3__112basic_stringIcNS3_11char_traitsIcEENS3_9allocatorIcEEEEEEES9_RKNS0_19str_format_internal18FormatSpecTemplateIJXspclsr19str_format_internalE14ArgumentToConvIT_EEEEEEDpRKSC_, 
                       __ZN4absl12lts_202111029StrFormatIJPcPvEEENSt3__112basic_stringIcNS4_11char_traitsIcEENS4_9allocatorIcEEEERKNS0_19str_format_internal18FormatSpecTemplateIJXspclsr19str_format_internalE14ArgumentToConvIT_EEEEEEDpRKSD_, 
                       __ZN4absl12lts_202111029StrFormatIJPcS2_EEENSt3__112basic_stringIcNS3_11char_traitsIcEENS3_9allocatorIcEEEERKNS0_19str_format_internal18FormatSpecTemplateIJXspclsr19str_format_internalE14ArgumentToConvIT_EEEEEEDpRKSC_, 
                       __ZN4absl12lts_202111029StrFormatIJPcS2_S2_EEENSt3__112basic_stringIcNS3_11char_traitsIcEENS3_9allocatorIcEEEERKNS0_19str_format_internal18FormatSpecTemplateIJXspclsr19str_format_internalE14ArgumentToConvIT_EEEEEEDpRKSC_, 
                       __ZN4absl12lts_202111029StrFormatIJPciEEENSt3__112basic_stringIcNS3_11char_traitsIcEENS3_9allocatorIcEEEERKNS0_19str_format_internal18FormatSpecTemplateIJXspclsr19str_format_internalE14ArgumentToConvIT_EEEEEEDpRKSC_, 
                       __ZN4absl12lts_202111029StrFormatIJPiEEENSt3__112basic_stringIcNS3_11char_traitsIcEENS3_9allocatorIcEEEERKNS0_19str_format_internal18FormatSpecTemplateIJXspclsr19str_format_internalE14ArgumentToConvIT_EEEEEEDpRKSC_, 
                       __ZN4absl12lts_202111029StrFormatIJPvEEENSt3__112basic_stringIcNS3_11char_traitsIcEENS3_9allocatorIcEEEERKNS0_19str_format_internal18FormatSpecTemplateIJXspclsr19str_format_internalE14ArgumentToConvIT_EEEEEEDpRKSC_, 
                       __ZN4absl12lts_202111029StrFormatIJcihi35grpc_chttp2_deframe_transport_stateEEENSt3__112basic_stringIcNS3_11char_traitsIcEENS3_9allocatorIcEEEERKNS0_19str_format_internal18FormatSpecTemplateIJXspclsr19str_format_internalE14ArgumentToConvIT_EEEEEEDpRKSC_, 
                       __ZN4absl12lts_202111029StrFormatIJhEEENSt3__112basic_stringIcNS2_11char_traitsIcEENS2_9allocatorIcEEEERKNS0_19str_format_internal18FormatSpecTemplateIJXspclsr19str_format_internalE14ArgumentToConvIT_EEEEEEDpRKSB_, 
                       __ZN4absl12lts_202111029StrFormatIJiEEENSt3__112basic_stringIcNS2_11char_traitsIcEENS2_9allocatorIcEEEERKNS0_19str_format_internal18FormatSpecTemplateIJXspclsr19str_format_internalE14ArgumentToConvIT_EEEEEEDpRKSB_, 
                       __ZN4absl12lts_202111029StrFormatIJimEEENSt3__112basic_stringIcNS2_11char_traitsIcEENS2_9allocatorIcEEEERKNS0_19str_format_internal18FormatSpecTemplateIJXspclsr19str_format_internalE14ArgumentToConvIT_EEEEEEDpRKSB_, 
                       __ZN4absl12lts_202111029StrFormatIJjEEENSt3__112basic_stringIcNS2_11char_traitsIcEENS2_9allocatorIcEEEERKNS0_19str_format_internal18FormatSpecTemplateIJXspclsr19str_format_internalE14ArgumentToConvIT_EEEEEEDpRKSB_, 
                       __ZN4absl12lts_202111029StrFormatIJjPKcEEENSt3__112basic_stringIcNS4_11char_traitsIcEENS4_9allocatorIcEEEERKNS0_19str_format_internal18FormatSpecTemplateIJXspclsr19str_format_internalE14ArgumentToConvIT_EEEEEEDpRKSD_, 
                       __ZN4absl12lts_202111029StrFormatIJjhEEENSt3__112basic_stringIcNS2_11char_traitsIcEENS2_9allocatorIcEEEERKNS0_19str_format_internal18FormatSpecTemplateIJXspclsr19str_format_internalE14ArgumentToConvIT_EEEEEEDpRKSB_, 
                       __ZN4absl12lts_202111029StrFormatIJjiEEENSt3__112basic_stringIcNS2_11char_traitsIcEENS2_9allocatorIcEEEERKNS0_19str_format_internal18FormatSpecTemplateIJXspclsr19str_format_internalE14ArgumentToConvIT_EEEEEEDpRKSB_, 
                       __ZN4absl12lts_202111029StrFormatIJjjEEENSt3__112basic_stringIcNS2_11char_traitsIcEENS2_9allocatorIcEEEERKNS0_19str_format_internal18FormatSpecTemplateIJXspclsr19str_format_internalE14ArgumentToConvIT_EEEEEEDpRKSB_, 
                       __ZN4absl12lts_202111029StrFormatIJjxixiEEENSt3__112basic_stringIcNS2_11char_traitsIcEENS2_9allocatorIcEEEERKNS0_19str_format_internal18FormatSpecTemplateIJXspclsr19str_format_internalE14ArgumentToConvIT_EEEEEEDpRKSB_, 
                       __ZN4absl12lts_202111029StrFormatIJmEEENSt3__112basic_stringIcNS2_11char_traitsIcEENS2_9allocatorIcEEEERKNS0_19str_format_internal18FormatSpecTemplateIJXspclsr19str_format_internalE14ArgumentToConvIT_EEEEEEDpRKSB_, 
                       __ZN4absl12lts_202111029StrFormatIJmNSt3__112basic_stringIcNS2_11char_traitsIcEENS2_9allocatorIcEEEEA50_cEEES8_RKNS0_19str_format_internal18FormatSpecTemplateIJXspclsr19str_format_internalE14ArgumentToConvIT_EEEEEEDpRKSC_, 
                       __ZN4absl12lts_202111029StrFormatIJmmEEENSt3__112basic_stringIcNS2_11char_traitsIcEENS2_9allocatorIcEEEERKNS0_19str_format_internal18FormatSpecTemplateIJXspclsr19str_format_internalE14ArgumentToConvIT_EEEEEEDpRKSB_, 
                       __ZN4absl12lts_202111029StrFormatIJxEEENSt3__112basic_stringIcNS2_11char_traitsIcEENS2_9allocatorIcEEEERKNS0_19str_format_internal18FormatSpecTemplateIJXspclsr19str_format_internalE14ArgumentToConvIT_EEEEEEDpRKSB_, 
                       __ZN4absl12lts_202111029StrFormatIJxiEEENSt3__112basic_stringIcNS2_11char_traitsIcEENS2_9allocatorIcEEEERKNS0_19str_format_internal18FormatSpecTemplateIJXspclsr19str_format_internalE14ArgumentToConvIT_EEEEEEDpRKSB_, 
                       __ZN4absl12lts_202111029StrFormatIJxxEEENSt3__112basic_stringIcNS2_11char_traitsIcEENS2_9allocatorIcEEEERKNS0_19str_format_internal18FormatSpecTemplateIJXspclsr19str_format_internalE14ArgumentToConvIT_EEEEEEDpRKSB_, 
                       __ZN4absl12lts_20211102eqIN9grpc_core13ServerAddressELm1ENSt3__19allocatorIS3_EEEEbRKNS0_13InlinedVectorIT_XT0_ET1_EESC_, 
                       __ZN4absl12lts_20211102eqIN9grpc_core14PemKeyCertPairELm1ENSt3__19allocatorIS3_EEEEbRKNS0_13InlinedVectorIT_XT0_ET1_EESC_, 
                       __ZN4absl12lts_20211102eqIN9grpc_core19XdsEndpointResource10DropConfig12DropCategoryELm2ENSt3__19allocatorIS5_EEEEbRKNS0_13InlinedVectorIT_XT0_ET1_EESE_, 
                       __ZN4absl12lts_20211102eqIN9grpc_core19XdsEndpointResource8PriorityELm2ENSt3__19allocatorIS4_EEEEbRKNS0_13InlinedVectorIT_XT0_ET1_EESD_, 
                       __ZN4absl12lts_20211102eqINS0_13InlinedVectorIN9grpc_core13ServerAddressELm1ENSt3__19allocatorIS4_EEEEEEbRKNS0_8StatusOrIT_EESD_, 
                       __ZN4absl12lts_20211102neIN9grpc_core14PemKeyCertPairELm1ENSt3__19allocatorIS3_EEEEbRKNS0_13InlinedVectorIT_XT0_ET1_EESC_, 
                       __ZN4absl12lts_20211102neINS0_13InlinedVectorIN9grpc_core13ServerAddressELm1ENSt3__19allocatorIS4_EEEEEEbRKNS0_8StatusOrIT_EESD_, 
                       __ZN9grpc_core11MetadataMapI19grpc_metadata_batchJNS_16HttpPathMetadataENS_21HttpAuthorityMetadataENS_18HttpMethodMetadataENS_18HttpStatusMetadataENS_18HttpSchemeMetadataENS_19ContentTypeMetadataENS_10TeMetadataENS_20GrpcEncodingMetadataENS_27GrpcInternalEncodingRequestENS_26GrpcAcceptEncodingMetadataENS_18GrpcStatusMetadataENS_19GrpcTimeoutMetadataENS_31GrpcPreviousRpcAttemptsMetadataENS_27GrpcRetryPushbackMsMetadataENS_17UserAgentMetadataENS_19GrpcMessageMetadataENS_12HostMetadataENS_31XEndpointLoadMetricsBinMetadataENS_26GrpcServerStatsBinMetadataENS_20GrpcTraceBinMetadataENS_19GrpcTagsBinMetadataENS_25GrpcLbClientStatsMetadataENS_17LbCostBinMetadataENS_15LbTokenMetadataEEE5ClearEv, 
                       __ZN9grpc_core11MetadataMapI19grpc_metadata_batchJNS_16HttpPathMetadataENS_21HttpAuthorityMetadataENS_18HttpMethodMetadataENS_18HttpStatusMetadataENS_18HttpSchemeMetadataENS_19ContentTypeMetadataENS_10TeMetadataENS_20GrpcEncodingMetadataENS_27GrpcInternalEncodingRequestENS_26GrpcAcceptEncodingMetadataENS_18GrpcStatusMetadataENS_19GrpcTimeoutMetadataENS_31GrpcPreviousRpcAttemptsMetadataENS_27GrpcRetryPushbackMsMetadataENS_17UserAgentMetadataENS_19GrpcMessageMetadataENS_12HostMetadataENS_31XEndpointLoadMetricsBinMetadataENS_26GrpcServerStatsBinMetadataENS_20GrpcTraceBinMetadataENS_19GrpcTagsBinMetadataENS_25GrpcLbClientStatsMetadataENS_17LbCostBinMetadataENS_15LbTokenMetadataEEEaSEOSQ_, 
                       __ZN9grpc_core12QsortCompareI13grpc_arg_typeEEiRKT_S4_, __ZN9grpc_core12QsortCompareIP19grpc_socket_factoryEEiRKT_S5_, 
                       __ZN9grpc_core12QsortCompareIP19grpc_socket_mutatorEEiRKT_S5_, 
                       __ZN9grpc_core12QsortCompareIPK21grpc_call_credentialsEEiRKT_S6_, 
                       __ZN9grpc_core12QsortCompareIPK23grpc_arg_pointer_vtableEEiRKT_S6_, 
                       __ZN9grpc_core12QsortCompareIPK23grpc_security_connectorEEiRKT_S6_, 
                       __ZN9grpc_core12QsortCompareIPK23grpc_server_credentialsEEiRKT_S6_, 
                       __ZN9grpc_core12QsortCompareIPK24grpc_channel_credentialsEEiRKT_S6_, 
                       __ZN9grpc_core12QsortCompareIPK26grpc_socket_factory_vtableEEiRKT_S6_, 
                       __ZN9grpc_core12QsortCompareIPK26grpc_socket_mutator_vtableEEiRKT_S6_, 
                       __ZN9grpc_core12QsortCompareIPK8grpc_argEEiRKT_S6_, __ZN9grpc_core12QsortCompareIPKNS_15XdsLocalityNameEEEiRKT_S6_, 
                       __ZN9grpc_core12QsortCompareIPN4absl12lts_2021110213InlinedVectorINS_13ServerAddressELm1ENSt3__19allocatorIS4_EEEEEEiRKT_SC_, 
                       __ZN9grpc_core12QsortCompareIPNS_17GrpcLbClientStatsEEEiRKT_S5_, 
                       __ZN9grpc_core12QsortCompareIPcEEiRKT_S4_, __ZN9grpc_core12QsortCompareIPvEEiRKT_S4_, 
                       __ZN9grpc_core12QsortCompareIbEEiRKT_S3_, __ZN9grpc_core12QsortCompareIiEEiRKT_S3_, 
                       __ZN9grpc_core12QsortCompareIjEEiRKT_S3_, __ZN9grpc_core12QsortCompareImEEiRKT_S3_, 
                       __ZN9grpc_core12table_detail15do_these_thingsIiEEvSt16initializer_listIT_E, 
                       __ZN9grpc_core12table_detail17DestructIfNotNullINS_15metadata_detail5ValueINS_10TeMetadataEvEEEEvPT_, 
                       __ZN9grpc_core12table_detail17DestructIfNotNullINS_15metadata_detail5ValueINS_12HostMetadataEvEEEEvPT_, 
                       __ZN9grpc_core12table_detail17DestructIfNotNullINS_15metadata_detail5ValueINS_15LbTokenMetadataEvEEEEvPT_, 
                       __ZN9grpc_core12table_detail17DestructIfNotNullINS_15metadata_detail5ValueINS_16HttpPathMetadataEvEEEEvPT_, 
                       __ZN9grpc_core12table_detail17DestructIfNotNullINS_15metadata_detail5ValueINS_17LbCostBinMetadataEvEEEEvPT_, 
                       __ZN9grpc_core12table_detail17DestructIfNotNullINS_15metadata_detail5ValueINS_17UserAgentMetadataEvEEEEvPT_, 
                       __ZN9grpc_core12table_detail17DestructIfNotNullINS_15metadata_detail5ValueINS_18GrpcStatusMetadataEvEEEEvPT_, 
                       __ZN9grpc_core12table_detail17DestructIfNotNullINS_15metadata_detail5ValueINS_18HttpMethodMetadataEvEEEEvPT_, 
                       __ZN9grpc_core12table_detail17DestructIfNotNullINS_15metadata_detail5ValueINS_18HttpSchemeMetadataEvEEEEvPT_, 
                       __ZN9grpc_core12table_detail17DestructIfNotNullINS_15metadata_detail5ValueINS_18HttpStatusMetadataEvEEEEvPT_, 
                       __ZN9grpc_core12table_detail17DestructIfNotNullINS_15metadata_detail5ValueINS_19ContentTypeMetadataEvEEEEvPT_, 
                       __ZN9grpc_core12table_detail17DestructIfNotNullINS_15metadata_detail5ValueINS_19GrpcMessageMetadataEvEEEEvPT_, 
                       __ZN9grpc_core12table_detail17DestructIfNotNullINS_15metadata_detail5ValueINS_19GrpcTagsBinMetadataEvEEEEvPT_, 
                       __ZN9grpc_core12table_detail17DestructIfNotNullINS_15metadata_detail5ValueINS_19GrpcTimeoutMetadataEvEEEEvPT_, 
                       __ZN9grpc_core12table_detail17DestructIfNotNullINS_15metadata_detail5ValueINS_20GrpcEncodingMetadataEvEEEEvPT_, 
                       __ZN9grpc_core12table_detail17DestructIfNotNullINS_15metadata_detail5ValueINS_20GrpcTraceBinMetadataEvEEEEvPT_, 
                       __ZN9grpc_core12table_detail17DestructIfNotNullINS_15metadata_detail5ValueINS_21HttpAuthorityMetadataEvEEEEvPT_, 
                       __ZN9grpc_core12table_detail17DestructIfNotNullINS_15metadata_detail5ValueINS_25GrpcLbClientStatsMetadataEvEEEEvPT_, 
                       __ZN9grpc_core12table_detail17DestructIfNotNullINS_15metadata_detail5ValueINS_26GrpcAcceptEncodingMetadataEvEEEEvPT_, 
                       __ZN9grpc_core12table_detail17DestructIfNotNullINS_15metadata_detail5ValueINS_26GrpcServerStatsBinMetadataEvEEEEvPT_, 
                       __ZN9grpc_core12table_detail17DestructIfNotNullINS_15metadata_detail5ValueINS_27GrpcInternalEncodingRequestEvEEEEvPT_, 
                       __ZN9grpc_core12table_detail17DestructIfNotNullINS_15metadata_detail5ValueINS_27GrpcRetryPushbackMsMetadataEvEEEEvPT_, 
                       __ZN9grpc_core12table_detail17DestructIfNotNullINS_15metadata_detail5ValueINS_31GrpcPreviousRpcAttemptsMetadataEvEEEEvPT_, 
                       __ZN9grpc_core12table_detail17DestructIfNotNullINS_15metadata_detail5ValueINS_31XEndpointLoadMetricsBinMetadataEvEEEEvPT_, 
                       __ZN9grpc_core14ParsedMetadataI19grpc_metadata_batchE11EmptyVTableEv, 
                       __ZN9grpc_core14ParsedMetadataI19grpc_metadata_batchE14KeyValueVTableEN4absl12lts_2021110211string_viewE, 
                       __ZN9grpc_core14ParsedMetadataI19grpc_metadata_batchE16SliceTraitVTableINS_12HostMetadataEEEPKNS2_6VTableEv, 
                       __ZN9grpc_core14ParsedMetadataI19grpc_metadata_batchE16SliceTraitVTableINS_15LbTokenMetadataEEEPKNS2_6VTableEv, 
                       __ZN9grpc_core14ParsedMetadataI19grpc_metadata_batchE16SliceTraitVTableINS_16HttpPathMetadataEEEPKNS2_6VTableEv, 
                       __ZN9grpc_core14ParsedMetadataI19grpc_metadata_batchE16SliceTraitVTableINS_17UserAgentMetadataEEEPKNS2_6VTableEv, 
                       __ZN9grpc_core14ParsedMetadataI19grpc_metadata_batchE16SliceTraitVTableINS_19GrpcMessageMetadataEEEPKNS2_6VTableEv, 
                       __ZN9grpc_core14ParsedMetadataI19grpc_metadata_batchE16SliceTraitVTableINS_19GrpcTagsBinMetadataEEEPKNS2_6VTableEv, 
                       __ZN9grpc_core14ParsedMetadataI19grpc_metadata_batchE16SliceTraitVTableINS_20GrpcTraceBinMetadataEEEPKNS2_6VTableEv, 
                       __ZN9grpc_core14ParsedMetadataI19grpc_metadata_batchE16SliceTraitVTableINS_21HttpAuthorityMetadataEEEPKNS2_6VTableEv, 
                       __ZN9grpc_core14ParsedMetadataI19grpc_metadata_batchE16SliceTraitVTableINS_26GrpcServerStatsBinMetadataEEEPKNS2_6VTableEv, 
                       __ZN9grpc_core14ParsedMetadataI19grpc_metadata_batchE16SliceTraitVTableINS_31XEndpointLoadMetricsBinMetadataEEEPKNS2_6VTableEv, 
                       __ZN9grpc_core14ParsedMetadataI19grpc_metadata_batchE18TrivialTraitVTableINS_10TeMetadataEEEPKNS2_6VTableEv, 
                       __ZN9grpc_core14ParsedMetadataI19grpc_metadata_batchE18TrivialTraitVTableINS_18GrpcStatusMetadataEEEPKNS2_6VTableEv, 
                       __ZN9grpc_core14ParsedMetadataI19grpc_metadata_batchE18TrivialTraitVTableINS_18HttpMethodMetadataEEEPKNS2_6VTableEv, 
                       __ZN9grpc_core14ParsedMetadataI19grpc_metadata_batchE18TrivialTraitVTableINS_18HttpSchemeMetadataEEEPKNS2_6VTableEv, 
                       __ZN9grpc_core14ParsedMetadataI19grpc_metadata_batchE18TrivialTraitVTableINS_18HttpStatusMetadataEEEPKNS2_6VTableEv, 
                       __ZN9grpc_core14ParsedMetadataI19grpc_metadata_batchE18TrivialTraitVTableINS_19ContentTypeMetadataEEEPKNS2_6VTableEv, 
                       __ZN9grpc_core14ParsedMetadataI19grpc_metadata_batchE18TrivialTraitVTableINS_19GrpcTimeoutMetadataEEEPKNS2_6VTableEv, 
                       __ZN9grpc_core14ParsedMetadataI19grpc_metadata_batchE18TrivialTraitVTableINS_20GrpcEncodingMetadataEEEPKNS2_6VTableEv, 
                       __ZN9grpc_core14ParsedMetadataI19grpc_metadata_batchE18TrivialTraitVTableINS_25GrpcLbClientStatsMetadataEEEPKNS2_6VTableEv, 
                       __ZN9grpc_core14ParsedMetadataI19grpc_metadata_batchE18TrivialTraitVTableINS_27GrpcInternalEncodingRequestEEEPKNS2_6VTableEv, 
                       __ZN9grpc_core14ParsedMetadataI19grpc_metadata_batchE18TrivialTraitVTableINS_27GrpcRetryPushbackMsMetadataEEEPKNS2_6VTableEv, 
                       __ZN9grpc_core14ParsedMetadataI19grpc_metadata_batchE18TrivialTraitVTableINS_31GrpcPreviousRpcAttemptsMetadataEEEPKNS2_6VTableEv, 
                       __ZN9grpc_core14ParsedMetadataI19grpc_metadata_batchE21NonTrivialTraitVTableINS_17LbCostBinMetadataEEEPKNS2_6VTableEv, 
                       __ZN9grpc_core14ParsedMetadataI19grpc_metadata_batchE21NonTrivialTraitVTableINS_26GrpcAcceptEncodingMetadataEEEPKNS2_6VTableEv, 
                       __ZN9grpc_core14promise_detail10WrapInPollIN4absl12lts_202111027variantIJNS_7PendingENS3_6StatusEEEEEEDTclsr11PollWrapperIT_EE4Wrapclsr3stdE7forwardIS8_Efp_EEEOS8_, 
                       __ZN9grpc_core14promise_detail10WrapInPollIN4absl12lts_202111027variantIJNS_7PendingENS4_IJNS_8ContinueENS3_6StatusEEEEEEEEEDTclsr11PollWrapperIT_EE4Wrapclsr3stdE7forwardISA_Efp_EEEOSA_, 
                       __ZN9grpc_core14promise_detail10WrapInPollIN4absl12lts_202111027variantIJNS_7PendingENS_16BasicMemoryQuota19WaitForSweepPromise5EmptyEEEEEEDTclsr11PollWrapperIT_EE4Wrapclsr3stdE7forwardISA_Efp_EEEOSA_, 
                       __ZN9grpc_core14promise_detail10WrapInPollIN4absl12lts_202111027variantIJNS_7PendingENSt3__15tupleIJPKcNS6_8functionIFvNS3_8optionalINS_16ReclamationSweepEEEEEEEEEEEEEEDTclsr11PollWrapperIT_EE4Wrapclsr3stdE7forwardISI_Efp_EEEOSI_, 
                       __ZN9grpc_core14promise_detail10WrapInPollIN4absl12lts_202111027variantIJNS_7PendingENSt3__18functionIFvNS3_8optionalINS_16ReclamationSweepEEEEEEEEEEEDTclsr11PollWrapperIT_EE4Wrapclsr3stdE7forwardISE_Efp_EEEOSE_, 
                       __ZN9grpc_core14promise_detail10WrapInPollIN4absl12lts_202111027variantIJNS_7PendingEiEEEEEDTclsr11PollWrapperIT_EE4Wrapclsr3stdE7forwardIS7_Efp_EEEOS7_, 
                       __ZN9grpc_core14promise_detail10WrapInPollIN4absl12lts_202111027variantIJNS_8ContinueENS3_6StatusEEEEEEDTclsr11PollWrapperIT_EE4Wrapclsr3stdE7forwardIS8_Efp_EEEOS8_, 
                       __ZN9grpc_core15metadata_detail16FieldFromPointerINS_17LbCostBinMetadata9ValueTypeEEET_RKNS0_6BufferE, 
                       __ZN9grpc_core15metadata_detail16FieldFromPointerINS_23CompressionAlgorithmSetEEET_RKNS0_6BufferE, 
                       __ZN9grpc_core15metadata_detail16FieldFromTrivialI16grpc_status_codeEET_RKNS0_6BufferE, 
                       __ZN9grpc_core15metadata_detail16FieldFromTrivialI26grpc_compression_algorithmEET_RKNS0_6BufferE, 
                       __ZN9grpc_core15metadata_detail16FieldFromTrivialINS_10TeMetadata9ValueTypeEEET_RKNS0_6BufferE, 
                       __ZN9grpc_core15metadata_detail16FieldFromTrivialINS_18HttpMethodMetadata9ValueTypeEEET_RKNS0_6BufferE, 
                       __ZN9grpc_core15metadata_detail16FieldFromTrivialINS_18HttpSchemeMetadata9ValueTypeEEET_RKNS0_6BufferE, 
                       __ZN9grpc_core15metadata_detail16FieldFromTrivialINS_19ContentTypeMetadata9ValueTypeEEET_RKNS0_6BufferE, 
                       __ZN9grpc_core15metadata_detail16FieldFromTrivialIPNS_17GrpcLbClientStatsEEET_RKNS0_6BufferE, 
                       __ZN9grpc_core15metadata_detail16FieldFromTrivialIjEET_RKNS0_6BufferE, 
                       __ZN9grpc_core15metadata_detail16FieldFromTrivialIxEET_RKNS0_6BufferE, 
                       __ZN9grpc_core15metadata_detail23MakeDebugStringPipelineI16grpc_status_codeS2_S2_EENSt3__112basic_stringIcNS3_11char_traitsIcEENS3_9allocatorIcEEEEN4absl12lts_2021110211string_viewERKNS0_6BufferEPFT_SF_EPFT1_T0_E, 
                       __ZN9grpc_core15metadata_detail23MakeDebugStringPipelineI26grpc_compression_algorithmS2_PKcEENSt3__112basic_stringIcNS5_11char_traitsIcEENS5_9allocatorIcEEEEN4absl12lts_2021110211string_viewERKNS0_6BufferEPFT_SH_EPFT1_T0_E, 
                       __ZN9grpc_core15metadata_detail23MakeDebugStringPipelineINS_10TeMetadata9ValueTypeES3_PKcEENSt3__112basic_stringIcNS6_11char_traitsIcEENS6_9allocatorIcEEEEN4absl12lts_2021110211string_viewERKNS0_6BufferEPFT_SI_EPFT1_T0_E, 
                       __ZN9grpc_core15metadata_detail23MakeDebugStringPipelineINS_17LbCostBinMetadata9ValueTypeES3_NSt3__112basic_stringIcNS4_11char_traitsIcEENS4_9allocatorIcEEEEEESA_N4absl12lts_2021110211string_viewERKNS0_6BufferEPFT_SG_EPFT1_T0_E, 
                       __ZN9grpc_core15metadata_detail23MakeDebugStringPipelineINS_18HttpMethodMetadata9ValueTypeES3_PKcEENSt3__112basic_stringIcNS6_11char_traitsIcEENS6_9allocatorIcEEEEN4absl12lts_2021110211string_viewERKNS0_6BufferEPFT_SI_EPFT1_T0_E, 
                       __ZN9grpc_core15metadata_detail23MakeDebugStringPipelineINS_18HttpSchemeMetadata9ValueTypeES3_PKcEENSt3__112basic_stringIcNS6_11char_traitsIcEENS6_9allocatorIcEEEEN4absl12lts_2021110211string_viewERKNS0_6BufferEPFT_SI_EPFT1_T0_E, 
                       __ZN9grpc_core15metadata_detail23MakeDebugStringPipelineINS_19ContentTypeMetadata9ValueTypeES3_PKcEENSt3__112basic_stringIcNS6_11char_traitsIcEENS6_9allocatorIcEEEEN4absl12lts_2021110211string_viewERKNS0_6BufferEPFT_SI_EPFT1_T0_E, 
                       __ZN9grpc_core15metadata_detail23MakeDebugStringPipelineINS_23CompressionAlgorithmSetES2_NSt3__112basic_stringIcNS3_11char_traitsIcEENS3_9allocatorIcEEEEEES9_N4absl12lts_2021110211string_viewERKNS0_6BufferEPFT_SF_EPFT1_T0_E, 
                       __ZN9grpc_core15metadata_detail23MakeDebugStringPipelineINS_5SliceERKS2_N4absl12lts_2021110211string_viewEEENSt3__112basic_stringIcNS8_11char_traitsIcEENS8_9allocatorIcEEEES7_RKNS0_6BufferEPFT_SH_EPFT1_T0_E, 
                       __ZN9grpc_core15metadata_detail23MakeDebugStringPipelineIPNS_17GrpcLbClientStatsES3_PKcEENSt3__112basic_stringIcNS6_11char_traitsIcEENS6_9allocatorIcEEEEN4absl12lts_2021110211string_viewERKNS0_6BufferEPFT_SI_EPFT1_T0_E, 
                       __ZN9grpc_core15metadata_detail23MakeDebugStringPipelineIjjjEENSt3__112basic_stringIcNS2_11char_traitsIcEENS2_9allocatorIcEEEEN4absl12lts_2021110211string_viewERKNS0_6BufferEPFT_SE_EPFT1_T0_E, 
                       __ZN9grpc_core15metadata_detail23MakeDebugStringPipelineIxxxEENSt3__112basic_stringIcNS2_11char_traitsIcEENS2_9allocatorIcEEEEN4absl12lts_2021110211string_viewERKNS0_6BufferEPFT_SE_EPFT1_T0_E, 
